;;; Segment .textbss (00401000)
00401000 00 00 00 00 00 00 00 00 00 00 00 00 00 00 00 00 ................
; ...
;;; Segment .text (00411000)
00411000 CC CC CC CC CC                                  .....          

;; fn00411005: 00411005
;;   Called from:
;;     0041B7E6 (in fn0041B7D0)
fn00411005 proc
	jmp	0041D0B0

l0041100A:
	jmp	0041E970

;; fn0041100F: 0041100F
;;   Called from:
;;     004169CF (in fn00411082)
;;     00416A8F (in fn00416A40)
fn0041100F proc
	jmp	004165E0

;; fn00411014: 00411014
;;   Called from:
;;     0041C900 (in fn00411262)
fn00411014 proc
	jmp	0041D990

;; fn00411019: 00411019
;;   Called from:
;;     0041A563 (in fn004111F9)
fn00411019 proc
	jmp	0041FC38
0041101E                                           E9 0D               ..
00411020 E0 00 00 E9 AC EC 00 00 E9 A9 ED 00 00          .............  

;; fn0041102D: 0041102D
;;   Called from:
;;     0041D397 (in fn0041D220)
fn0041102D proc
	jmp	0041FCE0
00411032       E9 69 C5 00 00 E9 4C ED 00 00               .i....L...   

;; fn0041103C: 0041103C
;;   Called from:
;;     004136EB (in fn004111C7)
;;     00413D56 (in fn0041138E)
;;     00414922 (in fn00411177)
fn0041103C proc
	jmp	00417A40

;; fn00411041: 00411041
;;   Called from:
;;     0041D630 (in fn00411410)
;;     0041D691 (in fn004116DB)
fn00411041 proc
	jmp	0041D760

;; fn00411046: 00411046
;;   Called from:
;;     004135A4 (in fn00411636)
fn00411046 proc
	jmp	004134D0

;; fn0041104B: 0041104B
;;   Called from:
;;     00414352 (in fn00411474)
fn0041104B proc
	jmp	00419A50
00411050 E9 87 ED 00 00 E9 F6 B8 00 00                   ..........     

;; fn0041105A: 0041105A
;;   Called from:
;;     004150D4 (in fn0041141F)
;;     004152A9 (in fn004116CC)
;;     004154C9 (in fn00411226)
;;     004156D9 (in fn00411190)
fn0041105A proc
	jmp	00417F70
0041105F                                              E9                .
00411060 1C DF 00 00                                     ....           

;; fn00411064: 00411064
;;   Called from:
;;     0041761C (in fn00411203)
fn00411064 proc
	jmp	0041C07F

;; fn00411069: 00411069
;;   Called from:
;;     0041E4F5 (in fn0041E4B0)
fn00411069 proc
	jmp	0041ED50
0041106E                                           E9 6D               .m
00411070 BD 00 00 E9 F8 B4 00 00 E9 D3 CE 00 00 E9 EE DE ................
00411080 00 00                                           ..             

;; fn00411082: 00411082
;;   Called from:
;;     0041B82D (in fn0041B7D0)
;;     0041B83E (in fn0041B7D0)
fn00411082 proc
	jmp	00416980

;; fn00411087: 00411087
;;   Called from:
;;     00418523 (in fn00411627)
;;     004194D5 (in fn00411717)
fn00411087 proc
	jmp	0041AF60

;; fn0041108C: 0041108C
;;   Called from:
;;     00413BE6 (in fn00413B90)
;;     00418649 (in fn00411500)
;;     00418962 (in fn0041175D)
;;     00419A22 (in fn0041141A)
fn0041108C proc
	jmp	004191B0
00411091    E9 22 ED 00 00                                ."...         

;; fn00411096: 00411096
;;   Called from:
;;     0041763F (in fn00411203)
fn00411096 proc
	jmp	00417460
0041109B                                  E9 E0 87 00 00            .....

;; fn004110A0: 004110A0
;;   Called from:
;;     0041D9BB (in fn0041D990)
;;     0041DD6B (in fn004115E6)
;;     0041E97B (in fn0041E970)
fn004110A0 proc
	jmp	0041FD82
004110A5                E9 F4 EB 00 00 E9 31 DB 00 00         ......1...

;; fn004110AF: 004110AF
;;   Called from:
;;     00418458 (in fn004114E7)
;;     004192E7 (in fn0041132A)
fn004110AF proc
	jmp	00415CC0

;; fn004110B4: 004110B4
;;   Called from:
;;     0041F232 (in fn0041F1E0)
;;     0041F2CE (in fn0041F1E0)
;;     0041F7AC (in fn00411780)
fn004110B4 proc
	jmp	0041FC74

;; fn004110B9: 004110B9
;;   Called from:
;;     0041D2AD (in fn0041D220)
fn004110B9 proc
	jmp	0041FD0A
004110BE                                           E9 6D               .m
004110C0 CF 00 00                                        ...            

;; fn004110C3: 004110C3
;;   Called from:
;;     0041AC8B (in fn0041AC40)
fn004110C3 proc
	jmp	0041FC98

;; fn004110C8: 004110C8
;;   Called from:
;;     00416EA3 (in fn004115CD)
fn004110C8 proc
	jmp	00416C50
004110CD                                        E9 9C EB              ...
004110D0 00 00                                           ..             

;; fn004110D2: 004110D2
;;   Called from:
;;     0041FEDC (in fn0041FE70)
;;     0041FEF0 (in fn0041FE70)
;;     0041FF04 (in fn0041FE70)
;;     0041FF18 (in fn0041FE70)
;;     0041FF2C (in fn0041FE70)
;;     0041FF40 (in fn0041FE70)
;;     0041FF54 (in fn0041FE70)
;;     0041FF68 (in fn0041FE70)
;;     0041FF7C (in fn0041FE70)
;;     0041FF90 (in fn0041FE70)
;;     0041FFA4 (in fn0041FE70)
;;     0041FFB8 (in fn0041FE70)
;;     0041FFCC (in fn0041FE70)
;;     0041FFE0 (in fn0041FE70)
;;     0041FFF4 (in fn0041FE70)
;;     00420008 (in fn0041FE70)
;;     0042001C (in fn0041FE70)
;;     00420030 (in fn0041FE70)
;;     00420044 (in fn0041FE70)
;;     00420058 (in fn0041FE70)
;;     0042006C (in fn0041FE70)
;;     00420080 (in fn0041FE70)
;;     00420094 (in fn0041FE70)
;;     004200A8 (in fn0041FE70)
;;     004200BC (in fn0041FE70)
;;     004200D0 (in fn0041FE70)
;;     004200E4 (in fn0041FE70)
;;     004200F8 (in fn0041FE70)
;;     0042010C (in fn0041FE70)
;;     00420120 (in fn0041FE70)
;;     00420134 (in fn0041FE70)
;;     00420148 (in fn0041FE70)
;;     0042015C (in fn0041FE70)
;;     00420170 (in fn0041FE70)
;;     00420184 (in fn0041FE70)
;;     00420198 (in fn0041FE70)
;;     004201AC (in fn0041FE70)
;;     004201C0 (in fn0041FE70)
;;     004201D4 (in fn0041FE70)
;;     004201E8 (in fn0041FE70)
;;     004201FC (in fn0041FE70)
;;     00420210 (in fn0041FE70)
;;     00420224 (in fn0041FE70)
;;     00420238 (in fn0041FE70)
;;     0042024C (in fn0041FE70)
;;     00420260 (in fn0041FE70)
;;     00420271 (in fn0041FE70)
;;     00420282 (in fn0041FE70)
;;     00420293 (in fn0041FE70)
;;     004202A4 (in fn0041FE70)
;;     004202B5 (in fn0041FE70)
;;     004202C6 (in fn0041FE70)
;;     004202D7 (in fn0041FE70)
fn004110D2 proc
	jmp	00417880
004110D7                      E9 74 C7 00 00                    .t...   

;; fn004110DC: 004110DC
;;   Called from:
;;     0041D909 (in fn00411384)
fn004110DC proc
	jmp	0041D6E0

;; fn004110E1: 004110E1
;;   Called from:
;;     0041AB5B (in fn004113CA)
fn004110E1 proc
	jmp	00418820
004110E6                   E9 F7 EC 00 00 E9 20 ED 00 00       ...... ...

;; fn004110F0: 004110F0
;;   Called from:
;;     0041C4A2 (in fn004115C8)
fn004110F0 proc
	jmp	0041FCA4

;; fn004110F5: 004110F5
;;   Called from:
;;     0041A876 (in fn0041A790)
;;     0041A89A (in fn0041A790)
;;     0041B485 (in fn0041B400)
;;     00420487 (in fn00420430)
;;     004204AB (in fn00420430)
;;     004204CF (in fn00420430)
;;     004204F3 (in fn00420430)
;;     00420517 (in fn00420430)
;;     0042053B (in fn00420430)
;;     0042055F (in fn00420430)
;;     00420583 (in fn00420430)
;;     004205A7 (in fn00420430)
;;     004205CB (in fn00420430)
;;     004205EF (in fn00420430)
;;     00420613 (in fn00420430)
;;     00420637 (in fn00420430)
;;     0042065B (in fn00420430)
;;     0042067F (in fn00420430)
;;     004206A3 (in fn00420430)
;;     004206C7 (in fn00420430)
;;     004206EB (in fn00420430)
;;     0042070F (in fn00420430)
;;     00420733 (in fn00420430)
;;     00420757 (in fn00420430)
;;     0042077B (in fn00420430)
;;     0042079F (in fn00420430)
;;     004207C3 (in fn00420430)
;;     004207E7 (in fn00420430)
;;     0042080B (in fn00420430)
;;     0042082F (in fn00420430)
;;     00420853 (in fn00420430)
;;     00420877 (in fn00420430)
;;     0042089B (in fn00420430)
;;     004208BF (in fn00420430)
;;     004208E3 (in fn00420430)
;;     00420907 (in fn00420430)
;;     0042092B (in fn00420430)
;;     0042094F (in fn00420430)
;;     00420973 (in fn00420430)
;;     00420997 (in fn00420430)
;;     004209BB (in fn00420430)
;;     004209DF (in fn00420430)
;;     00420A03 (in fn00420430)
;;     00420A27 (in fn00420430)
;;     00420A4B (in fn00420430)
;;     00420A6F (in fn00420430)
;;     00420A93 (in fn00420430)
;;     00420AB7 (in fn00420430)
;;     00420ADB (in fn00420430)
;;     00420AFF (in fn00420430)
;;     00420B23 (in fn00420430)
;;     00420B47 (in fn00420430)
;;     00420B6B (in fn00420430)
;;     00420B8C (in fn00420430)
;;     00420BAD (in fn00420430)
;;     00420BCE (in fn00420430)
fn004110F5 proc
	jmp	004141F0
004110FA                               E9 9E AF 00 00              .....

;; fn004110FF: 004110FF
;;   Called from:
;;     0041CC3F (in fn004114F6)
fn004110FF proc
	jmp	0041FE40

;; fn00411104: 00411104
;;   Called from:
;;     00417267 (in fn00411406)
fn00411104 proc
	jmp	00417110
00411109                            E9 C2 D6 00 00 E9 7D          ......}
00411110 D0 00 00 E9 98 DF 00 00 E9 F3 C5 00 00          .............  

;; fn0041111D: 0041111D
;;   Called from:
;;     00414337 (in fn00411474)
;;     0041A84E (in fn0041A790)
fn0041111D proc
	jmp	00416A40

;; fn00411122: 00411122
;;   Called from:
;;     0041B85C (in fn0041B7D0)
fn00411122 proc
	jmp	0041C140

;; fn00411127: 00411127
;;   Called from:
;;     0041D2F6 (in fn0041D220)
fn00411127 proc
	jmp	0041CBF0
0041112C                                     E9 1F ED 00             ....
00411130 00                                              .              

;; fn00411131: 00411131
;;   Called from:
;;     00418AEF (in fn00411640)
fn00411131 proc
	jmp	00418CE0

;; fn00411136: 00411136
;;   Called from:
;;     00413C69 (in fn0041138E)
;;     0041894B (in fn0041175D)
;;     00419BB1 (in fn0041145B)
fn00411136 proc
	jmp	0041AC40
0041113B                                  E9 90 DE 00 00            .....
00411140 E9 EB EC 00 00 E9 12 EB 00 00                   ..........     

;; fn0041114A: 0041114A
;;   Called from:
;;     00419F4F (in fn00419F10)
;;     0041A023 (in fn00419F10)
;;     0041B88F (in fn0041B7D0)
;;     0041B8C5 (in fn0041B7D0)
;;     0041B921 (in fn0041B7D0)
fn0041114A proc
	jmp	0041ABB0

;; fn0041114F: 0041114F
;;   Called from:
;;     00416031 (in fn0041118B)
fn0041114F proc
	jmp	004179E0

;; fn00411154: 00411154
;;   Called from:
;;     0041D36A (in fn0041D220)
fn00411154 proc
	jmp	0041FD34
00411159                            E9 02 ED 00 00                ..... 

;; fn0041115E: 0041115E
;;   Called from:
;;     0041EA6A (in fn0041E970)
fn0041115E proc
	jmp	0041E930
00411163          E9 EE EA 00 00 E9 79 EB 00 00 E9 AE EC    ......y......
00411170 00 00                                           ..             

;; fn00411172: 00411172
;;   Called from:
;;     00414489 (in fn00414440)
;;     00414514 (in fn004144D0)
fn00411172 proc
	jmp	00418110

;; fn00411177: 00411177
;;   Called from:
;;     0041364E (in fn004113C0)
fn00411177 proc
	jmp	00414820
0041117C                                     E9 9F EC 00             ....
00411180 00 E9 4D AF 00 00                               ..M...         

;; fn00411186: 00411186
;;   Called from:
;;     0041A865 (in fn0041A790)
;;     0041B45C (in fn0041B400)
fn00411186 proc
	jmp	00416390

;; fn0041118B: 0041118B
;;   Called from:
;;     004163EB (in fn00411186)
fn0041118B proc
	jmp	00415FC0

;; fn00411190: 00411190
;;   Called from:
;;     00419521 (in fn00411717)
fn00411190 proc
	jmp	00415660

;; fn00411195: 00411195
;;   Called from:
;;     004161A1 (in fn0041118B)
fn00411195 proc
	jmp	0041BF80

;; fn0041119A: 0041119A
;;   Called from:
;;     004150B4 (in fn0041141F)
;;     0041528B (in fn004116CC)
;;     004154AB (in fn00411226)
;;     004156BB (in fn00411190)
fn0041119A proc
	jmp	00419780

;; fn0041119F: 0041119F
;;   Called from:
;;     00415BDE (in fn004114DD)
;;     00415C5E (in fn0041174E)
fn0041119F proc
	jmp	00417690

;; fn004111A4: 004111A4
;;   Called from:
;;     00416846 (in fn0041124E)
;;     0041823C (in fn004111B3)
fn004111A4 proc
	jmp	004182F0

;; fn004111A9: 004111A9
;;   Called from:
;;     0041AB4F (in fn004113CA)
fn004111A9 proc
	jmp	00418590
004111AE                                           E9 8D               ..
004111B0 DE 00 00                                        ...            

;; fn004111B3: 004111B3
;;   Called from:
;;     004177B6 (in fn0041167C)
fn004111B3 proc
	jmp	004181D0
004111B8                         E9 13 D9 00 00                  .....  

;; fn004111BD: 004111BD
;;   Called from:
;;     0041C706 (in fn00411776)
;;     0041CBF3 (in fn00411127)
fn004111BD proc
	jmp	0041DD30
004111C2       E9 D0 AE 00 00                              .....        

;; fn004111C7: 004111C7
;;   Called from:
;;     00419FA0 (in fn00419F10)
;;     00420BFA (in fn00420430)
fn004111C7 proc
	jmp	00413680

;; fn004111CC: 004111CC
;;   Called from:
;;     004196B8 (in fn004116B3)
fn004111CC proc
	jmp	0041AD60
004111D1    E9 FA B5 00 00 E9 F3 EA 00 00                 ..........    

;; fn004111DB: 004111DB
;;   Called from:
;;     0041C923 (in fn00411262)
;;     0041CC4C (in fn004114F6)
fn004111DB proc
	jmp	0041FE40

;; fn004111E0: 004111E0
;;   Called from:
;;     00418EDF (in fn004114E2)
fn004111E0 proc
	jmp	00418C50

;; fn004111E5: 004111E5
;;   Called from:
;;     00413644 (in fn004113C0)
fn004111E5 proc
	jmp	00413B90
004111EA                               E9 3F EB 00 00 E9           .?....
004111F0 BC C4 00 00 E9 A7 EB 00 00                      .........      

;; fn004111F9: 004111F9
;;   Called from:
;;     004158EB (in fn00411677)
fn004111F9 proc
	jmp	0041A510

;; fn004111FE: 004111FE
;;   Called from:
;;     0041DD91 (in fn004115E6)
;;     0041DE1E (in fn004115E6)
fn004111FE proc
	jmp	0041FC68

;; fn00411203: 00411203
;;   Called from:
;;     00413A88 (in fn004111C7)
;;     0041405D (in fn0041138E)
;;     00414C14 (in fn00411177)
fn00411203 proc
	jmp	004175D0
00411208                         E9 23 86 00 00 E9 38 EA         .#....8.
00411210 00 00                                           ..             

;; fn00411212: 00411212
;;   Called from:
;;     00414475 (in fn00414440)
fn00411212 proc
	jmp	004144D0
00411217                      E9 84 B5 00 00 E9 7F DF 00        .........
00411220 00 E9 CA DD 00 00                               ......         

;; fn00411226: 00411226
;;   Called from:
;;     00419AD0 (in fn0041104B)
fn00411226 proc
	jmp	00415450

;; fn0041122B: 0041122B
;;   Called from:
;;     00417B18 (in fn0041126C)
fn0041122B proc
	jmp	00414F10
00411230 E9 8D EA 00 00                                  .....          

;; fn00411235: 00411235
;;   Called from:
;;     00413865 (in fn004111C7)
;;     004138EF (in fn004111C7)
;;     004139C7 (in fn004111C7)
;;     00413E47 (in fn0041138E)
;;     00413F9A (in fn0041138E)
;;     004149FE (in fn00411177)
;;     00414B51 (in fn00411177)
;;     004160EC (in fn0041118B)
fn00411235 proc
	jmp	0041A9C0

;; fn0041123A: 0041123A
;;   Called from:
;;     00413B35 (in fn0041178F)
;;     00414168 (in fn004114C4)
;;     00418506 (in fn00411627)
;;     00418872 (in fn004110E1)
;;     004194BE (in fn00411717)
;;     0041B0CB (in fn004112AD)
fn0041123A proc
	jmp	00419120
0041123F                                              E9                .
00411240 95 AE 00 00 E9 51 EB 00 00                      .....Q...      

;; fn00411249: 00411249
;;   Called from:
;;     0041C4E7 (in fn00411447)
fn00411249 proc
	jmp	0041D970

;; fn0041124E: 0041124E
;;   Called from:
;;     00414377 (in fn00411474)
fn0041124E proc
	jmp	004167C0

;; fn00411253: 00411253
;;   Called from:
;;     0041DD7B (in fn004115E6)
;;     0041DE89 (in fn004115E6)
fn00411253 proc
	jmp	0041E0C0

;; fn00411258: 00411258
;;   Called from:
;;     00413408 (in fn0041127B)
;;     0041350C (in fn00411046)
fn00411258 proc
	jmp	004166A0

;; fn0041125D: 0041125D
;;   Called from:
;;     0041F219 (in fn0041F1E0)
fn0041125D proc
	jmp	0041FC7A

;; fn00411262: 00411262
;;   Called from:
;;     0041D255 (in fn0041D220)
fn00411262 proc
	jmp	0041C8F0
00411267                      E9 26 EA 00 00                    .&...   

;; fn0041126C: 0041126C
;;   Called from:
;;     00417791 (in fn0041167C)
fn0041126C proc
	jmp	00417A90
00411271    E9 BA B2 00 00 E9 31 EB 00 00                 ......1...    

;; fn0041127B: 0041127B
;;   Called from:
;;     00416637 (in fn004165E0)
fn0041127B proc
	jmp	004133D0
00411280 E9 0F EB 00 00 E9 16 DD 00 00 E9 81 C2 00 00    ...............

;; fn0041128F: 0041128F
;;   Called from:
;;     00413BDF (in fn00413B90)
;;     00417FB5 (in fn00417F70)
;;     00418635 (in fn00411500)
;;     0041893F (in fn0041175D)
;;     00419A10 (in fn0041141A)
;;     0041ABFF (in fn0041114A)
;;     0041B2AF (in fn004116BD)
fn0041128F proc
	jmp	00418B30

;; fn00411294: 00411294
;;   Called from:
;;     00419BBA (in fn0041145B)
fn00411294 proc
	jmp	00414610

;; fn00411299: 00411299
;;   Called from:
;;     0041C905 (in fn00411262)
fn00411299 proc
	jmp	0041FE10

;; fn0041129E: 0041129E
;;   Called from:
;;     0041E382 (in fn00411348)
;;     0041E398 (in fn00411348)
fn0041129E proc
	jmp	0041FD58
004112A3          E9 B6 EA 00 00 E9 1A AE 00 00             ..........  

;; fn004112AD: 004112AD
;;   Called from:
;;     00417DD5 (in fn00411433)
fn004112AD proc
	jmp	0041B070
004112B2       E9 49 DE 00 00 E9 E4 DE 00 00 E9 55 EA 00   .I.........U..
004112C0 00                                              .              

;; fn004112C1: 004112C1
;;   Called from:
;;     0041D4D1 (in fn0041D4C0)
fn004112C1 proc
	jmp	0041FD22

;; fn004112C6: 004112C6
;;   Called from:
;;     0041F702 (in fn0041F660)
fn004112C6 proc
	jmp	0041FD6A
004112CB                                  E9 F0 D7 00 00            .....
004112D0 E9 6B CD 00 00                                  .k...          

;; fn004112D5: 004112D5
;;   Called from:
;;     004150FA (in fn0041141F)
;;     004152CF (in fn004116CC)
;;     004154EF (in fn00411226)
;;     004156FF (in fn00411190)
;;     004186CE (in fn00411500)
fn004112D5 proc
	jmp	004198F0

;; fn004112DA: 004112DA
;;   Called from:
;;     0041E4E6 (in fn0041E4B0)
fn004112DA proc
	jmp	0041ED60
004112DF                                              E9                .
004112E0 62 EA 00 00 E9 D7 D5 00 00 E9 B2 BA 00 00 E9 C2 b...............
004112F0 AD 00 00                                        ...            

;; fn004112F3: 004112F3
;;   Called from:
;;     00414712 (in fn0041134D)
fn004112F3 proc
	jmp	0041A6C0

;; fn004112F8: 004112F8
;;   Called from:
;;     004169DE (in fn00411082)
;;     00416A97 (in fn00416A40)
;;     004183AA (in fn004111A4)
fn004112F8 proc
	jmp	004177E0
004112FD                                        E9 0E C5              ...
00411300 00 00                                           ..             

;; fn00411302: 00411302
;;   Called from:
;;     00414CB9 (in fn0041155F)
;;     00416309 (in fn0041143D)
;;     00416320 (in fn0041143D)
;;     00417B9C (in fn00411622)
;;     00417C39 (in fn004113F7)
;;     0041847E (in fn004114E7)
;;     00418664 (in fn00411500)
;;     0041870E (in fn00411500)
fn00411302 proc
	jmp	0041A5B0

;; fn00411307: 00411307
;;   Called from:
;;     0041980D (in fn00411316)
fn00411307 proc
	jmp	0041C08B
0041130C                                     E9 D4 AD 00             ....
00411310 00 E9 9A D5 00 00                               ......         

;; fn00411316: 00411316
;;   Called from:
;;     004185C8 (in fn004111A9)
fn00411316 proc
	jmp	004197E0
0041131B                                  E9 92 EA 00 00            .....

;; fn00411320: 00411320
;;   Called from:
;;     00419991 (in fn00411438)
fn00411320 proc
	jmp	004147A0
00411325                E9 66 BD 00 00                        .f...     

;; fn0041132A: 0041132A
;;   Called from:
;;     0041725F (in fn00411406)
;;     00417780 (in fn0041167C)
fn0041132A proc
	jmp	00419270
0041132F                                              E9                .
00411330 9C B5 00 00                                     ....           

;; fn00411334: 00411334
;;   Called from:
;;     00413400 (in fn0041127B)
fn00411334 proc
	jmp	00416730
00411339                            E9 02 EA 00 00                ..... 

;; fn0041133E: 0041133E
;;   Called from:
;;     0041D2FE (in fn0041D220)
fn0041133E proc
	jmp	0041F0E0
00411343          E9 1C EA 00 00                            .....       

;; fn00411348: 00411348
;;   Called from:
;;     0041CF4C (in fn004114D3)
fn00411348 proc
	jmp	0041E320

;; fn0041134D: 0041134D
;;   Called from:
;;     00418A16 (in fn00411442)
fn0041134D proc
	jmp	004146E0
00411352       E9 76 AD 00 00                              .v...        

;; fn00411357: 00411357
;;   Called from:
;;     004166D0 (in fn004166A0)
fn00411357 proc
	jmp	00416B40

;; fn0041135C: 0041135C
;;   Called from:
;;     00417AD3 (in fn0041126C)
fn0041135C proc
	jmp	00414250

;; fn00411361: 00411361
;;   Called from:
;;     00416053 (in fn0041118B)
fn00411361 proc
	jmp	00414D10

;; fn00411366: 00411366
;;   Called from:
;;     0041C19E (in fn00411122)
;;     0041C2CF (in fn0041142E)
;;     0041C406 (in fn0041C3A0)
;;     0041D338 (in fn0041D220)
;;     0041E5F1 (in fn0041E4B0)
;;     0041E68C (in fn0041E4B0)
;;     0041F42A (in fn0041F370)
;;     0041F47E (in fn0041F370)
;;     0041F496 (in fn0041F370)
;;     0041F886 (in fn00411780)
;;     0041F8A9 (in fn00411780)
;;     0041F8D3 (in fn00411780)
;;     0041F8FD (in fn00411780)
;;     0041F924 (in fn00411780)
;;     0041F94A (in fn00411780)
;;     0041F97E (in fn00411780)
;;     0041F9B3 (in fn00411780)
;;     0041F9DC (in fn00411780)
;;     0041F9F0 (in fn00411780)
;;     0041FA04 (in fn00411780)
;;     0041FA18 (in fn00411780)
;;     0041FA71 (in fn00411780)
;;     0041FAD2 (in fn00411780)
fn00411366 proc
	jmp	0041D590
0041136B                                  E9 50 C4 00 00            .P...
00411370 E9 1B C5 00 00 E9 7E E9 00 00 E9 51 EA 00 00    ......~....Q...

;; fn0041137F: 0041137F
;;   Called from:
;;     00417923 (in fn004113D4)
fn0041137F proc
	jmp	004159B0

;; fn00411384: 00411384
;;   Called from:
;;     0041C4B4 (in fn004115C8)
fn00411384 proc
	jmp	0041D900
00411389                            E9 D2 B3 00 00                ..... 

;; fn0041138E: 0041138E
;;   Called from:
;;     00419FA9 (in fn00419F10)
;;     00419FF5 (in fn00419F10)
;;     0041A804 (in fn0041A790)
;;     0041A81C (in fn0041A790)
;;     0041A834 (in fn0041A790)
;;     0041B43A (in fn0041B400)
;;     0041B4A6 (in fn0041B400)
;;     0041B4D6 (in fn0041B400)
;;     0041B9D8 (in fn0041B7D0)
fn0041138E proc
	jmp	00413C10
00411393          E9 53 AD 00 00                            .S...       

;; fn00411398: 00411398
;;   Called from:
;;     0041D312 (in fn0041D220)
;;     0041D355 (in fn0041D220)
fn00411398 proc
	jmp	0041CA70
0041139D                                        E9 3D AD              .=.
004113A0 00 00 E9 23 EA 00 00                            ...#...        

;; fn004113A7: 004113A7
;;   Called from:
;;     0041D2D9 (in fn0041D220)
fn004113A7 proc
	jmp	0041FD04

;; fn004113AC: 004113AC
;;   Called from:
;;     00418E4F (in fn00411483)
fn004113AC proc
	jmp	00418BC0
004113B1    E9 6A AC 00 00 E9 E5 D9 00 00                 .j........    

;; fn004113BB: 004113BB
;;   Called from:
;;     0041D37A (in fn0041D220)
fn004113BB proc
	jmp	0041DF60

;; fn004113C0: 004113C0
;;   Called from:
;;     00419FB2 (in fn00419F10)
;;     0041A054 (in fn00419F10)
;;     0041B4DF (in fn0041B400)
;;     0041B9F0 (in fn0041B7D0)
fn004113C0 proc
	jmp	00413610
004113C5                E9 C2 E8 00 00                        .....     

;; fn004113CA: 004113CA
;;   Called from:
;;     0041604A (in fn0041118B)
fn004113CA proc
	jmp	0041AB10
004113CF                                              E9                .
004113D0 AC DD 00 00                                     ....           

;; fn004113D4: 004113D4
;;   Called from:
;;     004135B3 (in fn00411636)
;;     00416646 (in fn004165E0)
;;     00417B2B (in fn0041126C)
fn004113D4 proc
	jmp	004178D0

;; fn004113D9: 004113D9
;;   Called from:
;;     0041516B (in fn0041141F)
;;     00415376 (in fn004116CC)
;;     0041558C (in fn00411226)
;;     004157AC (in fn00411190)
;;     0041844B (in fn004114E7)
;;     004186E1 (in fn00411500)
;;     004192DA (in fn0041132A)
fn004113D9 proc
	jmp	00415A00
004113DE                                           E9 FD               ..
004113E0 C1 00 00                                        ...            

;; fn004113E3: 004113E3
;;   Called from:
;;     00413AB7 (in fn004111C7)
;;     0041408C (in fn0041138E)
;;     004143C1 (in fn00411474)
;;     00414C43 (in fn00411177)
;;     0041519C (in fn0041141F)
;;     004153A7 (in fn004116CC)
;;     004155BD (in fn00411226)
;;     004157DD (in fn00411190)
;;     00416269 (in fn0041118B)
;;     00417992 (in fn004113D4)
;;     0041802C (in fn00417F70)
;;     00418741 (in fn00411500)
;;     00418A45 (in fn00411442)
;;     0041905C (in fn00411479)
;;     00419627 (in fn0041147E)
;;     00419738 (in fn004116B3)
;;     0041A8F7 (in fn0041A790)
;;     0041BA9B (in fn0041B7D0)
;;     0041DC5A (in fn0041D990)
;;     0041E3C2 (in fn00411348)
;;     0041E6A5 (in fn0041E4B0)
;;     0041F317 (in fn0041F1E0)
;;     0041F447 (in fn0041F370)
;;     0041F5BD (in fn0041F370)
;;     0041F719 (in fn0041F660)
;;     0041F72A (in fn0041F660)
fn004113E3 proc
	jmp	0041D010
004113E8                         E9 13 B9 00 00 E9 CC E9         ........
004113F0 00 00 E9 B9 E8 00 00                            .......        

;; fn004113F7: 004113F7
;;   Called from:
;;     00415134 (in fn0041141F)
fn004113F7 proc
	jmp	00417C00
004113FC                                     E9 8F DB 00             ....
00411400 00 E9 2A AE 00 00                               ..*...         

;; fn00411406: 00411406
;;   Called from:
;;     00414395 (in fn00411474)
;;     0041A8CE (in fn0041A790)
;;     0041B914 (in fn0041B7D0)
;;     0041B97D (in fn0041B7D0)
;;     0041BA57 (in fn0041B7D0)
;;     0041BA63 (in fn0041B7D0)
;;     0041BA72 (in fn0041B7D0)
;;     00420C1B (in fn00420430)
fn00411406 proc
	jmp	00417210
0041140B                                  E9 C0 D9 00 00            .....

;; fn00411410: 00411410
;;   Called from:
;;     0041D6EF (in fn004110DC)
fn00411410 proc
	jmp	0041D620
00411415                E9 A1 AC 00 00                        .....     

;; fn0041141A: 0041141A
;;   Called from:
;;     00417D64 (in fn0041146A)
fn0041141A proc
	jmp	004199E0

;; fn0041141F: 0041141F
;;   Called from:
;;     00418568 (in fn00411627)
fn0041141F proc
	jmp	00415070

;; fn00411424: 00411424
;;   Called from:
;;     004171D9 (in fn004171B0)
fn00411424 proc
	jmp	004172B0
00411429                            E9 C9 AC 00 00                ..... 

;; fn0041142E: 0041142E
;;   Called from:
;;     0041BA4B (in fn0041B7D0)
fn0041142E proc
	jmp	0041C260

;; fn00411433: 00411433
;;   Called from:
;;     0041436B (in fn00411474)
;;     004161B0 (in fn0041118B)
fn00411433 proc
	jmp	00417DA0

;; fn00411438: 00411438
;;   Called from:
;;     0041791D (in fn004113D4)
fn00411438 proc
	jmp	00419960

;; fn0041143D: 0041143D
;;   Called from:
;;     0041575F (in fn00411190)
;;     0041579C (in fn00411190)
fn0041143D proc
	jmp	004162D0

;; fn00411442: 00411442
;;   Called from:
;;     0041715F (in fn00411104)
;;     00417B06 (in fn0041126C)
fn00411442 proc
	jmp	004189A0

;; fn00411447: 00411447
;;   Called from:
;;     004146A9 (in fn00411613)
fn00411447 proc
	jmp	0041C4E0
0041144C                                     E9 9F CA 00             ....
00411450 00 E9 CA E9 00 00                               ......         

;; fn00411456: 00411456
;;   Called from:
;;     0041387E (in fn004111C7)
;;     00413908 (in fn004111C7)
;;     004139E0 (in fn004111C7)
;;     00413E60 (in fn0041138E)
;;     00413FB3 (in fn0041138E)
;;     00414A17 (in fn00411177)
;;     00414B6A (in fn00411177)
;;     00416102 (in fn0041118B)
;;     0041612C (in fn0041118B)
fn00411456 proc
	jmp	0041AA80

;; fn0041145B: 0041145B
;;   Called from:
;;     004169EA (in fn00411082)
;;     004178B4 (in fn004110D2)
fn0041145B proc
	jmp	00419B80

;; fn00411460: 00411460
;;   Called from:
;;     004133F8 (in fn0041127B)
;;     00413487 (in fn00411555)
;;     004134F8 (in fn00411046)
;;     00413587 (in fn00411636)
;;     00413633 (in fn004113C0)
;;     004136C9 (in fn004111C7)
;;     00413B18 (in fn0041178F)
;;     00413BD7 (in fn00413B90)
;;     00413C59 (in fn0041138E)
;;     004140E8 (in fn004114C4)
;;     004141B3 (in fn00411587)
;;     00414213 (in fn004141F0)
;;     00414292 (in fn0041135C)
;;     0041432F (in fn00411474)
;;     00414463 (in fn00414440)
;;     004144F3 (in fn004144D0)
;;     00414633 (in fn00411294)
;;     00414683 (in fn00411613)
;;     00414703 (in fn0041134D)
;;     00414773 (in fn0041157D)
;;     004147C3 (in fn004147A0)
;;     00414869 (in fn00411177)
;;     00414CA8 (in fn0041155F)
;;     00414D52 (in fn00411361)
;;     00414DD2 (in fn00411659)
;;     00414E92 (in fn004116F9)
;;     00414F52 (in fn0041122B)
;;     00415022 (in fn00414FE0)
;;     004150A2 (in fn0041141F)
;;     00415262 (in fn004116CC)
;;     00415482 (in fn00411226)
;;     00415692 (in fn00411190)
;;     004158D2 (in fn00411677)
;;     00415983 (in fn004115F5)
;;     004159D3 (in fn0041137F)
;;     00415A42 (in fn004113D9)
;;     00415AD2 (in fn00411631)
;;     00415B62 (in fn00411609)
;;     00415BD3 (in fn004114DD)
;;     00415C53 (in fn0041174E)
;;     00415CE3 (in fn004110AF)
;;     00415D33 (in fn004115C3)
;;     00415E52 (in fn00411645)
;;     00415EE2 (in fn00415EA0)
;;     00415F72 (in fn0041159B)
;;     00416009 (in fn0041118B)
;;     004162F8 (in fn0041143D)
;;     004163B3 (in fn00411186)
;;     00416472 (in fn004116E5)
;;     00416502 (in fn004164C0)
;;     00416592 (in fn004115F0)
;;     00416627 (in fn004165E0)
;;     004166C8 (in fn004166A0)
;;     00416777 (in fn00416730)
;;     00416807 (in fn0041124E)
;;     004168E7 (in fn004114A1)
;;     004169C7 (in fn00411082)
;;     00416A87 (in fn00416A40)
;;     00416B08 (in fn00416AE0)
;;     00416B68 (in fn00416B40)
;;     00416BE7 (in fn00411546)
;;     00416C78 (in fn004110C8)
;;     00416D78 (in fn00416D50)
;;     00416E97 (in fn004115CD)
;;     00416F77 (in fn00416F30)
;;     00417157 (in fn00411104)
;;     00417257 (in fn00411406)
;;     004172F7 (in fn004172B0)
;;     00417387 (in fn00411767)
;;     004174A7 (in fn00411096)
;;     00417617 (in fn00411203)
;;     004176D2 (in fn0041119F)
;;     00417767 (in fn0041167C)
;;     00417808 (in fn004112F8)
;;     004178A8 (in fn004110D2)
;;     00417902 (in fn004113D4)
;;     00417A08 (in fn0041114F)
;;     00417A68 (in fn0041103C)
;;     00417AB8 (in fn0041126C)
;;     00417B88 (in fn00411622)
;;     00417C28 (in fn004113F7)
;;     00417D58 (in fn0041146A)
;;     00417DC8 (in fn00411433)
;;     00417E23 (in fn00417E00)
;;     00417FA2 (in fn00417F70)
;;     00418133 (in fn00411172)
;;     00418217 (in fn004111B3)
;;     00418337 (in fn004111A4)
;;     00418418 (in fn004114E7)
;;     004184E8 (in fn00411627)
;;     004185B8 (in fn004111A9)
;;     00418622 (in fn00411500)
;;     00418848 (in fn004110E1)
;;     00418937 (in fn0041175D)
;;     004189D2 (in fn00411442)
;;     00418AE7 (in fn00411640)
;;     00418B77 (in fn0041128F)
;;     00418C07 (in fn004113AC)
;;     00418C97 (in fn004111E0)
;;     00418D27 (in fn00411131)
;;     00418DB7 (in fn0041162C)
;;     00418E47 (in fn00411483)
;;     00418ED7 (in fn004114E2)
;;     00418F38 (in fn004115A5)
;;     00418FCA (in fn00411479)
;;     004190D7 (in fn00411758)
;;     00419148 (in fn0041123A)
;;     004191D8 (in fn0041108C)
;;     00419248 (in fn004115D7)
;;     00419298 (in fn0041132A)
;;     00419428 (in fn0041163B)
;;     00419488 (in fn00411717)
;;     0041959A (in fn0041147E)
;;     004196AA (in fn004116B3)
;;     004197A3 (in fn0041119A)
;;     00419803 (in fn00411316)
;;     00419918 (in fn004112D5)
;;     00419988 (in fn00411438)
;;     00419A08 (in fn0041141A)
;;     00419A78 (in fn0041104B)
;;     00419BA8 (in fn0041145B)
;;     00419D52 (in fn0041154B)
;;     00419F33 (in fn00419F10)
;;     0041A552 (in fn004111F9)
;;     0041A5F2 (in fn00411302)
;;     0041A6E3 (in fn004112F3)
;;     0041A758 (in fn00411695)
;;     0041A7D5 (in fn0041A790)
;;     0041AA02 (in fn0041A9C0)
;;     0041AAC2 (in fn00411456)
;;     0041AB38 (in fn004113CA)
;;     0041ABF7 (in fn0041114A)
;;     0041AC82 (in fn0041AC40)
;;     0041AD12 (in fn00411663)
;;     0041ADA2 (in fn004111CC)
;;     0041AFA2 (in fn00411087)
;;     0041B098 (in fn004112AD)
;;     0041B1E3 (in fn0041153C)
;;     0041B2A7 (in fn004116BD)
;;     0041B423 (in fn0041B400)
;;     0041B820 (in fn0041B7D0)
;;     0041BFC2 (in fn00411195)
;;     0041FE93 (in fn0041FE70)
;;     00420479 (in fn00420430)
fn00411460 proc
	jmp	0041CFC0

;; fn00411465: 00411465
;;   Called from:
;;     00415C70 (in fn0041174E)
fn00411465 proc
	jmp	00415EA0

;; fn0041146A: 0041146A
;;   Called from:
;;     0041435E (in fn00411474)
fn0041146A proc
	jmp	00417D30
0041146F                                              E9                .
00411470 EC B8 00 00                                     ....           

;; fn00411474: 00411474
;;   Called from:
;;     0041B8F1 (in fn0041B7D0)
;;     0041B95A (in fn0041B7D0)
fn00411474 proc
	jmp	004142E0

;; fn00411479: 00411479
;;   Called from:
;;     00415105 (in fn0041141F)
;;     004152DA (in fn004116CC)
;;     004154FA (in fn00411226)
;;     0041570A (in fn00411190)
;;     0041842B (in fn004114E7)
;;     00419257 (in fn004115D7)
fn00411479 proc
	jmp	00418F80

;; fn0041147E: 0041147E
;;   Called from:
;;     00419440 (in fn0041163B)
fn0041147E proc
	jmp	00419550

;; fn00411483: 00411483
;;   Called from:
;;     004150DF (in fn0041141F)
;;     004152B4 (in fn004116CC)
;;     004154D4 (in fn00411226)
;;     004156E4 (in fn00411190)
;;     0041680F (in fn0041124E)
;;     00417788 (in fn0041167C)
;;     0041790A (in fn004113D4)
;;     00417ACD (in fn0041126C)
;;     00417B12 (in fn0041126C)
;;     0041843C (in fn004114E7)
;;     00418687 (in fn00411500)
;;     004189DA (in fn00411442)
;;     004192CB (in fn0041132A)
fn00411483 proc
	jmp	00418E00

;; fn00411488: 00411488
;;   Called from:
;;     0041341B (in fn0041127B)
;;     004134A5 (in fn00411555)
;;     0041351F (in fn00411046)
;;     004135D8 (in fn00411636)
;;     00413661 (in fn004113C0)
;;     00413712 (in fn004111C7)
;;     0041375B (in fn004111C7)
;;     0041379F (in fn004111C7)
;;     00413809 (in fn004111C7)
;;     0041382B (in fn004111C7)
;;     0041384E (in fn004111C7)
;;     004138B8 (in fn004111C7)
;;     004138D8 (in fn004111C7)
;;     0041396B (in fn004111C7)
;;     0041398D (in fn004111C7)
;;     004139B0 (in fn004111C7)
;;     00413A50 (in fn004111C7)
;;     00413A70 (in fn004111C7)
;;     00413AC4 (in fn004111C7)
;;     00413B85 (in fn0041178F)
;;     00413C01 (in fn00413B90)
;;     00413C90 (in fn0041138E)
;;     00413CCC (in fn0041138E)
;;     00413D0A (in fn0041138E)
;;     00413D8B (in fn0041138E)
;;     00413DEB (in fn0041138E)
;;     00413E0D (in fn0041138E)
;;     00413E30 (in fn0041138E)
;;     00413E9C (in fn0041138E)
;;     00413EC3 (in fn0041138E)
;;     00413F3E (in fn0041138E)
;;     00413F60 (in fn0041138E)
;;     00413F83 (in fn0041138E)
;;     00413FED (in fn0041138E)
;;     00414045 (in fn0041138E)
;;     00414099 (in fn0041138E)
;;     0041412A (in fn004114C4)
;;     00414158 (in fn004114C4)
;;     0041417B (in fn004114C4)
;;     004141CA (in fn00411587)
;;     0041422F (in fn004141F0)
;;     004142AF (in fn0041135C)
;;     004143CE (in fn00411474)
;;     004144A0 (in fn00414440)
;;     00414549 (in fn004144D0)
;;     00414574 (in fn004144D0)
;;     004145BE (in fn004144D0)
;;     00414646 (in fn00411294)
;;     004146BC (in fn00411613)
;;     00414725 (in fn0041134D)
;;     00414786 (in fn0041157D)
;;     004147F6 (in fn004147A0)
;;     0041488C (in fn00411177)
;;     004148C8 (in fn00411177)
;;     004148E9 (in fn00411177)
;;     00414957 (in fn00411177)
;;     004149A2 (in fn00411177)
;;     004149C4 (in fn00411177)
;;     004149E7 (in fn00411177)
;;     00414A57 (in fn00411177)
;;     00414A7D (in fn00411177)
;;     00414AF5 (in fn00411177)
;;     00414B17 (in fn00411177)
;;     00414B3A (in fn00411177)
;;     00414BA4 (in fn00411177)
;;     00414BFC (in fn00411177)
;;     00414C50 (in fn00411177)
;;     00414D00 (in fn0041155F)
;;     00414D73 (in fn00411361)
;;     00414E1F (in fn00411659)
;;     00414EDF (in fn004116F9)
;;     00414F93 (in fn0041122B)
;;     00415049 (in fn00414FE0)
;;     004151A9 (in fn0041141F)
;;     004153B4 (in fn004116CC)
;;     004155CA (in fn00411226)
;;     004157EA (in fn00411190)
;;     00415929 (in fn00411677)
;;     00415996 (in fn004115F5)
;;     004159E6 (in fn0041137F)
;;     00415A60 (in fn004113D9)
;;     00415AF0 (in fn00411631)
;;     00415B80 (in fn00411609)
;;     00415C0D (in fn004114DD)
;;     00415C93 (in fn0041174E)
;;     00415CF3 (in fn004110AF)
;;     00415D43 (in fn004115C3)
;;     00415E70 (in fn00411645)
;;     00415F00 (in fn00415EA0)
;;     00415F90 (in fn0041159B)
;;     00416075 (in fn0041118B)
;;     00416090 (in fn0041118B)
;;     004160BD (in fn0041118B)
;;     004160D8 (in fn0041118B)
;;     00416156 (in fn0041118B)
;;     00416171 (in fn0041118B)
;;     00416222 (in fn0041118B)
;;     00416276 (in fn0041118B)
;;     00416353 (in fn0041143D)
;;     004163D1 (in fn00411186)
;;     004163FE (in fn00411186)
;;     00416490 (in fn004116E5)
;;     00416520 (in fn004164C0)
;;     004165B0 (in fn004115F0)
;;     0041666B (in fn004165E0)
;;     00416702 (in fn004166A0)
;;     00416795 (in fn00416730)
;;     00416864 (in fn0041124E)
;;     00416940 (in fn004114A1)
;;     00416A0F (in fn00411082)
;;     00416AB5 (in fn00416A40)
;;     00416B1B (in fn00416AE0)
;;     00416B84 (in fn00416B40)
;;     00416C18 (in fn00411546)
;;     00416CAB (in fn004110C8)
;;     00416CDA (in fn004110C8)
;;     00416CFC (in fn004110C8)
;;     00416D0F (in fn004110C8)
;;     00416DAB (in fn00416D50)
;;     00416DDA (in fn00416D50)
;;     00416DFC (in fn00416D50)
;;     00416E0F (in fn00416D50)
;;     00416EC3 (in fn004115CD)
;;     00416EEE (in fn004115CD)
;;     00416FA6 (in fn00416F30)
;;     00416FC9 (in fn00416F30)
;;     00416FE9 (in fn00416F30)
;;     0041700A (in fn00416F30)
;;     0041701B (in fn00416F30)
;;     00417037 (in fn00416F30)
;;     00417062 (in fn00416F30)
;;     004170F6 (in fn00411492)
;;     00417182 (in fn00411104)
;;     004171E9 (in fn004171B0)
;;     00417282 (in fn00411406)
;;     00417312 (in fn004172B0)
;;     004173B2 (in fn00411767)
;;     004173E1 (in fn00411767)
;;     00417403 (in fn00411767)
;;     0041741E (in fn00411767)
;;     004174D2 (in fn00411096)
;;     00417501 (in fn00411096)
;;     00417523 (in fn00411096)
;;     0041753E (in fn00411096)
;;     004175B6 (in fn004114F1)
;;     00417637 (in fn00411203)
;;     0041765A (in fn00411203)
;;     004176F0 (in fn0041119F)
;;     004177D4 (in fn0041167C)
;;     0041785D (in fn004112F8)
;;     004178C4 (in fn004110D2)
;;     0041799F (in fn004113D4)
;;     00417A1E (in fn0041114F)
;;     00417A7E (in fn0041103C)
;;     00417B3B (in fn0041126C)
;;     00417BAF (in fn00411622)
;;     00417C69 (in fn004113F7)
;;     00417D74 (in fn0041146A)
;;     00417DE8 (in fn00411433)
;;     00417E8D (in fn00417E00)
;;     00417EBF (in fn00417E00)
;;     00417F15 (in fn00417E00)
;;     00417F47 (in fn00417E00)
;;     00417F67 (in fn00417E00)
;;     00418039 (in fn00417F70)
;;     0041814F (in fn00411172)
;;     00418257 (in fn004111B3)
;;     004183C5 (in fn004111A4)
;;     004184B1 (in fn004114E7)
;;     00418578 (in fn00411627)
;;     004185D8 (in fn004111A9)
;;     0041874E (in fn00411500)
;;     0041888E (in fn004110E1)
;;     00418986 (in fn0041175D)
;;     00418A52 (in fn00411442)
;;     00418B0A (in fn00411640)
;;     00418B9A (in fn0041128F)
;;     00418C25 (in fn004113AC)
;;     00418CB5 (in fn004111E0)
;;     00418D45 (in fn00411131)
;;     00418DD5 (in fn0041162C)
;;     00418E6A (in fn00411483)
;;     00418EFA (in fn004114E2)
;;     00418F6D (in fn004115A5)
;;     00418FE6 (in fn00411479)
;;     00419033 (in fn00411479)
;;     00419069 (in fn00411479)
;;     004190FA (in fn00411758)
;;     00419185 (in fn0041123A)
;;     00419215 (in fn0041108C)
;;     00419267 (in fn004115D7)
;;     0041934A (in fn0041132A)
;;     00419450 (in fn0041163B)
;;     00419531 (in fn00411717)
;;     004195AE (in fn0041147E)
;;     004195FE (in fn0041147E)
;;     00419634 (in fn0041147E)
;;     00419745 (in fn004116B3)
;;     004197BD (in fn0041119A)
;;     0041981D (in fn00411316)
;;     0041993D (in fn004112D5)
;;     004199AD (in fn00411438)
;;     00419A3B (in fn0041141A)
;;     00419B08 (in fn0041104B)
;;     00419BDA (in fn0041145B)
;;     00419D77 (in fn0041154B)
;;     00419FC4 (in fn00419F10)
;;     00419FEF (in fn00419F10)
;;     0041A007 (in fn00419F10)
;;     0041A07A (in fn00419F10)
;;     0041A089 (in fn00419F10)
;;     0041A099 (in fn00419F10)
;;     0041A581 (in fn004111F9)
;;     0041A621 (in fn00411302)
;;     0041A706 (in fn004112F3)
;;     0041A778 (in fn00411695)
;;     0041A816 (in fn0041A790)
;;     0041A82E (in fn0041A790)
;;     0041A846 (in fn0041A790)
;;     0041A904 (in fn0041A790)
;;     0041AA20 (in fn0041A9C0)
;;     0041AB05 (in fn00411456)
;;     0041AB6E (in fn004113CA)
;;     0041AC1D (in fn0041114A)
;;     0041ACA9 (in fn0041AC40)
;;     0041AD32 (in fn00411663)
;;     0041ADC0 (in fn004111CC)
;;     0041AFD1 (in fn00411087)
;;     0041B133 (in fn004112AD)
;;     0041B1F6 (in fn0041153C)
;;     0041B2CD (in fn004116BD)
;;     0041B44C (in fn0041B400)
;;     0041B476 (in fn0041B400)
;;     0041B4B8 (in fn0041B400)
;;     0041B4F1 (in fn0041B400)
;;     0041B544 (in fn0041B400)
;;     0041B9D2 (in fn0041B7D0)
;;     0041B9EA (in fn0041B7D0)
;;     0041BA02 (in fn0041B7D0)
;;     0041BA23 (in fn0041B7D0)
;;     0041BA32 (in fn0041B7D0)
;;     0041BAA8 (in fn0041B7D0)
;;     0041BFE2 (in fn00411195)
;;     004202E7 (in fn0041FE70)
;;     00420C0C (in fn00420430)
;;     00420C36 (in fn00420430)
fn00411488 proc
	jmp	0041CF80

;; fn0041148D: 0041148D
;;   Called from:
;;     00414699 (in fn00411613)
fn0041148D proc
	jmp	00417E00

;; fn00411492: 00411492
;;   Called from:
;;     00417167 (in fn00411104)
fn00411492 proc
	jmp	004170C0
00411497                      E9 94 B3 00 00 E9 D8 AB 00        .........
004114A0 00                                              .              

;; fn004114A1: 004114A1
;;   Called from:
;;     0041B52C (in fn0041B400)
;;     0041B93A (in fn0041B7D0)
fn004114A1 proc
	jmp	004168A0

;; fn004114A6: 004114A6
;;   Called from:
;;     0041C488 (in fn004115C8)
fn004114A6 proc
	jmp	0041FCAA

;; fn004114AB: 004114AB
;;   Called from:
;;     004170E6 (in fn00411492)
fn004114AB proc
	jmp	004171B0
004114B0 E9 BB B7 00 00 E9 A6 E9 00 00 E9 91 B1 00 00 E9 ................
004114C0 00 E9 00 00                                     ....           

;; fn004114C4: 004114C4
;;   Called from:
;;     00419F62 (in fn00419F10)
;;     00419F8F (in fn00419F10)
;;     0041A036 (in fn00419F10)
;;     0041B8AF (in fn0041B7D0)
;;     0041B8DB (in fn0041B7D0)
;;     0041B98E (in fn0041B7D0)
fn004114C4 proc
	jmp	004140C0

;; fn004114C9: 004114C9
;;   Called from:
;;     0041D341 (in fn0041D220)
fn004114C9 proc
	jmp	0041F0F0
004114CE                                           E9 8D               ..
004114D0 48 00 00                                        H..            

;; fn004114D3: 004114D3
;;   Called from:
;;     00413A9D (in fn004111C7)
;;     00414072 (in fn0041138E)
;;     004143A7 (in fn00411474)
;;     00414C29 (in fn00411177)
;;     00414F76 (in fn0041122B)
;;     0041518D (in fn0041141F)
;;     00415398 (in fn004116CC)
;;     004155AE (in fn00411226)
;;     004157CE (in fn00411190)
;;     0041624F (in fn0041118B)
;;     00417983 (in fn004113D4)
;;     0041801D (in fn00417F70)
;;     00418732 (in fn00411500)
;;     00418A36 (in fn00411442)
;;     00419042 (in fn00411479)
;;     0041960D (in fn0041147E)
;;     0041971E (in fn004116B3)
;;     0041A8DD (in fn0041A790)
;;     0041BA81 (in fn0041B7D0)
fn004114D3 proc
	jmp	0041CF00

;; fn004114D8: 004114D8
;;   Called from:
;;     004166DB (in fn004166A0)
fn004114D8 proc
	jmp	00416AE0

;; fn004114DD: 004114DD
;;   Called from:
;;     00415178 (in fn0041141F)
;;     00415383 (in fn004116CC)
;;     00415599 (in fn00411226)
;;     004157B9 (in fn00411190)
;;     004186EE (in fn00411500)
fn004114DD proc
	jmp	00415BB0

;; fn004114E2: 004114E2
;;   Called from:
;;     004168EF (in fn004114A1)
;;     004196B2 (in fn004116B3)
fn004114E2 proc
	jmp	00418E90

;; fn004114E7: 004114E7
;;   Called from:
;;     00419AF8 (in fn0041104B)
fn004114E7 proc
	jmp	004183F0

;; fn004114EC: 004114EC
;;   Called from:
;;     0041992A (in fn004112D5)
;;     0041999A (in fn00411438)
fn004114EC proc
	jmp	00414440

;; fn004114F1: 004114F1
;;   Called from:
;;     0041623A (in fn0041118B)
fn004114F1 proc
	jmp	00417580

;; fn004114F6: 004114F6
;;   Called from:
;;     0041D3A0 (in fn0041D220)
fn004114F6 proc
	jmp	0041CC20
004114FB                                  E9 FA E8 00 00            .....

;; fn00411500: 00411500
;;   Called from:
;;     0041691B (in fn004114A1)
fn00411500 proc
	jmp	004185F0
00411505                E9 36 BB 00 00 E9 CB E7 00 00         .6........

;; fn0041150F: 0041150F
;;   Called from:
;;     0041D38A (in fn0041D220)
fn0041150F proc
	jmp	0041FD10
00411514             E9 E7 DA 00 00 E9 12 E9 00 00           .......... 

;; fn0041151E: 0041151E
;;   Called from:
;;     0041F6A5 (in fn0041F660)
fn0041151E proc
	jmp	0041FD70

;; fn00411523: 00411523
;;   Called from:
;;     0041839F (in fn004111A4)
;;     0041A603 (in fn00411302)
fn00411523 proc
	jmp	0041FC3E

;; fn00411528: 00411528
;;   Called from:
;;     0041CF9A (in fn00411488)
fn00411528 proc
	jmp	0041E2B0
0041152D                                        E9 FE BA              ...
00411530 00 00 E9 19 C3 00 00 E9 7A E7 00 00             ........z...   

;; fn0041153C: 0041153C
;;   Called from:
;;     004168FC (in fn004114A1)
fn0041153C proc
	jmp	0041B1C0
00411541    E9 EA BF 00 00                                .....         

;; fn00411546: 00411546
;;   Called from:
;;     0041793D (in fn004113D4)
fn00411546 proc
	jmp	00416BA0

;; fn0041154B: 0041154B
;;   Called from:
;;     00413B4D (in fn0041178F)
;;     00413B6F (in fn0041178F)
;;     00414CCC (in fn0041155F)
;;     00414CED (in fn0041155F)
;;     00416340 (in fn0041143D)
;;     0041784A (in fn004112F8)
;;     00417C56 (in fn004113F7)
;;     00418540 (in fn00411627)
;;     0041887B (in fn004110E1)
;;     00419337 (in fn0041132A)
;;     004194F5 (in fn00411717)
;;     0041B0DE (in fn004112AD)
;;     0041B0FF (in fn004112AD)
fn0041154B proc
	jmp	00419D10
00411550 E9 39 E8 00 00                                  .9...          

;; fn00411555: 00411555
;;   Called from:
;;     00417913 (in fn004113D4)
;;     004189E3 (in fn00411442)
fn00411555 proc
	jmp	00413440
0041155A                               E9 50 AB 00 00              .P...

;; fn0041155F: 0041155F
;;   Called from:
;;     0041532C (in fn004116CC)
;;     00415366 (in fn004116CC)
fn0041155F proc
	jmp	00414C80
00411564             E9 D7 E8 00 00 E9 92 D3 00 00 E9 BD     ............
00411570 E8 00 00 E9 A4 E7 00 00 E9 C3 C9 00 00          .............  

;; fn0041157D: 0041157D
;;   Called from:
;;     00419921 (in fn004112D5)
fn0041157D proc
	jmp	00414750
00411582       E9 B9 DB 00 00                              .....        

;; fn00411587: 00411587
;;   Called from:
;;     0041D4D9 (in fn0041D4C0)
fn00411587 proc
	jmp	00414190

;; fn0041158C: 0041158C
;;   Called from:
;;     004197AD (in fn0041119A)
fn0041158C proc
	jmp	0041C085
00411591    E9 BA DA 00 00 E9 F5 B2 00 00                 ..........    

;; fn0041159B: 0041159B
;;   Called from:
;;     00413501 (in fn00411046)
;;     00413590 (in fn00411636)
fn0041159B proc
	jmp	00415F30
004115A0 E9 AB E8 00 00                                  .....          

;; fn004115A5: 004115A5
;;   Called from:
;;     0041834A (in fn004111A4)
;;     00419159 (in fn0041123A)
;;     004191E9 (in fn0041108C)
;;     004192B3 (in fn0041132A)
;;     00419AE9 (in fn0041104B)
fn004115A5 proc
	jmp	00418F10
004115AA                               E9 A1 BA 00 00              .....

;; fn004115AF: 004115AF
;;   Called from:
;;     0041D203 (in fn0041D200)
fn004115AF proc
	jmp	0041EEC0

;; fn004115B4: 004115B4
;;   Called from:
;;     0041E370 (in fn00411348)
fn004115B4 proc
	jmp	0041FD52
004115B9                            E9 D2 D7 00 00                ..... 

;; fn004115BE: 004115BE
;;   Called from:
;;     0041F26B (in fn0041F1E0)
;;     0041F291 (in fn0041F1E0)
;;     0041F2A9 (in fn0041F1E0)
;;     0041F304 (in fn0041F1E0)
;;     0041F392 (in fn0041F370)
;;     0041F3AB (in fn0041F370)
;;     0041F3CB (in fn0041F370)
;;     0041F586 (in fn0041F370)
;;     0041F5A9 (in fn0041F370)
fn004115BE proc
	jmp	0041FC80

;; fn004115C3: 004115C3
;;   Called from:
;;     004189FF (in fn00411442)
fn004115C3 proc
	jmp	00415D10

;; fn004115C8: 004115C8
;;   Called from:
;;     0041813C (in fn00411172)
fn004115C8 proc
	jmp	0041C480

;; fn004115CD: 004115CD
;;   Called from:
;;     00416022 (in fn0041118B)
fn004115CD proc
	jmp	00416E50

;; fn004115D2: 004115D2
;;   Called from:
;;     0041C915 (in fn00411262)
fn004115D2 proc
	jmp	0041FE10

;; fn004115D7: 004115D7
;;   Called from:
;;     00418367 (in fn004111A4)
;;     004189EB (in fn00411442)
;;     004192A0 (in fn0041132A)
fn004115D7 proc
	jmp	00419220

;; fn004115DC: 004115DC
;;   Called from:
;;     0041D4C9 (in fn0041D4C0)
fn004115DC proc
	jmp	0041FD28
004115E1    E9 C3 AA 00 00                                .....         

;; fn004115E6: 004115E6
;;   Called from:
;;     0041D266 (in fn0041D220)
;;     0041D289 (in fn0041D220)
fn004115E6 proc
	jmp	0041DD60
004115EB                                  E9 D1 AA 00 00            .....

;; fn004115F0: 004115F0
;;   Called from:
;;     0041683A (in fn0041124E)
;;     004177AA (in fn0041167C)
;;     00418230 (in fn004111B3)
fn004115F0 proc
	jmp	00416550

;; fn004115F5: 004115F5
;;   Called from:
;;     00415128 (in fn0041141F)
;;     004152F5 (in fn004116CC)
;;     0041531C (in fn004116CC)
;;     00415515 (in fn00411226)
;;     00415537 (in fn00411226)
;;     00415725 (in fn00411190)
;;     0041574F (in fn00411190)
;;     0041846E (in fn004114E7)
;;     00418705 (in fn00411500)
;;     0041916C (in fn0041123A)
;;     004191FC (in fn0041108C)
fn004115F5 proc
	jmp	00415960
004115FA                               E9 B1 D9 00 00 E9           ......
00411600 C4 E6 00 00 E9 17 C7 00 00                      .........      

;; fn00411609: 00411609
;;   Called from:
;;     00417770 (in fn0041167C)
fn00411609 proc
	jmp	00415B20
0041160E                                           E9 69               .i
00411610 E7 00 00                                        ...            

;; fn00411613: 00411613
;;   Called from:
;;     0041A6F3 (in fn004112F3)
;;     0041A765 (in fn00411695)
fn00411613 proc
	jmp	00414660
00411618                         E9 A3 BF 00 00                  .....  

;; fn0041161D: 0041161D
;;   Called from:
;;     004163E2 (in fn00411186)
fn0041161D proc
	jmp	004164C0

;; fn00411622: 00411622
;;   Called from:
;;     00415547 (in fn00411226)
;;     0041557C (in fn00411226)
fn00411622 proc
	jmp	00417B60

;; fn00411627: 00411627
;;   Called from:
;;     00419BCA (in fn0041145B)
fn00411627 proc
	jmp	004184C0

;; fn0041162C: 0041162C
;;   Called from:
;;     00418B7F (in fn0041128F)
fn0041162C proc
	jmp	00418D70

;; fn00411631: 00411631
;;   Called from:
;;     00417963 (in fn004113D4)
;;     00418375 (in fn004111A4)
;;     00418387 (in fn004111A4)
fn00411631 proc
	jmp	00415A90

;; fn00411636: 00411636
;;   Called from:
;;     00416821 (in fn0041124E)
;;     00416908 (in fn004114A1)
fn00411636 proc
	jmp	00413540

;; fn0041163B: 0041163B
;;   Called from:
;;     0041835D (in fn004111A4)
fn0041163B proc
	jmp	00419400

;; fn00411640: 00411640
;;   Called from:
;;     00413B20 (in fn0041178F)
;;     004140F0 (in fn004114C4)
;;     004150BC (in fn0041141F)
;;     0041526A (in fn004116CC)
;;     0041548A (in fn00411226)
;;     0041569A (in fn00411190)
;;     00417810 (in fn004112F8)
;;     0041795D (in fn004113D4)
;;     0041833F (in fn004111A4)
;;     0041836F (in fn004111A4)
;;     00418420 (in fn004114E7)
;;     004184F0 (in fn00411627)
;;     0041862A (in fn00411500)
;;     00418850 (in fn004110E1)
;;     004190DF (in fn00411758)
;;     00419250 (in fn004115D7)
;;     004192A8 (in fn0041132A)
;;     00419430 (in fn0041163B)
;;     00419439 (in fn0041163B)
;;     00419490 (in fn00411717)
;;     00419A80 (in fn0041104B)
;;     0041AB40 (in fn004113CA)
;;     0041B0A0 (in fn004112AD)
fn00411640 proc
	jmp	00418AA0

;; fn00411645: 00411645
;;   Called from:
;;     00415BF0 (in fn004114DD)
fn00411645 proc
	jmp	00415E10
0041164A                               E9 A2 AA 00 00 E9           ......
00411650 0C D9 00 00 E9 4D E7 00 00                      .....M...      

;; fn00411659: 00411659
;;   Called from:
;;     00418009 (in fn00417F70)
;;     004196D8 (in fn004116B3)
fn00411659 proc
	jmp	00414D90
0041165E                                           E9 AD               ..
00411660 AA 00 00                                        ...            

;; fn00411663: 00411663
;;   Called from:
;;     004196F1 (in fn004116B3)
fn00411663 proc
	jmp	0041ACD0
00411668                         E9 43 BA 00 00 E9 7A E6         .C....z.
00411670 00 00 E9 2C AA 00 00                            ...,...        

;; fn00411677: 00411677
;;   Called from:
;;     00418968 (in fn0041175D)
fn00411677 proc
	jmp	00415890

;; fn0041167C: 0041167C
;;   Called from:
;;     0041B909 (in fn0041B7D0)
;;     0041B972 (in fn0041B7D0)
fn0041167C proc
	jmp	00417720
00411681    E9 36 E6 00 00 E9 67 E6 00 00 E9 80 C1 00 00  .6....g........
00411690 E9 0B C1 00 00                                  .....          

;; fn00411695: 00411695
;;   Called from:
;;     00415150 (in fn0041141F)
;;     0041533F (in fn004116CC)
;;     0041555A (in fn00411226)
;;     00415772 (in fn00411190)
;;     00418497 (in fn004114E7)
;;     00419300 (in fn0041132A)
fn00411695 proc
	jmp	0041A730
0041169A                               E9 5E AA 00 00              .^...

;; fn0041169F: 0041169F
;;   Called from:
;;     0041C4BB (in fn004115C8)
fn0041169F proc
	jmp	0041D8D0

;; fn004116A4: 004116A4
;;   Called from:
;;     0041D979 (in fn00411249)
fn004116A4 proc
	jmp	0041FD4C
004116A9                            E9 A2 E5 00 00 E9 9D          .......
004116B0 E7 00 00                                        ...            

;; fn004116B3: 004116B3
;;   Called from:
;;     004150AA (in fn0041141F)
;;     0041527E (in fn004116CC)
;;     0041549E (in fn00411226)
;;     004156AE (in fn00411190)
;;     00416187 (in fn0041118B)
;;     00417FAA (in fn00417F70)
;;     00418692 (in fn00411500)
fn004116B3 proc
	jmp	00419660
004116B8                         E9 D3 C1 00 00                  .....  

;; fn004116BD: 004116BD
;;   Called from:
;;     0041363B (in fn004113C0)
;;     00414346 (in fn00411474)
;;     0041617D (in fn0041118B)
fn004116BD proc
	jmp	0041B260
004116C2       E9 69 C2 00 00 E9 1C E7 00 00               .i........   

;; fn004116CC: 004116CC
;;   Called from:
;;     0041B123 (in fn004112AD)
fn004116CC proc
	jmp	00415230
004116D1    E9 BB A9 00 00                                .....         

;; fn004116D6: 004116D6
;;   Called from:
;;     00414F64 (in fn0041122B)
fn004116D6 proc
	jmp	00414FE0

;; fn004116DB: 004116DB
;;   Called from:
;;     0041D8D9 (in fn0041169F)
fn004116DB proc
	jmp	0041D680
004116E0 E9 1B AE 00 00                                  .....          

;; fn004116E5: 004116E5
;;   Called from:
;;     0041502B (in fn00414FE0)
;;     00416815 (in fn0041124E)
fn004116E5 proc
	jmp	00416430
004116EA                               E9 21 B1 00 00              .!...

;; fn004116EF: 004116EF
;;   Called from:
;;     004136DC (in fn004111C7)
;;     00413D47 (in fn0041138E)
;;     00414913 (in fn00411177)
fn004116EF proc
	jmp	00416F30
004116F4             E9 77 D6 00 00                          .w...      

;; fn004116F9: 004116F9
;;   Called from:
;;     004186B7 (in fn00411500)
;;     0041970A (in fn004116B3)
fn004116F9 proc
	jmp	00414E50

;; Win32CrtStartup: 004116FE
Win32CrtStartup proc
	jmp	0041D550
00411703          E9 78 AE 00 00 E9 E7 E6 00 00             .x........  

;; fn0041170D: 0041170D
;;   Called from:
;;     0041F6BF (in fn0041F660)
;;     0041F6D9 (in fn0041F660)
fn0041170D proc
	jmp	0041FD76
00411712       E9 E9 E6 00 00                              .....        

;; fn00411717: 00411717
;;   Called from:
;;     00419A2B (in fn0041141A)
fn00411717 proc
	jmp	00419460
0041171C                                     E9 EF C8 00             ....
00411720 00 E9 BA C0 00 00 E9 0F E6 00 00                ...........    

;; fn0041172B: 0041172B
;;   Called from:
;;     0041D4C3 (in fn0041D4C0)
fn0041172B proc
	jmp	0041FCFE

;; fn00411730: 00411730
;;   Called from:
;;     0041AFB3 (in fn00411087)
fn00411730 proc
	jmp	0041FC44

;; fn00411735: 00411735
;;   Called from:
;;     0041C1DF (in fn0041C1C7)
;;     0041C307 (in fn0041C2EF)
fn00411735 proc
	jmp	0041C3A0
0041173A                               E9 B1 BD 00 00 E9           ......
00411740 42 E5 00 00                                     B...           

;; fn00411744: 00411744
;;   Called from:
;;     00416F83 (in fn00416F30)
fn00411744 proc
	jmp	00416D50
00411749                            E9 E2 C8 00 00                ..... 

;; fn0041174E: 0041174E
;;   Called from:
;;     00417952 (in fn004113D4)
fn0041174E proc
	jmp	00415C30
00411753          E9 1B A9 00 00                            .....       

;; fn00411758: 00411758
;;   Called from:
;;     00417930 (in fn004113D4)
;;     00417946 (in fn004113D4)
;;     00417970 (in fn004113D4)
;;     004189F3 (in fn00411442)
;;     00418A0A (in fn00411442)
;;     00418A21 (in fn00411442)
fn00411758 proc
	jmp	00419090

;; fn0041175D: 0041175D
;;   Called from:
;;     0041421F (in fn004141F0)
fn0041175D proc
	jmp	004188F0
00411762       E9 87 E6 00 00                              .....        

;; fn00411767: 00411767
;;   Called from:
;;     004175A6 (in fn004114F1)
fn00411767 proc
	jmp	00417340
0041176C                                     E9 EF D8 00             ....
00411770 00                                              .              

;; fn00411771: 00411771
;;   Called from:
;;     0041C713 (in fn00411776)
fn00411771 proc
	jmp	0041C6F0

;; fn00411776: 00411776
;;   Called from:
;;     0041D276 (in fn0041D220)
fn00411776 proc
	jmp	0041C700
0041177B                                  E9 D0 BE 00 00            .....

;; fn00411780: 00411780
;;   Called from:
;;     0041E5C0 (in fn0041E4B0)
fn00411780 proc
	jmp	0041F770
00411785                E9 76 D6 00 00                        .v...     

;; fn0041178A: 0041178A
;;   Called from:
;;     0041D8E7 (in fn0041169F)
;;     0041D917 (in fn00411384)
fn0041178A proc
	jmp	0041FC62

;; fn0041178F: 0041178F
;;   Called from:
;;     0041B99C (in fn0041B7D0)
fn0041178F proc
	jmp	00413AF0
00411794             CC CC CC CC CC CC CC CC CC CC CC CC     ............
004117A0 CC CC CC CC CC CC CC CC CC CC CC CC CC CC CC CC ................
004117B0 CC CC CC CC CC CC CC CC CC CC CC CC CC CC CC CC ................
004117C0 CC CC CC CC CC CC CC CC CC CC CC CC CC CC CC CC ................
004117D0 CC CC CC CC CC CC CC CC CC CC CC CC CC CC CC CC ................
004117E0 CC CC CC CC CC CC CC CC CC CC CC CC CC CC CC CC ................
004117F0 CC CC CC CC CC CC CC CC CC CC CC CC CC CC CC CC ................
00411800 CC CC CC CC CC CC CC CC CC CC CC CC CC CC CC CC ................
00411810 CC CC CC CC CC CC CC CC CC CC CC CC CC CC CC CC ................
00411820 CC CC CC CC CC CC CC CC CC CC CC CC CC CC CC CC ................
00411830 CC CC CC CC CC CC CC CC CC CC CC CC CC CC CC CC ................
00411840 CC CC CC CC CC CC CC CC CC CC CC CC CC CC CC CC ................
00411850 CC CC CC CC CC CC CC CC CC CC CC CC CC CC CC CC ................
00411860 CC CC CC CC CC CC CC CC CC CC CC CC CC CC CC CC ................
00411870 CC CC CC CC CC CC CC CC CC CC CC CC CC CC CC CC ................
00411880 CC CC CC CC CC CC CC CC CC CC CC CC CC CC CC CC ................
00411890 CC CC CC CC CC CC CC CC CC CC CC CC CC CC CC CC ................
004118A0 CC CC CC CC CC CC CC CC CC CC CC CC CC CC CC CC ................
004118B0 CC CC CC CC CC CC CC CC CC CC CC CC CC CC CC CC ................
004118C0 CC CC CC CC CC CC CC CC CC CC CC CC CC CC CC CC ................
004118D0 CC CC CC CC CC CC CC CC CC CC CC CC CC CC CC CC ................
004118E0 CC CC CC CC CC CC CC CC CC CC CC CC CC CC CC CC ................
004118F0 CC CC CC CC CC CC CC CC CC CC CC CC CC CC CC CC ................
00411900 CC CC CC CC CC CC CC CC CC CC CC CC CC CC CC CC ................
00411910 CC CC CC CC CC CC CC CC CC CC CC CC CC CC CC CC ................
00411920 CC CC CC CC CC CC CC CC CC CC CC CC CC CC CC CC ................
00411930 CC CC CC CC CC CC CC CC CC CC CC CC CC CC CC CC ................
00411940 CC CC CC CC CC CC CC CC CC CC CC CC CC CC CC CC ................
00411950 CC CC CC CC CC CC CC CC CC CC CC CC CC CC CC CC ................
00411960 CC CC CC CC CC CC CC CC CC CC CC CC CC CC CC CC ................
00411970 CC CC CC CC CC CC CC CC CC CC CC CC CC CC CC CC ................
00411980 CC CC CC CC CC CC CC CC CC CC CC CC CC CC CC CC ................
00411990 CC CC CC CC CC CC CC CC CC CC CC CC CC CC CC CC ................
004119A0 CC CC CC CC CC CC CC CC CC CC CC CC CC CC CC CC ................
004119B0 CC CC CC CC CC CC CC CC CC CC CC CC CC CC CC CC ................
004119C0 CC CC CC CC CC CC CC CC CC CC CC CC CC CC CC CC ................
004119D0 CC CC CC CC CC CC CC CC CC CC CC CC CC CC CC CC ................
004119E0 CC CC CC CC CC CC CC CC CC CC CC CC CC CC CC CC ................
004119F0 CC CC CC CC CC CC CC CC CC CC CC CC CC CC CC CC ................
00411A00 CC CC CC CC CC CC CC CC CC CC CC CC CC CC CC CC ................
00411A10 CC CC CC CC CC CC CC CC CC CC CC CC CC CC CC CC ................
00411A20 CC CC CC CC CC CC CC CC CC CC CC CC CC CC CC CC ................
00411A30 CC CC CC CC CC CC CC CC CC CC CC CC CC CC CC CC ................
00411A40 CC CC CC CC CC CC CC CC CC CC CC CC CC CC CC CC ................
00411A50 CC CC CC CC CC CC CC CC CC CC CC CC CC CC CC CC ................
00411A60 CC CC CC CC CC CC CC CC CC CC CC CC CC CC CC CC ................
00411A70 CC CC CC CC CC CC CC CC CC CC CC CC CC CC CC CC ................
00411A80 CC CC CC CC CC CC CC CC CC CC CC CC CC CC CC CC ................
00411A90 CC CC CC CC CC CC CC CC CC CC CC CC CC CC CC CC ................
00411AA0 CC CC CC CC CC CC CC CC CC CC CC CC CC CC CC CC ................
00411AB0 CC CC CC CC CC CC CC CC CC CC CC CC CC CC CC CC ................
00411AC0 CC CC CC CC CC CC CC CC CC CC CC CC CC CC CC CC ................
00411AD0 CC CC CC CC CC CC CC CC CC CC CC CC CC CC CC CC ................
00411AE0 CC CC CC CC CC CC CC CC CC CC CC CC CC CC CC CC ................
00411AF0 CC CC CC CC CC CC CC CC CC CC CC CC CC CC CC CC ................
00411B00 CC CC CC CC CC CC CC CC CC CC CC CC CC CC CC CC ................
00411B10 CC CC CC CC CC CC CC CC CC CC CC CC CC CC CC CC ................
00411B20 CC CC CC CC CC CC CC CC CC CC CC CC CC CC CC CC ................
00411B30 CC CC CC CC CC CC CC CC CC CC CC CC CC CC CC CC ................
00411B40 CC CC CC CC CC CC CC CC CC CC CC CC CC CC CC CC ................
00411B50 CC CC CC CC CC CC CC CC CC CC CC CC CC CC CC CC ................
00411B60 CC CC CC CC CC CC CC CC CC CC CC CC CC CC CC CC ................
00411B70 CC CC CC CC CC CC CC CC CC CC CC CC CC CC CC CC ................
00411B80 CC CC CC CC CC CC CC CC CC CC CC CC CC CC CC CC ................
00411B90 CC CC CC CC CC CC CC CC CC CC CC CC CC CC CC CC ................
00411BA0 CC CC CC CC CC CC CC CC CC CC CC CC CC CC CC CC ................
00411BB0 CC CC CC CC CC CC CC CC CC CC CC CC CC CC CC CC ................
00411BC0 CC CC CC CC CC CC CC CC CC CC CC CC CC CC CC CC ................
00411BD0 CC CC CC CC CC CC CC CC CC CC CC CC CC CC CC CC ................
00411BE0 CC CC CC CC CC CC CC CC CC CC CC CC CC CC CC CC ................
00411BF0 CC CC CC CC CC CC CC CC CC CC CC CC CC CC CC CC ................
00411C00 CC CC CC CC CC CC CC CC CC CC CC CC CC CC CC CC ................
00411C10 CC CC CC CC CC CC CC CC CC CC CC CC CC CC CC CC ................
00411C20 CC CC CC CC CC CC CC CC CC CC CC CC CC CC CC CC ................
00411C30 CC CC CC CC CC CC CC CC CC CC CC CC CC CC CC CC ................
00411C40 CC CC CC CC CC CC CC CC CC CC CC CC CC CC CC CC ................
00411C50 CC CC CC CC CC CC CC CC CC CC CC CC CC CC CC CC ................
00411C60 CC CC CC CC CC CC CC CC CC CC CC CC CC CC CC CC ................
00411C70 CC CC CC CC CC CC CC CC CC CC CC CC CC CC CC CC ................
00411C80 CC CC CC CC CC CC CC CC CC CC CC CC CC CC CC CC ................
00411C90 CC CC CC CC CC CC CC CC CC CC CC CC CC CC CC CC ................
00411CA0 CC CC CC CC CC CC CC CC CC CC CC CC CC CC CC CC ................
00411CB0 CC CC CC CC CC CC CC CC CC CC CC CC CC CC CC CC ................
00411CC0 CC CC CC CC CC CC CC CC CC CC CC CC CC CC CC CC ................
00411CD0 CC CC CC CC CC CC CC CC CC CC CC CC CC CC CC CC ................
00411CE0 CC CC CC CC CC CC CC CC CC CC CC CC CC CC CC CC ................
00411CF0 CC CC CC CC CC CC CC CC CC CC CC CC CC CC CC CC ................
00411D00 CC CC CC CC CC CC CC CC CC CC CC CC CC CC CC CC ................
00411D10 CC CC CC CC CC CC CC CC CC CC CC CC CC CC CC CC ................
00411D20 CC CC CC CC CC CC CC CC CC CC CC CC CC CC CC CC ................
00411D30 CC CC CC CC CC CC CC CC CC CC CC CC CC CC CC CC ................
00411D40 CC CC CC CC CC CC CC CC CC CC CC CC CC CC CC CC ................
00411D50 CC CC CC CC CC CC CC CC CC CC CC CC CC CC CC CC ................
00411D60 CC CC CC CC CC CC CC CC CC CC CC CC CC CC CC CC ................
00411D70 CC CC CC CC CC CC CC CC CC CC CC CC CC CC CC CC ................
00411D80 CC CC CC CC CC CC CC CC CC CC CC CC CC CC CC CC ................
00411D90 CC CC CC CC CC CC CC CC CC CC CC CC CC CC CC CC ................
00411DA0 CC CC CC CC CC CC CC CC CC CC CC CC CC CC CC CC ................
00411DB0 CC CC CC CC CC CC CC CC CC CC CC CC CC CC CC CC ................
00411DC0 CC CC CC CC CC CC CC CC CC CC CC CC CC CC CC CC ................
00411DD0 CC CC CC CC CC CC CC CC CC CC CC CC CC CC CC CC ................
00411DE0 CC CC CC CC CC CC CC CC CC CC CC CC CC CC CC CC ................
00411DF0 CC CC CC CC CC CC CC CC CC CC CC CC CC CC CC CC ................
00411E00 CC CC CC CC CC CC CC CC CC CC CC CC CC CC CC CC ................
00411E10 CC CC CC CC CC CC CC CC CC CC CC CC CC CC CC CC ................
00411E20 CC CC CC CC CC CC CC CC CC CC CC CC CC CC CC CC ................
00411E30 CC CC CC CC CC CC CC CC CC CC CC CC CC CC CC CC ................
00411E40 CC CC CC CC CC CC CC CC CC CC CC CC CC CC CC CC ................
00411E50 CC CC CC CC CC CC CC CC CC CC CC CC CC CC CC CC ................
00411E60 CC CC CC CC CC CC CC CC CC CC CC CC CC CC CC CC ................
00411E70 CC CC CC CC CC CC CC CC CC CC CC CC CC CC CC CC ................
00411E80 CC CC CC CC CC CC CC CC CC CC CC CC CC CC CC CC ................
00411E90 CC CC CC CC CC CC CC CC CC CC CC CC CC CC CC CC ................
00411EA0 CC CC CC CC CC CC CC CC CC CC CC CC CC CC CC CC ................
00411EB0 CC CC CC CC CC CC CC CC CC CC CC CC CC CC CC CC ................
00411EC0 CC CC CC CC CC CC CC CC CC CC CC CC CC CC CC CC ................
00411ED0 CC CC CC CC CC CC CC CC CC CC CC CC CC CC CC CC ................
00411EE0 CC CC CC CC CC CC CC CC CC CC CC CC CC CC CC CC ................
00411EF0 CC CC CC CC CC CC CC CC CC CC CC CC CC CC CC CC ................
00411F00 CC CC CC CC CC CC CC CC CC CC CC CC CC CC CC CC ................
00411F10 CC CC CC CC CC CC CC CC CC CC CC CC CC CC CC CC ................
00411F20 55 8B EC 81 EC C0 00 00 00 53 56 57 8D BD 40 FF U........SVW..@.
00411F30 FF FF B9 30 00 00 00 B8 CC CC CC CC F3 AB B9 2A ...0...........*
00411F40 C0 42 00 E8 18 F5 FF FF B9 E0 92 42 00 E8 CB F1 .B.........B....
00411F50 FF FF 68 B0 30 42 00 E8 13 F5 FF FF 83 C4 04 5F ..h.0B........._
00411F60 5E 5B 81 C4 C0 00 00 00 3B EC E8 19 F5 FF FF 8B ^[......;.......
00411F70 E5 5D C3 CC CC CC CC CC CC CC CC CC CC CC CC CC .]..............
00411F80 CC CC CC CC CC CC CC CC CC CC CC CC CC CC CC CC ................
00411F90 55 8B EC 81 EC C0 00 00 00 53 56 57 8D BD 40 FF U........SVW..@.
00411FA0 FF FF B9 30 00 00 00 B8 CC CC CC CC F3 AB B9 2A ...0...........*
00411FB0 C0 42 00 E8 A8 F4 FF FF B9 FC 92 42 00 E8 5B F1 .B.........B..[.
00411FC0 FF FF 68 00 31 42 00 E8 A3 F4 FF FF 83 C4 04 5F ..h.1B........._
00411FD0 5E 5B 81 C4 C0 00 00 00 3B EC E8 A9 F4 FF FF 8B ^[......;.......
00411FE0 E5 5D C3 CC CC CC CC CC CC CC CC CC CC CC CC CC .]..............
00411FF0 CC CC CC CC CC CC CC CC CC CC CC CC CC CC CC CC ................
00412000 CC CC CC CC CC CC CC CC CC CC CC CC CC CC CC CC ................
00412010 CC CC CC CC CC CC CC CC CC CC CC CC CC CC CC CC ................
00412020 CC CC CC CC CC CC CC CC CC CC CC CC CC CC CC CC ................
00412030 CC CC CC CC CC CC CC CC CC CC CC CC CC CC CC CC ................
00412040 CC CC CC CC CC CC CC CC CC CC CC CC CC CC CC CC ................
00412050 CC CC CC CC CC CC CC CC CC CC CC CC CC CC CC CC ................
00412060 CC CC CC CC CC CC CC CC CC CC CC CC CC CC CC CC ................
00412070 CC CC CC CC CC CC CC CC CC CC CC CC CC CC CC CC ................
00412080 CC CC CC CC CC CC CC CC CC CC CC CC CC CC CC CC ................
00412090 CC CC CC CC CC CC CC CC CC CC CC CC CC CC CC CC ................
004120A0 CC CC CC CC CC CC CC CC CC CC CC CC CC CC CC CC ................
004120B0 CC CC CC CC CC CC CC CC CC CC CC CC CC CC CC CC ................
004120C0 CC CC CC CC CC CC CC CC CC CC CC CC CC CC CC CC ................
004120D0 CC CC CC CC CC CC CC CC CC CC CC CC CC CC CC CC ................
004120E0 CC CC CC CC CC CC CC CC CC CC CC CC CC CC CC CC ................
004120F0 CC CC CC CC CC CC CC CC CC CC CC CC CC CC CC CC ................
00412100 CC CC CC CC CC CC CC CC CC CC CC CC CC CC CC CC ................
00412110 CC CC CC CC CC CC CC CC CC CC CC CC CC CC CC CC ................
00412120 CC CC CC CC CC CC CC CC CC CC CC CC CC CC CC CC ................
00412130 CC CC CC CC CC CC CC CC CC CC CC CC CC CC CC CC ................
00412140 CC CC CC CC CC CC CC CC CC CC CC CC CC CC CC CC ................
00412150 CC CC CC CC CC CC CC CC CC CC CC CC CC CC CC CC ................
00412160 CC CC CC CC CC CC CC CC CC CC CC CC CC CC CC CC ................
00412170 CC CC CC CC CC CC CC CC CC CC CC CC CC CC CC CC ................
00412180 CC CC CC CC CC CC CC CC CC CC CC CC CC CC CC CC ................
00412190 CC CC CC CC CC CC CC CC CC CC CC CC CC CC CC CC ................
004121A0 CC CC CC CC CC CC CC CC CC CC CC CC CC CC CC CC ................
004121B0 CC CC CC CC CC CC CC CC CC CC CC CC CC CC CC CC ................
004121C0 CC CC CC CC CC CC CC CC CC CC CC CC CC CC CC CC ................
004121D0 CC CC CC CC CC CC CC CC CC CC CC CC CC CC CC CC ................
004121E0 CC CC CC CC CC CC CC CC CC CC CC CC CC CC CC CC ................
004121F0 CC CC CC CC CC CC CC CC CC CC CC CC CC CC CC CC ................
00412200 CC CC CC CC CC CC CC CC CC CC CC CC CC CC CC CC ................
00412210 CC CC CC CC CC CC CC CC CC CC CC CC CC CC CC CC ................
00412220 CC CC CC CC CC CC CC CC CC CC CC CC CC CC CC CC ................
00412230 CC CC CC CC CC CC CC CC CC CC CC CC CC CC CC CC ................
00412240 CC CC CC CC CC CC CC CC CC CC CC CC CC CC CC CC ................
00412250 CC CC CC CC CC CC CC CC CC CC CC CC CC CC CC CC ................
00412260 CC CC CC CC CC CC CC CC CC CC CC CC CC CC CC CC ................
00412270 CC CC CC CC CC CC CC CC CC CC CC CC CC CC CC CC ................
00412280 CC CC CC CC CC CC CC CC CC CC CC CC CC CC CC CC ................
00412290 CC CC CC CC CC CC CC CC CC CC CC CC CC CC CC CC ................
004122A0 CC CC CC CC CC CC CC CC CC CC CC CC CC CC CC CC ................
004122B0 CC CC CC CC CC CC CC CC CC CC CC CC CC CC CC CC ................
004122C0 CC CC CC CC CC CC CC CC CC CC CC CC CC CC CC CC ................
004122D0 CC CC CC CC CC CC CC CC CC CC CC CC CC CC CC CC ................
004122E0 CC CC CC CC CC CC CC CC CC CC CC CC CC CC CC CC ................
004122F0 CC CC CC CC CC CC CC CC CC CC CC CC CC CC CC CC ................
00412300 CC CC CC CC CC CC CC CC CC CC CC CC CC CC CC CC ................
00412310 CC CC CC CC CC CC CC CC CC CC CC CC CC CC CC CC ................
00412320 CC CC CC CC CC CC CC CC CC CC CC CC CC CC CC CC ................
00412330 CC CC CC CC CC CC CC CC CC CC CC CC CC CC CC CC ................
00412340 CC CC CC CC CC CC CC CC CC CC CC CC CC CC CC CC ................
00412350 CC CC CC CC CC CC CC CC CC CC CC CC CC CC CC CC ................
00412360 CC CC CC CC CC CC CC CC CC CC CC CC CC CC CC CC ................
00412370 CC CC CC CC CC CC CC CC CC CC CC CC CC CC CC CC ................
00412380 CC CC CC CC CC CC CC CC CC CC CC CC CC CC CC CC ................
00412390 CC CC CC CC CC CC CC CC CC CC CC CC CC CC CC CC ................
004123A0 CC CC CC CC CC CC CC CC CC CC CC CC CC CC CC CC ................
004123B0 CC CC CC CC CC CC CC CC CC CC CC CC CC CC CC CC ................
004123C0 CC CC CC CC CC CC CC CC CC CC CC CC CC CC CC CC ................
004123D0 CC CC CC CC CC CC CC CC CC CC CC CC CC CC CC CC ................
004123E0 CC CC CC CC CC CC CC CC CC CC CC CC CC CC CC CC ................
004123F0 CC CC CC CC CC CC CC CC CC CC CC CC CC CC CC CC ................
00412400 CC CC CC CC CC CC CC CC CC CC CC CC CC CC CC CC ................
00412410 CC CC CC CC CC CC CC CC CC CC CC CC CC CC CC CC ................
00412420 CC CC CC CC CC CC CC CC CC CC CC CC CC CC CC CC ................
00412430 CC CC CC CC CC CC CC CC CC CC CC CC CC CC CC CC ................
00412440 CC CC CC CC CC CC CC CC CC CC CC CC CC CC CC CC ................
00412450 CC CC CC CC CC CC CC CC CC CC CC CC CC CC CC CC ................
00412460 CC CC CC CC CC CC CC CC CC CC CC CC CC CC CC CC ................
00412470 CC CC CC CC CC CC CC CC CC CC CC CC CC CC CC CC ................
00412480 CC CC CC CC CC CC CC CC CC CC CC CC CC CC CC CC ................
00412490 CC CC CC CC CC CC CC CC CC CC CC CC CC CC CC CC ................
004124A0 CC CC CC CC CC CC CC CC CC CC CC CC CC CC CC CC ................
004124B0 CC CC CC CC CC CC CC CC CC CC CC CC CC CC CC CC ................
004124C0 CC CC CC CC CC CC CC CC CC CC CC CC CC CC CC CC ................
004124D0 CC CC CC CC CC CC CC CC CC CC CC CC CC CC CC CC ................
004124E0 CC CC CC CC CC CC CC CC CC CC CC CC CC CC CC CC ................
004124F0 CC CC CC CC CC CC CC CC CC CC CC CC CC CC CC CC ................
00412500 CC CC CC CC CC CC CC CC CC CC CC CC CC CC CC CC ................
00412510 CC CC CC CC CC CC CC CC CC CC CC CC CC CC CC CC ................
00412520 CC CC CC CC CC CC CC CC CC CC CC CC CC CC CC CC ................
00412530 CC CC CC CC CC CC CC CC CC CC CC CC CC CC CC CC ................
00412540 CC CC CC CC CC CC CC CC CC CC CC CC CC CC CC CC ................
00412550 CC CC CC CC CC CC CC CC CC CC CC CC CC CC CC CC ................
00412560 CC CC CC CC CC CC CC CC CC CC CC CC CC CC CC CC ................
00412570 CC CC CC CC CC CC CC CC CC CC CC CC CC CC CC CC ................
00412580 CC CC CC CC CC CC CC CC CC CC CC CC CC CC CC CC ................
00412590 CC CC CC CC CC CC CC CC CC CC CC CC CC CC CC CC ................
004125A0 CC CC CC CC CC CC CC CC CC CC CC CC CC CC CC CC ................
004125B0 CC CC CC CC CC CC CC CC CC CC CC CC CC CC CC CC ................
004125C0 CC CC CC CC CC CC CC CC CC CC CC CC CC CC CC CC ................
004125D0 CC CC CC CC CC CC CC CC CC CC CC CC CC CC CC CC ................
004125E0 CC CC CC CC CC CC CC CC CC CC CC CC CC CC CC CC ................
004125F0 CC CC CC CC CC CC CC CC CC CC CC CC CC CC CC CC ................
00412600 CC CC CC CC CC CC CC CC CC CC CC CC CC CC CC CC ................
00412610 CC CC CC CC CC CC CC CC CC CC CC CC CC CC CC CC ................
00412620 CC CC CC CC CC CC CC CC CC CC CC CC CC CC CC CC ................
00412630 CC CC CC CC CC CC CC CC CC CC CC CC CC CC CC CC ................
00412640 CC CC CC CC CC CC CC CC CC CC CC CC CC CC CC CC ................
00412650 CC CC CC CC CC CC CC CC CC CC CC CC CC CC CC CC ................
00412660 CC CC CC CC CC CC CC CC CC CC CC CC CC CC CC CC ................
00412670 CC CC CC CC CC CC CC CC CC CC CC CC CC CC CC CC ................
00412680 CC CC CC CC CC CC CC CC CC CC CC CC CC CC CC CC ................
00412690 CC CC CC CC CC CC CC CC CC CC CC CC CC CC CC CC ................
004126A0 CC CC CC CC CC CC CC CC CC CC CC CC CC CC CC CC ................
004126B0 CC CC CC CC CC CC CC CC CC CC CC CC CC CC CC CC ................
004126C0 CC CC CC CC CC CC CC CC CC CC CC CC CC CC CC CC ................
004126D0 CC CC CC CC CC CC CC CC CC CC CC CC CC CC CC CC ................
004126E0 CC CC CC CC CC CC CC CC CC CC CC CC CC CC CC CC ................
004126F0 CC CC CC CC CC CC CC CC CC CC CC CC CC CC CC CC ................
00412700 CC CC CC CC CC CC CC CC CC CC CC CC CC CC CC CC ................
00412710 CC CC CC CC CC CC CC CC CC CC CC CC CC CC CC CC ................
00412720 CC CC CC CC CC CC CC CC CC CC CC CC CC CC CC CC ................
00412730 CC CC CC CC CC CC CC CC CC CC CC CC CC CC CC CC ................
00412740 CC CC CC CC CC CC CC CC CC CC CC CC CC CC CC CC ................
00412750 CC CC CC CC CC CC CC CC CC CC CC CC CC CC CC CC ................
00412760 CC CC CC CC CC CC CC CC CC CC CC CC CC CC CC CC ................
00412770 CC CC CC CC CC CC CC CC CC CC CC CC CC CC CC CC ................
00412780 CC CC CC CC CC CC CC CC CC CC CC CC CC CC CC CC ................
00412790 CC CC CC CC CC CC CC CC CC CC CC CC CC CC CC CC ................
004127A0 CC CC CC CC CC CC CC CC CC CC CC CC CC CC CC CC ................
004127B0 CC CC CC CC CC CC CC CC CC CC CC CC CC CC CC CC ................
004127C0 CC CC CC CC CC CC CC CC CC CC CC CC CC CC CC CC ................
004127D0 CC CC CC CC CC CC CC CC CC CC CC CC CC CC CC CC ................
004127E0 CC CC CC CC CC CC CC CC CC CC CC CC CC CC CC CC ................
004127F0 CC CC CC CC CC CC CC CC CC CC CC CC CC CC CC CC ................
00412800 CC CC CC CC CC CC CC CC CC CC CC CC CC CC CC CC ................
00412810 CC CC CC CC CC CC CC CC CC CC CC CC CC CC CC CC ................
00412820 CC CC CC CC CC CC CC CC CC CC CC CC CC CC CC CC ................
00412830 CC CC CC CC CC CC CC CC CC CC CC CC CC CC CC CC ................
00412840 CC CC CC CC CC CC CC CC CC CC CC CC CC CC CC CC ................
00412850 CC CC CC CC CC CC CC CC CC CC CC CC CC CC CC CC ................
00412860 CC CC CC CC CC CC CC CC CC CC CC CC CC CC CC CC ................
00412870 CC CC CC CC CC CC CC CC CC CC CC CC CC CC CC CC ................
00412880 CC CC CC CC CC CC CC CC CC CC CC CC CC CC CC CC ................
00412890 CC CC CC CC CC CC CC CC CC CC CC CC CC CC CC CC ................
004128A0 CC CC CC CC CC CC CC CC CC CC CC CC CC CC CC CC ................
004128B0 CC CC CC CC CC CC CC CC CC CC CC CC CC CC CC CC ................
004128C0 CC CC CC CC CC CC CC CC CC CC CC CC CC CC CC CC ................
004128D0 CC CC CC CC CC CC CC CC CC CC CC CC CC CC CC CC ................
004128E0 CC CC CC CC CC CC CC CC CC CC CC CC CC CC CC CC ................
004128F0 CC CC CC CC CC CC CC CC CC CC CC CC CC CC CC CC ................
00412900 CC CC CC CC CC CC CC CC CC CC CC CC CC CC CC CC ................
00412910 CC CC CC CC CC CC CC CC CC CC CC CC CC CC CC CC ................
00412920 CC CC CC CC CC CC CC CC CC CC CC CC CC CC CC CC ................
00412930 CC CC CC CC CC CC CC CC CC CC CC CC CC CC CC CC ................
00412940 CC CC CC CC CC CC CC CC CC CC CC CC CC CC CC CC ................
00412950 CC CC CC CC CC CC CC CC CC CC CC CC CC CC CC CC ................
00412960 CC CC CC CC CC CC CC CC CC CC CC CC CC CC CC CC ................
00412970 CC CC CC CC CC CC CC CC CC CC CC CC CC CC CC CC ................
00412980 CC CC CC CC CC CC CC CC CC CC CC CC CC CC CC CC ................
00412990 CC CC CC CC CC CC CC CC CC CC CC CC CC CC CC CC ................
004129A0 CC CC CC CC CC CC CC CC CC CC CC CC CC CC CC CC ................
004129B0 CC CC CC CC CC CC CC CC CC CC CC CC CC CC CC CC ................
004129C0 CC CC CC CC CC CC CC CC CC CC CC CC CC CC CC CC ................
004129D0 CC CC CC CC CC CC CC CC CC CC CC CC CC CC CC CC ................
004129E0 CC CC CC CC CC CC CC CC CC CC CC CC CC CC CC CC ................
004129F0 CC CC CC CC CC CC CC CC CC CC CC CC CC CC CC CC ................
00412A00 CC CC CC CC CC CC CC CC CC CC CC CC CC CC CC CC ................
00412A10 CC CC CC CC CC CC CC CC CC CC CC CC CC CC CC CC ................
00412A20 CC CC CC CC CC CC CC CC CC CC CC CC CC CC CC CC ................
00412A30 CC CC CC CC CC CC CC CC CC CC CC CC CC CC CC CC ................
00412A40 CC CC CC CC CC CC CC CC CC CC CC CC CC CC CC CC ................
00412A50 CC CC CC CC CC CC CC CC CC CC CC CC CC CC CC CC ................
00412A60 CC CC CC CC CC CC CC CC CC CC CC CC CC CC CC CC ................
00412A70 CC CC CC CC CC CC CC CC CC CC CC CC CC CC CC CC ................
00412A80 CC CC CC CC CC CC CC CC CC CC CC CC CC CC CC CC ................
00412A90 CC CC CC CC CC CC CC CC CC CC CC CC CC CC CC CC ................
00412AA0 CC CC CC CC CC CC CC CC CC CC CC CC CC CC CC CC ................
00412AB0 CC CC CC CC CC CC CC CC CC CC CC CC CC CC CC CC ................
00412AC0 CC CC CC CC CC CC CC CC CC CC CC CC CC CC CC CC ................
00412AD0 CC CC CC CC CC CC CC CC CC CC CC CC CC CC CC CC ................
00412AE0 CC CC CC CC CC CC CC CC CC CC CC CC CC CC CC CC ................
00412AF0 CC CC CC CC CC CC CC CC CC CC CC CC CC CC CC CC ................
00412B00 CC CC CC CC CC CC CC CC CC CC CC CC CC CC CC CC ................
00412B10 CC CC CC CC CC CC CC CC CC CC CC CC CC CC CC CC ................
00412B20 CC CC CC CC CC CC CC CC CC CC CC CC CC CC CC CC ................
00412B30 CC CC CC CC CC CC CC CC CC CC CC CC CC CC CC CC ................
00412B40 CC CC CC CC CC CC CC CC CC CC CC CC CC CC CC CC ................
00412B50 CC CC CC CC CC CC CC CC CC CC CC CC CC CC CC CC ................
00412B60 CC CC CC CC CC CC CC CC CC CC CC CC CC CC CC CC ................
00412B70 CC CC CC CC CC CC CC CC CC CC CC CC CC CC CC CC ................
00412B80 CC CC CC CC CC CC CC CC CC CC CC CC CC CC CC CC ................
00412B90 CC CC CC CC CC CC CC CC CC CC CC CC CC CC CC CC ................
00412BA0 CC CC CC CC CC CC CC CC CC CC CC CC CC CC CC CC ................
00412BB0 CC CC CC CC CC CC CC CC CC CC CC CC CC CC CC CC ................
00412BC0 CC CC CC CC CC CC CC CC CC CC CC CC CC CC CC CC ................
00412BD0 CC CC CC CC CC CC CC CC CC CC CC CC CC CC CC CC ................
00412BE0 CC CC CC CC CC CC CC CC CC CC CC CC CC CC CC CC ................
00412BF0 CC CC CC CC CC CC CC CC CC CC CC CC CC CC CC CC ................
00412C00 CC CC CC CC CC CC CC CC CC CC CC CC CC CC CC CC ................
00412C10 CC CC CC CC CC CC CC CC CC CC CC CC CC CC CC CC ................
00412C20 CC CC CC CC CC CC CC CC CC CC CC CC CC CC CC CC ................
00412C30 CC CC CC CC CC CC CC CC CC CC CC CC CC CC CC CC ................
00412C40 CC CC CC CC CC CC CC CC CC CC CC CC CC CC CC CC ................
00412C50 CC CC CC CC CC CC CC CC CC CC CC CC CC CC CC CC ................
00412C60 CC CC CC CC CC CC CC CC CC CC CC CC CC CC CC CC ................
00412C70 CC CC CC CC CC CC CC CC CC CC CC CC CC CC CC CC ................
00412C80 CC CC CC CC CC CC CC CC CC CC CC CC CC CC CC CC ................
00412C90 CC CC CC CC CC CC CC CC CC CC CC CC CC CC CC CC ................
00412CA0 CC CC CC CC CC CC CC CC CC CC CC CC CC CC CC CC ................
00412CB0 CC CC CC CC CC CC CC CC CC CC CC CC CC CC CC CC ................
00412CC0 CC CC CC CC CC CC CC CC CC CC CC CC CC CC CC CC ................
00412CD0 CC CC CC CC CC CC CC CC CC CC CC CC CC CC CC CC ................
00412CE0 CC CC CC CC CC CC CC CC CC CC CC CC CC CC CC CC ................
00412CF0 CC CC CC CC CC CC CC CC CC CC CC CC CC CC CC CC ................
00412D00 CC CC CC CC CC CC CC CC CC CC CC CC CC CC CC CC ................
00412D10 CC CC CC CC CC CC CC CC CC CC CC CC CC CC CC CC ................
00412D20 CC CC CC CC CC CC CC CC CC CC CC CC CC CC CC CC ................
00412D30 CC CC CC CC CC CC CC CC CC CC CC CC CC CC CC CC ................
00412D40 CC CC CC CC CC CC CC CC CC CC CC CC CC CC CC CC ................
00412D50 CC CC CC CC CC CC CC CC CC CC CC CC CC CC CC CC ................
00412D60 CC CC CC CC CC CC CC CC CC CC CC CC CC CC CC CC ................
00412D70 CC CC CC CC CC CC CC CC CC CC CC CC CC CC CC CC ................
00412D80 CC CC CC CC CC CC CC CC CC CC CC CC CC CC CC CC ................
00412D90 CC CC CC CC CC CC CC CC CC CC CC CC CC CC CC CC ................
00412DA0 CC CC CC CC CC CC CC CC CC CC CC CC CC CC CC CC ................
00412DB0 CC CC CC CC CC CC CC CC CC CC CC CC CC CC CC CC ................
00412DC0 CC CC CC CC CC CC CC CC CC CC CC CC CC CC CC CC ................
00412DD0 CC CC CC CC CC CC CC CC CC CC CC CC CC CC CC CC ................
00412DE0 CC CC CC CC CC CC CC CC CC CC CC CC CC CC CC CC ................
00412DF0 CC CC CC CC CC CC CC CC CC CC CC CC CC CC CC CC ................
00412E00 CC CC CC CC CC CC CC CC CC CC CC CC CC CC CC CC ................
00412E10 CC CC CC CC CC CC CC CC CC CC CC CC CC CC CC CC ................
00412E20 CC CC CC CC CC CC CC CC CC CC CC CC CC CC CC CC ................
00412E30 CC CC CC CC CC CC CC CC CC CC CC CC CC CC CC CC ................
00412E40 CC CC CC CC CC CC CC CC CC CC CC CC CC CC CC CC ................
00412E50 CC CC CC CC CC CC CC CC CC CC CC CC CC CC CC CC ................
00412E60 CC CC CC CC CC CC CC CC CC CC CC CC CC CC CC CC ................
00412E70 CC CC CC CC CC CC CC CC CC CC CC CC CC CC CC CC ................
00412E80 CC CC CC CC CC CC CC CC CC CC CC CC CC CC CC CC ................
00412E90 CC CC CC CC CC CC CC CC CC CC CC CC CC CC CC CC ................
00412EA0 CC CC CC CC CC CC CC CC CC CC CC CC CC CC CC CC ................
00412EB0 CC CC CC CC CC CC CC CC CC CC CC CC CC CC CC CC ................
00412EC0 CC CC CC CC CC CC CC CC CC CC CC CC CC CC CC CC ................
00412ED0 CC CC CC CC CC CC CC CC CC CC CC CC CC CC CC CC ................
00412EE0 CC CC CC CC CC CC CC CC CC CC CC CC CC CC CC CC ................
00412EF0 CC CC CC CC CC CC CC CC CC CC CC CC CC CC CC CC ................
00412F00 CC CC CC CC CC CC CC CC CC CC CC CC CC CC CC CC ................
00412F10 CC CC CC CC CC CC CC CC CC CC CC CC CC CC CC CC ................
00412F20 CC CC CC CC CC CC CC CC CC CC CC CC CC CC CC CC ................
00412F30 CC CC CC CC CC CC CC CC CC CC CC CC CC CC CC CC ................
00412F40 CC CC CC CC CC CC CC CC CC CC CC CC CC CC CC CC ................
00412F50 CC CC CC CC CC CC CC CC CC CC CC CC CC CC CC CC ................
00412F60 CC CC CC CC CC CC CC CC CC CC CC CC CC CC CC CC ................
00412F70 CC CC CC CC CC CC CC CC CC CC CC CC CC CC CC CC ................
00412F80 CC CC CC CC CC CC CC CC CC CC CC CC CC CC CC CC ................
00412F90 CC CC CC CC CC CC CC CC CC CC CC CC CC CC CC CC ................
00412FA0 CC CC CC CC CC CC CC CC CC CC CC CC CC CC CC CC ................
00412FB0 CC CC CC CC CC CC CC CC CC CC CC CC CC CC CC CC ................
00412FC0 CC CC CC CC CC CC CC CC CC CC CC CC CC CC CC CC ................
00412FD0 CC CC CC CC CC CC CC CC CC CC CC CC CC CC CC CC ................
00412FE0 CC CC CC CC CC CC CC CC CC CC CC CC CC CC CC CC ................
00412FF0 CC CC CC CC CC CC CC CC CC CC CC CC CC CC CC CC ................
00413000 CC CC CC CC CC CC CC CC CC CC CC CC CC CC CC CC ................
00413010 CC CC CC CC CC CC CC CC CC CC CC CC CC CC CC CC ................
00413020 CC CC CC CC CC CC CC CC CC CC CC CC CC CC CC CC ................
00413030 CC CC CC CC CC CC CC CC CC CC CC CC CC CC CC CC ................
00413040 CC CC CC CC CC CC CC CC CC CC CC CC CC CC CC CC ................
00413050 CC CC CC CC CC CC CC CC CC CC CC CC CC CC CC CC ................
00413060 CC CC CC CC CC CC CC CC CC CC CC CC CC CC CC CC ................
00413070 CC CC CC CC CC CC CC CC CC CC CC CC CC CC CC CC ................
00413080 CC CC CC CC CC CC CC CC CC CC CC CC CC CC CC CC ................
00413090 CC CC CC CC CC CC CC CC CC CC CC CC CC CC CC CC ................
004130A0 CC CC CC CC CC CC CC CC CC CC CC CC CC CC CC CC ................
004130B0 CC CC CC CC CC CC CC CC CC CC CC CC CC CC CC CC ................
004130C0 CC CC CC CC CC CC CC CC CC CC CC CC CC CC CC CC ................
004130D0 CC CC CC CC CC CC CC CC CC CC CC CC CC CC CC CC ................
004130E0 CC CC CC CC CC CC CC CC CC CC CC CC CC CC CC CC ................
004130F0 CC CC CC CC CC CC CC CC CC CC CC CC CC CC CC CC ................
00413100 CC CC CC CC CC CC CC CC CC CC CC CC CC CC CC CC ................
00413110 CC CC CC CC CC CC CC CC CC CC CC CC CC CC CC CC ................
00413120 CC CC CC CC CC CC CC CC CC CC CC CC CC CC CC CC ................
00413130 CC CC CC CC CC CC CC CC CC CC CC CC CC CC CC CC ................
00413140 CC CC CC CC CC CC CC CC CC CC CC CC CC CC CC CC ................
00413150 CC CC CC CC CC CC CC CC CC CC CC CC CC CC CC CC ................
00413160 CC CC CC CC CC CC CC CC CC CC CC CC CC CC CC CC ................
00413170 CC CC CC CC CC CC CC CC CC CC CC CC CC CC CC CC ................
00413180 CC CC CC CC CC CC CC CC CC CC CC CC CC CC CC CC ................
00413190 CC CC CC CC CC CC CC CC CC CC CC CC CC CC CC CC ................
004131A0 CC CC CC CC CC CC CC CC CC CC CC CC CC CC CC CC ................
004131B0 CC CC CC CC CC CC CC CC CC CC CC CC CC CC CC CC ................
004131C0 CC CC CC CC CC CC CC CC CC CC CC CC CC CC CC CC ................
004131D0 CC CC CC CC CC CC CC CC CC CC CC CC CC CC CC CC ................
004131E0 CC CC CC CC CC CC CC CC CC CC CC CC CC CC CC CC ................
004131F0 CC CC CC CC CC CC CC CC CC CC CC CC CC CC CC CC ................
00413200 CC CC CC CC CC CC CC CC CC CC CC CC CC CC CC CC ................
00413210 CC CC CC CC CC CC CC CC CC CC CC CC CC CC CC CC ................
00413220 CC CC CC CC CC CC CC CC CC CC CC CC CC CC CC CC ................
00413230 CC CC CC CC CC CC CC CC CC CC CC CC CC CC CC CC ................
00413240 CC CC CC CC CC CC CC CC CC CC CC CC CC CC CC CC ................
00413250 CC CC CC CC CC CC CC CC CC CC CC CC CC CC CC CC ................
00413260 CC CC CC CC CC CC CC CC CC CC CC CC CC CC CC CC ................
00413270 CC CC CC CC CC CC CC CC CC CC CC CC CC CC CC CC ................
00413280 CC CC CC CC CC CC CC CC CC CC CC CC CC CC CC CC ................
00413290 CC CC CC CC CC CC CC CC CC CC CC CC CC CC CC CC ................
004132A0 CC CC CC CC CC CC CC CC CC CC CC CC CC CC CC CC ................
004132B0 CC CC CC CC CC CC CC CC CC CC CC CC CC CC CC CC ................
004132C0 CC CC CC CC CC CC CC CC CC CC CC CC CC CC CC CC ................
004132D0 CC CC CC CC CC CC CC CC CC CC CC CC CC CC CC CC ................
004132E0 CC CC CC CC CC CC CC CC CC CC CC CC CC CC CC CC ................
004132F0 CC CC CC CC CC CC CC CC CC CC CC CC CC CC CC CC ................
00413300 CC CC CC CC CC CC CC CC CC CC CC CC CC CC CC CC ................
00413310 CC CC CC CC CC CC CC CC CC CC CC CC CC CC CC CC ................
00413320 CC CC CC CC CC CC CC CC CC CC CC CC CC CC CC CC ................
00413330 CC CC CC CC CC CC CC CC CC CC CC CC CC CC CC CC ................
00413340 CC CC CC CC CC CC CC CC CC CC CC CC CC CC CC CC ................
00413350 CC CC CC CC CC CC CC CC CC CC CC CC CC CC CC CC ................
00413360 CC CC CC CC CC CC CC CC CC CC CC CC CC CC CC CC ................
00413370 CC CC CC CC CC CC CC CC CC CC CC CC CC CC CC CC ................
00413380 CC CC CC CC CC CC CC CC CC CC CC CC CC CC CC CC ................
00413390 CC CC CC CC CC CC CC CC CC CC CC CC CC CC CC CC ................
004133A0 CC CC CC CC CC CC CC CC CC CC CC CC CC CC CC CC ................
004133B0 CC CC CC CC CC CC CC CC CC CC CC CC CC CC CC CC ................
004133C0 CC CC CC CC CC CC CC CC CC CC CC CC CC CC CC CC ................

l004133D0:
	push	ebp
	mov	ebp,esp
	sub	esp,000000CC
	push	ebx
	push	esi
	push	edi
	push	ecx
	lea	edi,[ebp-000000CC]
	mov	ecx,00000033
	mov	eax,CCCCCCCC

l004133ED:
	rep stosd

l004133EF:
	pop	ecx
	mov	[ebp-08],ecx
	mov	ecx,0042C018
	call	00411460
	mov	ecx,[ebp-08]
	call	00411334
	mov	ecx,[ebp-08]
	call	00411258
	mov	eax,[ebp-08]
	pop	edi
	pop	esi
	pop	ebx
	add	esp,000000CC
	cmp	ebp,esp
	call	00411488
	mov	esp,ebp
	pop	ebp
	ret	0004
00413426                   CC CC CC CC CC CC CC CC CC CC       ..........
00413430 CC CC CC CC CC CC CC CC CC CC CC CC CC CC CC CC ................

l00413440:
	push	ebp
	mov	ebp,esp
	push	FF
	push	004211D0
	mov	eax,fs:[00000000]
	push	eax
	sub	esp,000000CC
	push	ebx
	push	esi
	push	edi
	push	ecx
	lea	edi,[ebp-000000D8]
	mov	ecx,00000033
	mov	eax,CCCCCCCC

l0041346B:
	rep stosd

l0041346D:
	pop	ecx
	mov	eax,[00429014]
	xor	eax,ebp
	push	eax
	lea	eax,[ebp-0C]
	mov	fs:[00000000],eax
	mov	[ebp-14],ecx
	mov	ecx,0042C01A
	call	00411460
	mov	eax,[ebp-14]
	mov	ecx,[ebp-0C]
	mov	fs:[00000000],ecx
	pop	ecx
	pop	edi
	pop	esi
	pop	ebx
	add	esp,000000D8
	cmp	ebp,esp
	call	00411488
	mov	esp,ebp
	pop	ebp
	ret	0004
004134B0 CC CC CC CC CC CC CC CC CC CC CC CC CC CC CC CC ................
004134C0 CC CC CC CC CC CC CC CC CC CC CC CC CC CC CC CC ................

l004134D0:
	push	ebp
	mov	ebp,esp
	sub	esp,000000CC
	push	ebx
	push	esi
	push	edi
	push	ecx
	lea	edi,[ebp-000000CC]
	mov	ecx,00000033
	mov	eax,CCCCCCCC

l004134ED:
	rep stosd

l004134EF:
	pop	ecx
	mov	[ebp-08],ecx
	mov	ecx,0042C018
	call	00411460
	mov	eax,[ebp+0C]
	push	eax
	call	0041159B
	add	esp,04
	mov	ecx,[ebp-08]
	call	00411258
	mov	eax,[ebp-08]
	pop	edi
	pop	esi
	pop	ebx
	add	esp,000000CC
	cmp	ebp,esp
	call	00411488
	mov	esp,ebp
	pop	ebp
	ret	0008
0041352A                               CC CC CC CC CC CC           ......
00413530 CC CC CC CC CC CC CC CC CC CC CC CC CC CC CC CC ................

l00413540:
	push	ebp
	mov	ebp,esp
	push	FF
	push	00421208
	mov	eax,fs:[00000000]
	push	eax
	sub	esp,000000D8
	push	ebx
	push	esi
	push	edi
	push	ecx
	lea	edi,[ebp-000000E4]
	mov	ecx,00000036
	mov	eax,CCCCCCCC

l0041356B:
	rep stosd

l0041356D:
	pop	ecx
	mov	eax,[00429014]
	xor	eax,ebp
	push	eax
	lea	eax,[ebp-0C]
	mov	fs:[00000000],eax
	mov	[ebp-14],ecx
	mov	ecx,0042C02B
	call	00411460
	mov	eax,[ebp+08]
	push	eax
	call	0041159B
	add	esp,04
	push	eax
	movzx	ecx,byte ptr [ebp-000000DD]
	push	ecx
	mov	ecx,[ebp-14]
	call	00411046
	mov	dword ptr [ebp-04],00000000
	mov	ecx,[ebp-14]
	call	004113D4
	mov	dword ptr [ebp-04],FFFFFFFF
	mov	eax,[ebp-14]
	mov	ecx,[ebp-0C]
	mov	fs:[00000000],ecx
	pop	ecx
	pop	edi
	pop	esi
	pop	ebx
	add	esp,000000E4
	cmp	ebp,esp
	call	00411488
	mov	esp,ebp
	pop	ebp
	ret	0004
004135E3          CC CC CC CC CC CC CC CC CC CC CC CC CC    .............
004135F0 CC CC CC CC CC CC CC CC CC CC CC CC CC CC CC CC ................
00413600 CC CC CC CC CC CC CC CC CC CC CC CC CC CC CC CC ................

l00413610:
	push	ebp
	mov	ebp,esp
	sub	esp,000000C0
	push	ebx
	push	esi
	push	edi
	lea	edi,[ebp-000000C0]
	mov	ecx,00000030
	mov	eax,CCCCCCCC

l0041362C:
	rep stosd

l0041362E:
	mov	ecx,0042C027
	call	00411460
	mov	ecx,[ebp+0C]
	call	004116BD
	push	eax
	mov	ecx,[ebp+0C]
	call	004111E5
	push	eax
	mov	eax,[ebp+08]
	push	eax
	call	00411177
	add	esp,0C
	pop	edi
	pop	esi
	pop	ebx
	add	esp,000000C0
	cmp	ebp,esp
	call	00411488
	mov	esp,ebp
	pop	ebp
	ret
0041366A                               CC CC CC CC CC CC           ......
00413670 CC CC CC CC CC CC CC CC CC CC CC CC CC CC CC CC ................

l00413680:
	push	ebp
	mov	ebp,esp
	push	FF
	push	00421238
	mov	eax,fs:[00000000]
	push	eax
	push	ecx
	sub	esp,00000154
	push	ebx
	push	esi
	push	edi
	lea	edi,[ebp-00000164]
	mov	ecx,00000055
	mov	eax,CCCCCCCC

l004136AB:
	rep stosd

l004136AD:
	mov	eax,[00429014]
	xor	eax,ebp
	mov	[ebp-14],eax
	push	eax
	lea	eax,[ebp-0C]
	mov	fs:[00000000],eax
	mov	[ebp-10],esp
	mov	ecx,0042C02D
	call	00411460
	mov	dword ptr [ebp-1C],00000000
	mov	eax,[ebp+08]
	push	eax
	lea	ecx,[ebp-2C]
	call	004116EF
	mov	dword ptr [ebp-04],00000000
	lea	ecx,[ebp-2C]
	call	0041103C
	movzx	eax,al
	test	eax,eax
	jz	00413A35

l004136FB:
	mov	eax,[ebp+08]
	mov	ecx,[eax]
	mov	edx,[ebp+08]
	add	edx,[ecx+04]
	mov	esi,esp
	mov	ecx,edx
	call	dword ptr [0042A0DC]
	cmp	esi,esp
	call	00411488
	mov	[ebp-0000015C],eax
	mov	[ebp-00000158],edx
	cmp	dword ptr [ebp-00000158],00
	jg	00413744

l0041372C:
	jl	00413737

l0041372E:
	cmp	dword ptr [ebp-0000015C],01
	ja	00413744

l00413737:
	xorps	xmm0,xmm0
	vmovlpd	qword ptr [ebp-00000164],xmm0
	jmp	00413772

l00413744:
	mov	eax,[ebp+08]
	mov	ecx,[eax]
	mov	edx,[ebp+08]
	add	edx,[ecx+04]
	mov	esi,esp
	mov	ecx,edx
	call	dword ptr [0042A0DC]
	cmp	esi,esp
	call	00411488
	sub	eax,01
	sbb	edx,00
	mov	[ebp-00000164],eax
	mov	[ebp-00000160],edx
	mov	eax,[ebp-00000164]
	mov	[ebp-3C],eax
	mov	ecx,[ebp-00000160]
	mov	[ebp-38],ecx
	mov	byte ptr [ebp-04],01
	mov	eax,[ebp+08]
	mov	ecx,[eax]
	mov	edx,[ebp+08]
	add	edx,[ecx+04]
	mov	esi,esp
	mov	ecx,edx
	call	dword ptr [0042A0E0]
	cmp	esi,esp
	call	00411488
	mov	[ebp-00000158],eax
	mov	eax,[ebp-00000158]
	and	eax,000001C0
	cmp	eax,40
	jz	0041389B

l004137BE:
	jmp	004137D2

l004137C0:
	mov	eax,[ebp-3C]
	sub	eax,01
	mov	ecx,[ebp-38]
	sbb	ecx,00
	mov	[ebp-3C],eax
	mov	[ebp-38],ecx

l004137D2:
	cmp	dword ptr [ebp-1C],00
	jnz	0041389B

l004137DC:
	cmp	dword ptr [ebp-38],00
	jl	0041389B

l004137E6:
	jg	004137F2

l004137E8:
	cmp	dword ptr [ebp-3C],00
	jbe	0041389B

l004137F2:
	mov	eax,[ebp+08]
	mov	ecx,[eax]
	mov	edx,[ebp+08]
	add	edx,[ecx+04]
	mov	esi,esp
	mov	ecx,edx
	call	dword ptr [0042A0B4]
	cmp	esi,esp
	call	00411488
	mov	[ebp-00000155],al
	mov	eax,[ebp+08]
	mov	ecx,[eax]
	mov	edx,[ebp+08]
	add	edx,[ecx+04]
	mov	esi,esp
	mov	ecx,edx
	call	dword ptr [0042A0B8]
	cmp	esi,esp
	call	00411488
	mov	[ebp-0000015C],eax
	mov	esi,esp
	movzx	eax,byte ptr [ebp-00000155]
	push	eax
	mov	ecx,[ebp-0000015C]
	call	dword ptr [0042A0C8]
	cmp	esi,esp
	call	00411488
	mov	[ebp-00000160],eax
	mov	ecx,[ebp-00000160]
	mov	[ebp-00000108],ecx
	call	00411235
	mov	[ebp-00000114],eax
	lea	edx,[ebp-00000108]
	push	edx
	lea	eax,[ebp-00000114]
	push	eax
	call	00411456
	add	esp,08
	movzx	ecx,al
	test	ecx,ecx
	jz	00413896

l0041388D:
	mov	eax,[ebp-1C]
	or	eax,04
	mov	[ebp-1C],eax

l00413896:
	jmp	004137C0

l0041389B:
	cmp	dword ptr [ebp-1C],00
	jnz	00413920

l004138A1:
	mov	eax,[ebp+08]
	mov	ecx,[eax]
	mov	edx,[ebp+08]
	add	edx,[ecx+04]
	mov	esi,esp
	mov	ecx,edx
	call	dword ptr [0042A0B8]
	cmp	esi,esp
	call	00411488
	mov	[ebp-00000158],eax
	mov	esi,esp
	movzx	eax,byte ptr [ebp+0C]
	push	eax
	mov	ecx,[ebp-00000158]
	call	dword ptr [0042A0C8]
	cmp	esi,esp
	call	00411488
	mov	[ebp-0000015C],eax
	mov	ecx,[ebp-0000015C]
	mov	[ebp-00000120],ecx
	call	00411235
	mov	[ebp-0000012C],eax
	lea	edx,[ebp-00000120]
	push	edx
	lea	eax,[ebp-0000012C]
	push	eax
	call	00411456
	add	esp,08
	movzx	ecx,al
	test	ecx,ecx
	jz	00413920

l00413917:
	mov	eax,[ebp-1C]
	or	eax,04
	mov	[ebp-1C],eax

l00413920:
	jmp	00413934

l00413922:
	mov	eax,[ebp-3C]
	sub	eax,01
	mov	ecx,[ebp-38]
	sbb	ecx,00
	mov	[ebp-3C],eax
	mov	[ebp-38],ecx

l00413934:
	cmp	dword ptr [ebp-1C],00
	jnz	004139FD

l0041393E:
	cmp	dword ptr [ebp-38],00
	jl	004139FD

l00413948:
	jg	00413954

l0041394A:
	cmp	dword ptr [ebp-3C],00
	jbe	004139FD

l00413954:
	mov	eax,[ebp+08]
	mov	ecx,[eax]
	mov	edx,[ebp+08]
	add	edx,[ecx+04]
	mov	esi,esp
	mov	ecx,edx
	call	dword ptr [0042A0B4]
	cmp	esi,esp
	call	00411488
	mov	[ebp-00000155],al
	mov	eax,[ebp+08]
	mov	ecx,[eax]
	mov	edx,[ebp+08]
	add	edx,[ecx+04]
	mov	esi,esp
	mov	ecx,edx
	call	dword ptr [0042A0B8]
	cmp	esi,esp
	call	00411488
	mov	[ebp-0000015C],eax
	mov	esi,esp
	movzx	eax,byte ptr [ebp-00000155]
	push	eax
	mov	ecx,[ebp-0000015C]
	call	dword ptr [0042A0C8]
	cmp	esi,esp
	call	00411488
	mov	[ebp-00000160],eax
	mov	ecx,[ebp-00000160]
	mov	[ebp-00000138],ecx
	call	00411235
	mov	[ebp-00000144],eax
	lea	edx,[ebp-00000138]
	push	edx
	lea	eax,[ebp-00000144]
	push	eax
	call	00411456
	add	esp,08
	movzx	ecx,al
	test	ecx,ecx
	jz	004139F8

l004139EF:
	mov	eax,[ebp-1C]
	or	eax,04
	mov	[ebp-1C],eax

l004139F8:
	jmp	00413922

l004139FD:
	jmp	00413A25
004139FF                                              8B                .
00413A00 F4 6A 01 6A 04 8B 45 08 8B 08 8B 55 08 03 51 04 .j.j..E....U..Q.
00413A10 8B CA FF 15 C0 A0 42 00 3B F4 E8 69 DA FF FF B8 ......B.;..i....
00413A20 2E 3A 41 00 C3                                  .:A..          

l00413A25:
	mov	dword ptr [ebp-04],00000000
	jmp	00413A35
00413A2E                                           C7 45               .E
00413A30 FC 00 00 00 00                                  .....          

l00413A35:
	mov	esi,esp
	push	00
	push	00
	mov	eax,[ebp+08]
	mov	ecx,[eax]
	mov	edx,[ebp+08]
	add	edx,[ecx+04]
	mov	ecx,edx
	call	dword ptr [0042A0D8]
	cmp	esi,esp
	call	00411488
	mov	esi,esp
	push	00
	mov	eax,[ebp-1C]
	push	eax
	mov	ecx,[ebp+08]
	mov	edx,[ecx]
	mov	ecx,[ebp+08]
	add	ecx,[edx+04]
	call	dword ptr [0042A0C0]
	cmp	esi,esp
	call	00411488
	mov	eax,[ebp+08]
	mov	[ebp-00000150],eax
	mov	dword ptr [ebp-04],FFFFFFFF
	lea	ecx,[ebp-2C]
	call	00411203
	mov	eax,[ebp-00000150]
	push	edx
	mov	ecx,ebp
	push	eax
	lea	edx,[00413AD0]
	call	004114D3
	pop	eax
	pop	edx
	mov	ecx,[ebp-0C]
	mov	fs:[00000000],ecx
	pop	ecx
	pop	edi
	pop	esi
	pop	ebx
	mov	ecx,[ebp-14]
	xor	ecx,ebp
	call	004113E3
	add	esp,00000164
	cmp	ebp,esp
	call	00411488
	mov	esp,ebp
	pop	ebp
	ret
00413ACD                                        0F 1F 00              ...
00413AD0 01 00 00 00 D8 3A 41 00 D4 FF FF FF 08 00 00 00 .....:A.........
00413AE0 E4 3A 41 00 5F 4F 6B 00 CC CC CC CC CC CC CC CC .:A._Ok.........

l00413AF0:
	push	ebp
	mov	ebp,esp
	sub	esp,000000F0
	push	ebx
	push	esi
	push	edi
	push	ecx
	lea	edi,[ebp-000000F0]
	mov	ecx,0000003C
	mov	eax,CCCCCCCC

l00413B0D:
	rep stosd

l00413B0F:
	pop	ecx
	mov	[ebp-08],ecx
	mov	ecx,0042C02B
	call	00411460
	mov	ecx,[ebp-08]
	call	00411640
	mov	[ebp-14],eax
	mov	eax,[ebp-14]
	mov	dword ptr [eax+14],00000001
	mov	ecx,[ebp-14]
	call	0041123A
	mov	[ebp-20],eax
	lea	eax,[ebp+08]
	push	eax
	mov	ecx,00000001
	imul	edx,ecx,00
	add	edx,[ebp-20]
	push	edx
	call	0041154B
	add	esp,08
	mov	byte ptr [ebp-000000E9],00
	lea	eax,[ebp-000000E9]
	push	eax
	mov	ecx,00000001
	shl	ecx,00
	add	ecx,[ebp-20]
	push	ecx
	call	0041154B
	add	esp,08
	mov	eax,[ebp-08]
	pop	edi
	pop	esi
	pop	ebx
	add	esp,000000F0
	cmp	ebp,esp
	call	00411488
	mov	esp,ebp
	pop	ebp
	ret	0004

;; fn00413B90: 00413B90
;;   Called from:
;;     004111E5 (in fn004111E5)
fn00413B90 proc
	push	ebp
	mov	ebp,esp
	push	FF
	push	00421CF0
	mov	eax,fs:[00000000]
	push	eax
	sub	esp,000000CC
	push	ebx
	push	esi
	push	edi
	push	ecx
	lea	edi,[ebp-000000D8]
	mov	ecx,00000033
	mov	eax,CCCCCCCC

l00413BBB:
	rep stosd

l00413BBD:
	pop	ecx
	mov	eax,[00429014]
	xor	eax,ebp
	push	eax
	lea	eax,[ebp-0C]
	mov	fs:[00000000],eax
	mov	[ebp-14],ecx
	mov	ecx,0042C02B
	call	00411460
	mov	ecx,[ebp-14]
	call	0041128F
	mov	ecx,eax
	call	0041108C
	mov	ecx,[ebp-0C]
	mov	fs:[00000000],ecx
	pop	ecx
	pop	edi
	pop	esi
	pop	ebx
	add	esp,000000D8
	cmp	ebp,esp
	call	00411488
	mov	esp,ebp
	pop	ebp
	ret
00413C0A                               CC CC CC CC CC CC           ......

l00413C10:
	push	ebp
	mov	ebp,esp
	push	FF
	push	00421278
	mov	eax,fs:[00000000]
	push	eax
	push	ecx
	sub	esp,00000154
	push	ebx
	push	esi
	push	edi
	lea	edi,[ebp-00000164]
	mov	ecx,00000055
	mov	eax,CCCCCCCC

l00413C3B:
	rep stosd

l00413C3D:
	mov	eax,[00429014]
	xor	eax,ebp
	mov	[ebp-14],eax
	push	eax
	lea	eax,[ebp-0C]
	mov	fs:[00000000],eax
	mov	[ebp-10],esp
	mov	ecx,0042C02D
	call	00411460
	mov	dword ptr [ebp-1C],00000000
	mov	eax,[ebp+0C]
	push	eax
	call	00411136
	add	esp,04
	xor	ecx,ecx
	mov	[ebp-2C],eax
	mov	[ebp-28],ecx
	mov	eax,[ebp+08]
	mov	ecx,[eax]
	mov	edx,[ebp+08]
	add	edx,[ecx+04]
	mov	esi,esp
	mov	ecx,edx
	call	dword ptr [0042A0DC]
	cmp	esi,esp
	call	00411488
	mov	[ebp-00000154],eax
	mov	[ebp-00000150],edx
	cmp	dword ptr [ebp-00000150],00
	jl	00413D23

l00413CAA:
	jg	00413CB5

l00413CAC:
	cmp	dword ptr [ebp-00000154],00
	jbe	00413D23

l00413CB5:
	mov	eax,[ebp+08]
	mov	ecx,[eax]
	mov	edx,[ebp+08]
	add	edx,[ecx+04]
	mov	esi,esp
	mov	ecx,edx
	call	dword ptr [0042A0DC]
	cmp	esi,esp
	call	00411488
	mov	[ebp-0000015C],eax
	mov	[ebp-00000158],edx
	mov	eax,[ebp-00000158]
	cmp	eax,[ebp-28]
	jl	00413D23

l00413CE8:
	jg	00413CF5

l00413CEA:
	mov	ecx,[ebp-0000015C]
	cmp	ecx,[ebp-2C]
	jbe	00413D23

l00413CF5:
	mov	edx,[ebp+08]
	mov	eax,[edx]
	mov	ecx,[ebp+08]
	add	ecx,[eax+04]
	mov	esi,esp
	call	dword ptr [0042A0DC]
	cmp	esi,esp
	call	00411488
	sub	eax,[ebp-2C]
	sbb	edx,[ebp-28]
	mov	[ebp-00000164],eax
	mov	[ebp-00000160],edx
	jmp	00413D2E

l00413D23:
	xorps	xmm0,xmm0
	vmovlpd	qword ptr [ebp-00000164],xmm0

l00413D2E:
	mov	ecx,[ebp-00000164]
	mov	[ebp-3C],ecx
	mov	edx,[ebp-00000160]
	mov	[ebp-38],edx
	mov	eax,[ebp+08]
	push	eax
	lea	ecx,[ebp-4C]
	call	004116EF
	mov	dword ptr [ebp-04],00000000
	lea	ecx,[ebp-4C]
	call	0041103C
	movzx	eax,al
	test	eax,eax
	jnz	00413D70

l00413D62:
	mov	eax,[ebp-1C]
	or	eax,04
	mov	[ebp-1C],eax
	jmp	0041402A

l00413D70:
	mov	byte ptr [ebp-04],01
	mov	eax,[ebp+08]
	mov	ecx,[eax]
	mov	edx,[ebp+08]
	add	edx,[ecx+04]
	mov	esi,esp
	mov	ecx,edx
	call	dword ptr [0042A0E0]
	cmp	esi,esp
	call	00411488
	mov	[ebp-00000150],eax
	mov	eax,[ebp-00000150]
	and	eax,000001C0
	cmp	eax,40
	jz	00413E7F

l00413DAA:
	jmp	00413DBE

l00413DAC:
	mov	eax,[ebp-3C]
	sub	eax,01
	mov	ecx,[ebp-38]
	sbb	ecx,00
	mov	[ebp-3C],eax
	mov	[ebp-38],ecx

l00413DBE:
	cmp	dword ptr [ebp-38],00
	jl	00413E7F

l00413DC8:
	jg	00413DD4

l00413DCA:
	cmp	dword ptr [ebp-3C],00
	jbe	00413E7F

l00413DD4:
	mov	eax,[ebp+08]
	mov	ecx,[eax]
	mov	edx,[ebp+08]
	add	edx,[ecx+04]
	mov	esi,esp
	mov	ecx,edx
	call	dword ptr [0042A0B4]
	cmp	esi,esp
	call	00411488
	mov	[ebp-0000014D],al
	mov	eax,[ebp+08]
	mov	ecx,[eax]
	mov	edx,[ebp+08]
	add	edx,[ecx+04]
	mov	esi,esp
	mov	ecx,edx
	call	dword ptr [0042A0B8]
	cmp	esi,esp
	call	00411488
	mov	[ebp-00000154],eax
	mov	esi,esp
	movzx	eax,byte ptr [ebp-0000014D]
	push	eax
	mov	ecx,[ebp-00000154]
	call	dword ptr [0042A0C8]
	cmp	esi,esp
	call	00411488
	mov	[ebp-00000158],eax
	mov	ecx,[ebp-00000158]
	mov	[ebp-00000118],ecx
	call	00411235
	mov	[ebp-00000124],eax
	lea	edx,[ebp-00000118]
	push	edx
	lea	eax,[ebp-00000124]
	push	eax
	call	00411456
	add	esp,08
	movzx	ecx,al
	test	ecx,ecx
	jz	00413E7A

l00413E6F:
	mov	eax,[ebp-1C]
	or	eax,04
	mov	[ebp-1C],eax
	jmp	00413E7F

l00413E7A:
	jmp	00413DAC

l00413E7F:
	cmp	dword ptr [ebp-1C],00
	jnz	00413EF3

l00413E85:
	mov	eax,[ebp+08]
	mov	ecx,[eax]
	mov	edx,[ebp+08]
	add	edx,[ecx+04]
	mov	esi,esp
	mov	ecx,edx
	call	dword ptr [0042A0B8]
	cmp	esi,esp
	call	00411488
	mov	[ebp-00000150],eax
	mov	esi,esp
	mov	eax,[ebp-28]
	push	eax
	mov	ecx,[ebp-2C]
	push	ecx
	mov	edx,[ebp+0C]
	push	edx
	mov	ecx,[ebp-00000150]
	call	dword ptr [0042A0C4]
	cmp	esi,esp
	call	00411488
	mov	[ebp-00000158],eax
	mov	[ebp-00000154],edx
	mov	eax,[ebp-00000158]
	cmp	eax,[ebp-2C]
	jnz	00413EEA

l00413EDF:
	mov	ecx,[ebp-00000154]
	cmp	ecx,[ebp-28]
	jz	00413EF3

l00413EEA:
	mov	eax,[ebp-1C]
	or	eax,04
	mov	[ebp-1C],eax

l00413EF3:
	cmp	dword ptr [ebp-1C],00
	jnz	00413FD2

l00413EFD:
	jmp	00413F11

l00413EFF:
	mov	eax,[ebp-3C]
	sub	eax,01
	mov	ecx,[ebp-38]
	sbb	ecx,00
	mov	[ebp-3C],eax
	mov	[ebp-38],ecx

l00413F11:
	cmp	dword ptr [ebp-38],00
	jl	00413FD2

l00413F1B:
	jg	00413F27

l00413F1D:
	cmp	dword ptr [ebp-3C],00
	jbe	00413FD2

l00413F27:
	mov	eax,[ebp+08]
	mov	ecx,[eax]
	mov	edx,[ebp+08]
	add	edx,[ecx+04]
	mov	esi,esp
	mov	ecx,edx
	call	dword ptr [0042A0B4]
	cmp	esi,esp
	call	00411488
	mov	[ebp-0000014D],al
	mov	eax,[ebp+08]
	mov	ecx,[eax]
	mov	edx,[ebp+08]
	add	edx,[ecx+04]
	mov	esi,esp
	mov	ecx,edx
	call	dword ptr [0042A0B8]
	cmp	esi,esp
	call	00411488
	mov	[ebp-00000154],eax
	mov	esi,esp
	movzx	eax,byte ptr [ebp-0000014D]
	push	eax
	mov	ecx,[ebp-00000154]
	call	dword ptr [0042A0C8]
	cmp	esi,esp
	call	00411488
	mov	[ebp-00000158],eax
	mov	ecx,[ebp-00000158]
	mov	[ebp-00000130],ecx
	call	00411235
	mov	[ebp-0000013C],eax
	lea	edx,[ebp-00000130]
	push	edx
	lea	eax,[ebp-0000013C]
	push	eax
	call	00411456
	add	esp,08
	movzx	ecx,al
	test	ecx,ecx
	jz	00413FCD

l00413FC2:
	mov	eax,[ebp-1C]
	or	eax,04
	mov	[ebp-1C],eax
	jmp	00413FD2

l00413FCD:
	jmp	00413EFF

l00413FD2:
	mov	esi,esp
	push	00
	push	00
	mov	eax,[ebp+08]
	mov	ecx,[eax]
	mov	edx,[ebp+08]
	add	edx,[ecx+04]
	mov	ecx,edx
	call	dword ptr [0042A0D8]
	cmp	esi,esp
	call	00411488
	jmp	0041401A
00413FF4             8B F4 6A 01 6A 04 8B 45 08 8B 08 8B     ..j.j..E....
00414000 55 08 03 51 04 8B CA FF 15 C0 A0 42 00 3B F4 E8 U..Q.......B.;..
00414010 74 D4 FF FF B8 23 40 41 00 C3                   t....#@A..     

l0041401A:
	mov	dword ptr [ebp-04],00000000
	jmp	0041402A
00414023          C7 45 FC 00 00 00 00                      .E.....     

l0041402A:
	mov	esi,esp
	push	00
	mov	eax,[ebp-1C]
	push	eax
	mov	ecx,[ebp+08]
	mov	edx,[ecx]
	mov	ecx,[ebp+08]
	add	ecx,[edx+04]
	call	dword ptr [0042A0C0]
	cmp	esi,esp
	call	00411488
	mov	eax,[ebp+08]
	mov	[ebp-00000148],eax
	mov	dword ptr [ebp-04],FFFFFFFF
	lea	ecx,[ebp-4C]
	call	00411203
	mov	eax,[ebp-00000148]
	push	edx
	mov	ecx,ebp
	push	eax
	lea	edx,[004140A4]
	call	004114D3
	pop	eax
	pop	edx
	mov	ecx,[ebp-0C]
	mov	fs:[00000000],ecx
	pop	ecx
	pop	edi
	pop	esi
	pop	ebx
	mov	ecx,[ebp-14]
	xor	ecx,ebp
	call	004113E3
	add	esp,00000164
	cmp	ebp,esp
	call	00411488
	mov	esp,ebp
	pop	ebp
	ret
004140A2       66 90 01 00 00 00 AC 40 41 00 B4 FF FF FF   f......@A.....
004140B0 08 00 00 00 B8 40 41 00 5F 4F 6B 00 CC CC CC CC .....@A._Ok.....

l004140C0:
	push	ebp
	mov	ebp,esp
	sub	esp,000000D8
	push	ebx
	push	esi
	push	edi
	push	ecx
	lea	edi,[ebp-000000D8]
	mov	ecx,00000036
	mov	eax,CCCCCCCC

l004140DD:
	rep stosd

l004140DF:
	pop	ecx
	mov	[ebp-08],ecx
	mov	ecx,0042C02B
	call	00411460
	mov	ecx,[ebp-08]
	call	00411640
	mov	[ebp-14],eax

l004140F8:
	mov	eax,[ebp-14]
	mov	ecx,[ebp+08]
	cmp	ecx,[eax+14]
	ja	00414105

l00414103:
	jmp	00414161

l00414105:
	mov	esi,esp
	push	004261CC
	push	00425C54
	push	00
	push	00000C84
	push	004261F0
	push	02
	call	dword ptr [0042A208]
	add	esp,18
	cmp	esi,esp
	call	00411488
	cmp	eax,01
	jnz	00414135

l00414134:
	int	03

l00414135:
	mov	esi,esp
	push	00
	push	00000C84
	push	00426270
	push	00426370
	push	00426458
	call	dword ptr [0042A20C]
	add	esp,14
	cmp	esi,esp
	call	00411488
	xor	eax,eax
	jnz	00414105

l00414161:
	xor	eax,eax
	jnz	004140F8

l00414165:
	mov	ecx,[ebp-14]
	call	0041123A
	add	eax,[ebp+08]
	pop	edi
	pop	esi
	pop	ebx
	add	esp,000000D8
	cmp	ebp,esp
	call	00411488
	mov	esp,ebp
	pop	ebp
	ret	0004
00414186                   CC CC CC CC CC CC CC CC CC CC       ..........

l00414190:
	push	ebp
	mov	ebp,esp
	sub	esp,000000C0
	push	ebx
	push	esi
	push	edi
	lea	edi,[ebp-000000C0]
	mov	ecx,00000030
	mov	eax,CCCCCCCC

l004141AC:
	rep stosd

l004141AE:
	mov	ecx,0042C02A
	call	00411460
	call	0041A790
	xor	eax,eax
	pop	edi
	pop	esi
	pop	ebx
	add	esp,000000C0
	cmp	ebp,esp
	call	00411488
	mov	esp,ebp
	pop	ebp
	ret
004141D3          CC CC CC CC CC CC CC CC CC CC CC CC CC    .............
004141E0 CC CC CC CC CC CC CC CC CC CC CC CC CC CC CC CC ................

;; fn004141F0: 004141F0
;;   Called from:
;;     004110F5 (in fn004110F5)
fn004141F0 proc
	push	ebp
	mov	ebp,esp
	sub	esp,000000C0
	push	ebx
	push	esi
	push	edi
	lea	edi,[ebp-000000C0]
	mov	ecx,00000030
	mov	eax,CCCCCCCC

l0041420C:
	rep stosd

l0041420E:
	mov	ecx,0042C02B
	call	00411460
	mov	eax,[ebp+0C]
	push	eax
	mov	ecx,[ebp+08]
	call	0041175D
	pop	edi
	pop	esi
	pop	ebx
	add	esp,000000C0
	cmp	ebp,esp
	call	00411488
	mov	esp,ebp
	pop	ebp
	ret
00414238                         CC CC CC CC CC CC CC CC         ........
00414240 CC CC CC CC CC CC CC CC CC CC CC CC CC CC CC CC ................

l00414250:
	push	ebp
	mov	ebp,esp
	push	FF
	push	004212B0
	mov	eax,fs:[00000000]
	push	eax
	sub	esp,000000C0
	push	ebx
	push	esi
	push	edi
	lea	edi,[ebp-000000CC]
	mov	ecx,00000030
	mov	eax,CCCCCCCC

l0041427A:
	rep stosd

l0041427C:
	mov	eax,[00429014]
	xor	eax,ebp
	push	eax
	lea	eax,[ebp-0C]
	mov	fs:[00000000],eax
	mov	ecx,0042C01A
	call	00411460
	xor	al,al
	mov	ecx,[ebp-0C]
	mov	fs:[00000000],ecx
	pop	ecx
	pop	edi
	pop	esi
	pop	ebx
	add	esp,000000CC
	cmp	ebp,esp
	call	00411488
	mov	esp,ebp
	pop	ebp
	ret
004142B8                         CC CC CC CC CC CC CC CC         ........
004142C0 CC CC CC CC CC CC CC CC CC CC CC CC CC CC CC CC ................
004142D0 CC CC CC CC CC CC CC CC CC CC CC CC CC CC CC CC ................

l004142E0:
	push	ebp
	mov	ebp,esp
	push	FF
	push	004212E8
	mov	eax,fs:[00000000]
	push	eax
	sub	esp,000000F4
	push	ebx
	push	esi
	push	edi
	lea	edi,[ebp-00000100]
	mov	ecx,0000003D
	mov	eax,CCCCCCCC

l0041430A:
	rep stosd

l0041430C:
	mov	eax,[00429014]
	xor	eax,ebp
	mov	[ebp-10],eax
	push	eax
	lea	eax,[ebp-0C]
	mov	fs:[00000000],eax
	mov	dword ptr [ebp-000000FC],00000000
	mov	ecx,0042C02B
	call	00411460
	lea	ecx,[ebp-30]
	call	0041111D
	mov	dword ptr [ebp-04],00000000
	mov	ecx,[ebp+0C]
	call	004116BD
	add	eax,01
	push	eax
	lea	ecx,[ebp-30]
	call	0041104B
	mov	eax,[ebp+0C]
	push	eax
	lea	ecx,[ebp-30]
	call	0041146A
	movzx	eax,byte ptr [ebp+10]
	push	eax
	lea	ecx,[ebp-30]
	call	00411433
	lea	eax,[ebp-30]
	push	eax
	mov	ecx,[ebp+08]
	call	0041124E
	mov	ecx,[ebp-000000FC]
	or	ecx,01
	mov	[ebp-000000FC],ecx
	mov	dword ptr [ebp-04],FFFFFFFF
	lea	ecx,[ebp-30]
	call	00411406
	mov	eax,[ebp+08]
	push	edx
	mov	ecx,ebp
	push	eax
	lea	edx,[004143D8]
	call	004114D3
	pop	eax
	pop	edx
	mov	ecx,[ebp-0C]
	mov	fs:[00000000],ecx
	pop	ecx
	pop	edi
	pop	esi
	pop	ebx
	mov	ecx,[ebp-10]
	xor	ecx,ebp
	call	004113E3
	add	esp,00000100
	cmp	ebp,esp
	call	00411488
	mov	esp,ebp
	pop	ebp
	ret
004143D7                      90 01 00 00 00 E0 43 41 00        ......CA.
004143E0 D0 FF FF FF 1C 00 00 00 EC 43 41 00 5F 41 6E 73 .........CA._Ans
004143F0 00 CC CC CC CC CC CC CC CC CC CC CC CC CC CC CC ................
00414400 CC CC CC CC CC CC CC CC CC CC CC CC CC CC CC CC ................
00414410 CC CC CC CC CC CC CC CC CC CC CC CC CC CC CC CC ................
00414420 CC CC CC CC CC CC CC CC CC CC CC CC CC CC CC CC ................
00414430 CC CC CC CC CC CC CC CC CC CC CC CC CC CC CC CC ................

;; fn00414440: 00414440
;;   Called from:
;;     004114EC (in fn004114EC)
fn00414440 proc
	push	ebp
	mov	ebp,esp
	sub	esp,000000C0
	push	ebx
	push	esi
	push	edi
	lea	edi,[ebp-000000C0]
	mov	ecx,00000030
	mov	eax,CCCCCCCC

l0041445C:
	rep stosd

l0041445E:
	mov	ecx,0042C01A
	call	00411460
	cmp	dword ptr [ebp+08],00001000
	jc	0041447F

l00414471:
	mov	eax,[ebp+08]
	push	eax
	call	00411212
	add	esp,04
	jmp	00414495

l0041447F:
	cmp	dword ptr [ebp+08],00
	jz	00414493

l00414485:
	mov	eax,[ebp+08]
	push	eax
	call	00411172
	add	esp,04
	jmp	00414495

l00414493:
	xor	eax,eax

l00414495:
	pop	edi
	pop	esi
	pop	ebx
	add	esp,000000C0
	cmp	ebp,esp
	call	00411488
	mov	esp,ebp
	pop	ebp
	ret
004144A9                            CC CC CC CC CC CC CC          .......
004144B0 CC CC CC CC CC CC CC CC CC CC CC CC CC CC CC CC ................
004144C0 CC CC CC CC CC CC CC CC CC CC CC CC CC CC CC CC ................

;; fn004144D0: 004144D0
;;   Called from:
;;     00411212 (in fn00411212)
fn004144D0 proc
	push	ebp
	mov	ebp,esp
	sub	esp,000000E4
	push	ebx
	push	esi
	push	edi
	lea	edi,[ebp-000000E4]
	mov	ecx,00000039
	mov	eax,CCCCCCCC

l004144EC:
	rep stosd

l004144EE:
	mov	ecx,0042C01A
	call	00411460
	mov	eax,[ebp+08]
	add	eax,27
	mov	[ebp-08],eax
	mov	eax,[ebp-08]
	cmp	eax,[ebp+08]
	ja	00414510

l00414509:
	mov	dword ptr [ebp-08],FFFFFFFF

l00414510:
	mov	eax,[ebp-08]
	push	eax
	call	00411172
	add	esp,04
	mov	[ebp-14],eax

l0041451F:
	cmp	dword ptr [ebp-14],00
	jz	00414527

l00414525:
	jmp	0041457D

l00414527:
	mov	esi,esp
	push	00425C40
	push	00425C54
	push	00
	push	65
	push	00425C88
	push	02
	call	dword ptr [0042A208]
	add	esp,18
	cmp	esi,esp
	call	00411488
	cmp	eax,01
	jnz	00414554

l00414553:
	int	03

l00414554:
	mov	esi,esp
	push	00
	push	65
	push	00425D08
	push	004264D8
	push	00425C58
	call	dword ptr [0042A20C]
	add	esp,14
	cmp	esi,esp
	call	00411488
	xor	eax,eax
	jnz	00414527

l0041457D:
	xor	eax,eax
	jnz	0041451F

l00414581:
	mov	eax,[ebp-14]
	add	eax,27
	and	eax,E0
	mov	[ebp-20],eax
	mov	eax,00000004
	imul	ecx,eax,FF
	mov	edx,[ebp-20]
	mov	eax,[ebp-14]
	mov	[edx+ecx],eax
	mov	eax,00000004
	imul	ecx,eax,FE
	mov	edx,[ebp-20]
	mov	dword ptr [edx+ecx],FAFAFAFA
	mov	eax,[ebp-20]
	pop	edi
	pop	esi
	pop	ebx
	add	esp,000000E4
	cmp	ebp,esp
	call	00411488
	mov	esp,ebp
	pop	ebp
	ret
004145C7                      CC CC CC CC CC CC CC CC CC        .........
004145D0 CC CC CC CC CC CC CC CC CC CC CC CC CC CC CC CC ................
004145E0 CC CC CC CC CC CC CC CC CC CC CC CC CC CC CC CC ................
004145F0 CC CC CC CC CC CC CC CC CC CC CC CC CC CC CC CC ................
00414600 CC CC CC CC CC CC CC CC CC CC CC CC CC CC CC CC ................

l00414610:
	push	ebp
	mov	ebp,esp
	sub	esp,000000C0
	push	ebx
	push	esi
	push	edi
	lea	edi,[ebp-000000C0]
	mov	ecx,00000030
	mov	eax,CCCCCCCC

l0041462C:
	rep stosd

l0041462E:
	mov	ecx,0042C01A
	call	00411460
	mov	eax,[ebp+08]
	pop	edi
	pop	esi
	pop	ebx
	add	esp,000000C0
	cmp	ebp,esp
	call	00411488
	mov	esp,ebp
	pop	ebp
	ret
0041464F                                              CC                .
00414650 CC CC CC CC CC CC CC CC CC CC CC CC CC CC CC CC ................

l00414660:
	push	ebp
	mov	ebp,esp
	sub	esp,000000C0
	push	ebx
	push	esi
	push	edi
	lea	edi,[ebp-000000C0]
	mov	ecx,00000030
	mov	eax,CCCCCCCC

l0041467C:
	rep stosd

l0041467E:
	mov	ecx,0042C01A
	call	00411460
	cmp	dword ptr [ebp+0C],00001000
	jc	004146A1

l00414691:
	lea	eax,[ebp+0C]
	push	eax
	lea	ecx,[ebp+08]
	push	ecx
	call	0041148D
	add	esp,08

l004146A1:
	mov	eax,[ebp+0C]
	push	eax
	mov	ecx,[ebp+08]
	push	ecx
	call	00411447
	add	esp,08
	pop	edi
	pop	esi
	pop	ebx
	add	esp,000000C0
	cmp	ebp,esp
	call	00411488
	mov	esp,ebp
	pop	ebp
	ret
004146C5                CC CC CC CC CC CC CC CC CC CC CC      ...........
004146D0 CC CC CC CC CC CC CC CC CC CC CC CC CC CC CC CC ................

l004146E0:
	push	ebp
	mov	ebp,esp
	sub	esp,000000C0
	push	ebx
	push	esi
	push	edi
	lea	edi,[ebp-000000C0]
	mov	ecx,00000030
	mov	eax,CCCCCCCC

l004146FC:
	rep stosd

l004146FE:
	mov	ecx,0042C01A
	call	00411460
	push	01
	mov	eax,[ebp+0C]
	push	eax
	mov	ecx,[ebp+08]
	push	ecx
	call	004112F3
	add	esp,0C
	pop	edi
	pop	esi
	pop	ebx
	add	esp,000000C0
	cmp	ebp,esp
	call	00411488
	mov	esp,ebp
	pop	ebp
	ret
0041472E                                           CC CC               ..
00414730 CC CC CC CC CC CC CC CC CC CC CC CC CC CC CC CC ................
00414740 CC CC CC CC CC CC CC CC CC CC CC CC CC CC CC CC ................

l00414750:
	push	ebp
	mov	ebp,esp
	sub	esp,000000C0
	push	ebx
	push	esi
	push	edi
	lea	edi,[ebp-000000C0]
	mov	ecx,00000030
	mov	eax,CCCCCCCC

l0041476C:
	rep stosd

l0041476E:
	mov	ecx,0042C01A
	call	00411460
	mov	eax,[ebp+08]
	pop	edi
	pop	esi
	pop	ebx
	add	esp,000000C0
	cmp	ebp,esp
	call	00411488
	mov	esp,ebp
	pop	ebp
	ret
0041478F                                              CC                .
00414790 CC CC CC CC CC CC CC CC CC CC CC CC CC CC CC CC ................

;; fn004147A0: 004147A0
;;   Called from:
;;     00411320 (in fn00411320)
fn004147A0 proc
	push	ebp
	mov	ebp,esp
	sub	esp,000000D8
	push	ebx
	push	esi
	push	edi
	lea	edi,[ebp-000000D8]
	mov	ecx,00000036
	mov	eax,CCCCCCCC

l004147BC:
	rep stosd

l004147BE:
	mov	ecx,0042C01A
	call	00411460
	mov	dword ptr [ebp-08],1FFFFFFF
	mov	eax,[ebp+08]
	shl	eax,03
	mov	[ebp-14],eax
	cmp	dword ptr [ebp+08],1FFFFFFF
	jbe	004147E8

l004147E1:
	mov	dword ptr [ebp-14],FFFFFFFF

l004147E8:
	mov	eax,[ebp-14]
	pop	edi
	pop	esi
	pop	ebx
	add	esp,000000D8
	cmp	ebp,esp
	call	00411488
	mov	esp,ebp
	pop	ebp
	ret
004147FF                                              CC                .
00414800 CC CC CC CC CC CC CC CC CC CC CC CC CC CC CC CC ................
00414810 CC CC CC CC CC CC CC CC CC CC CC CC CC CC CC CC ................

l00414820:
	push	ebp
	mov	ebp,esp
	push	FF
	push	00421328
	mov	eax,fs:[00000000]
	push	eax
	push	ecx
	sub	esp,0000013C
	push	ebx
	push	esi
	push	edi
	lea	edi,[ebp-0000014C]
	mov	ecx,0000004F
	mov	eax,CCCCCCCC

l0041484B:
	rep stosd

l0041484D:
	mov	eax,[00429014]
	xor	eax,ebp
	mov	[ebp-14],eax
	push	eax
	lea	eax,[ebp-0C]
	mov	fs:[00000000],eax
	mov	[ebp-10],esp
	mov	ecx,0042C031
	call	00411460
	mov	dword ptr [ebp-1C],00000000
	mov	eax,[ebp+08]
	mov	ecx,[eax]
	mov	edx,[ebp+08]
	add	edx,[ecx+04]
	mov	esi,esp
	mov	ecx,edx
	call	dword ptr [0042A0DC]
	cmp	esi,esp
	call	00411488
	mov	[ebp-00000140],eax
	mov	[ebp-0000013C],edx
	cmp	dword ptr [ebp-0000013C],00
	jl	004148F9

l004148A6:
	jg	004148B1

l004148A8:
	cmp	dword ptr [ebp-00000140],00
	jbe	004148F9

l004148B1:
	mov	eax,[ebp+08]
	mov	ecx,[eax]
	mov	edx,[ebp+08]
	add	edx,[ecx+04]
	mov	esi,esp
	mov	ecx,edx
	call	dword ptr [0042A0DC]
	cmp	esi,esp
	call	00411488
	cmp	eax,[ebp+10]
	jbe	004148F9

l004148D2:
	mov	eax,[ebp+08]
	mov	ecx,[eax]
	mov	edx,[ebp+08]
	add	edx,[ecx+04]
	mov	esi,esp
	mov	ecx,edx
	call	dword ptr [0042A0DC]
	cmp	esi,esp
	call	00411488
	sub	eax,[ebp+10]
	mov	[ebp-00000144],eax
	jmp	00414903

l004148F9:
	mov	dword ptr [ebp-00000144],00000000

l00414903:
	mov	eax,[ebp-00000144]
	mov	[ebp-28],eax
	mov	eax,[ebp+08]
	push	eax
	lea	ecx,[ebp-38]
	call	004116EF
	mov	dword ptr [ebp-04],00000000
	lea	ecx,[ebp-38]
	call	0041103C
	movzx	eax,al
	test	eax,eax
	jnz	0041493C

l0041492E:
	mov	eax,[ebp-1C]
	or	eax,04
	mov	[ebp-1C],eax
	jmp	00414BE1

l0041493C:
	mov	byte ptr [ebp-04],01
	mov	eax,[ebp+08]
	mov	ecx,[eax]
	mov	edx,[ebp+08]
	add	edx,[ecx+04]
	mov	esi,esp
	mov	ecx,edx
	call	dword ptr [0042A0E0]
	cmp	esi,esp
	call	00411488
	mov	[ebp-0000013C],eax
	mov	eax,[ebp-0000013C]
	and	eax,000001C0
	cmp	eax,40
	jz	00414A36

l00414976:
	jmp	00414981

l00414978:
	mov	eax,[ebp-28]
	sub	eax,01
	mov	[ebp-28],eax

l00414981:
	cmp	dword ptr [ebp-28],00
	jbe	00414A36

l0041498B:
	mov	eax,[ebp+08]
	mov	ecx,[eax]
	mov	edx,[ebp+08]
	add	edx,[ecx+04]
	mov	esi,esp
	mov	ecx,edx
	call	dword ptr [0042A0B4]
	cmp	esi,esp
	call	00411488
	mov	[ebp-00000139],al
	mov	eax,[ebp+08]
	mov	ecx,[eax]
	mov	edx,[ebp+08]
	add	edx,[ecx+04]
	mov	esi,esp
	mov	ecx,edx
	call	dword ptr [0042A0B8]
	cmp	esi,esp
	call	00411488
	mov	[ebp-00000140],eax
	mov	esi,esp
	movzx	eax,byte ptr [ebp-00000139]
	push	eax
	mov	ecx,[ebp-00000140]
	call	dword ptr [0042A0C8]
	cmp	esi,esp
	call	00411488
	mov	[ebp-00000144],eax
	mov	ecx,[ebp-00000144]
	mov	[ebp-00000104],ecx
	call	00411235
	mov	[ebp-00000110],eax
	lea	edx,[ebp-00000104]
	push	edx
	lea	eax,[ebp-00000110]
	push	eax
	call	00411456
	add	esp,08
	movzx	ecx,al
	test	ecx,ecx
	jz	00414A31

l00414A26:
	mov	eax,[ebp-1C]
	or	eax,04
	mov	[ebp-1C],eax
	jmp	00414A36

l00414A31:
	jmp	00414978

l00414A36:
	cmp	dword ptr [ebp-1C],00
	jnz	00414AC9

l00414A40:
	mov	eax,[ebp+08]
	mov	ecx,[eax]
	mov	edx,[ebp+08]
	add	edx,[ecx+04]
	mov	esi,esp
	mov	ecx,edx
	call	dword ptr [0042A0B8]
	cmp	esi,esp
	call	00411488
	mov	[ebp-0000013C],eax
	mov	eax,[ebp+10]
	xor	ecx,ecx
	mov	esi,esp
	push	ecx
	push	eax
	mov	edx,[ebp+0C]
	push	edx
	mov	ecx,[ebp-0000013C]
	call	dword ptr [0042A0C4]
	cmp	esi,esp
	call	00411488
	mov	[ebp-00000144],eax
	mov	[ebp-00000140],edx
	mov	eax,[ebp+10]
	xor	ecx,ecx
	mov	[ebp-0000014C],eax
	mov	[ebp-00000148],ecx
	mov	edx,[ebp-00000144]
	cmp	edx,[ebp-0000014C]
	jnz	00414ABB

l00414AAD:
	mov	eax,[ebp-00000140]
	cmp	eax,[ebp-00000148]
	jz	00414AC9

l00414ABB:
	mov	eax,[ebp-1C]
	or	eax,04
	mov	[ebp-1C],eax
	jmp	00414B89

l00414AC9:
	jmp	00414AD4

l00414ACB:
	mov	eax,[ebp-28]
	sub	eax,01
	mov	[ebp-28],eax

l00414AD4:
	cmp	dword ptr [ebp-28],00
	jbe	00414B89

l00414ADE:
	mov	eax,[ebp+08]
	mov	ecx,[eax]
	mov	edx,[ebp+08]
	add	edx,[ecx+04]
	mov	esi,esp
	mov	ecx,edx
	call	dword ptr [0042A0B4]
	cmp	esi,esp
	call	00411488
	mov	[ebp-00000139],al
	mov	eax,[ebp+08]
	mov	ecx,[eax]
	mov	edx,[ebp+08]
	add	edx,[ecx+04]
	mov	esi,esp
	mov	ecx,edx
	call	dword ptr [0042A0B8]
	cmp	esi,esp
	call	00411488
	mov	[ebp-00000140],eax
	mov	esi,esp
	movzx	eax,byte ptr [ebp-00000139]
	push	eax
	mov	ecx,[ebp-00000140]
	call	dword ptr [0042A0C8]
	cmp	esi,esp
	call	00411488
	mov	[ebp-00000144],eax
	mov	ecx,[ebp-00000144]
	mov	[ebp-0000011C],ecx
	call	00411235
	mov	[ebp-00000128],eax
	lea	edx,[ebp-0000011C]
	push	edx
	lea	eax,[ebp-00000128]
	push	eax
	call	00411456
	add	esp,08
	movzx	ecx,al
	test	ecx,ecx
	jz	00414B84

l00414B79:
	mov	eax,[ebp-1C]
	or	eax,04
	mov	[ebp-1C],eax
	jmp	00414B89

l00414B84:
	jmp	00414ACB

l00414B89:
	mov	esi,esp
	push	00
	push	00
	mov	eax,[ebp+08]
	mov	ecx,[eax]
	mov	edx,[ebp+08]
	add	edx,[ecx+04]
	mov	ecx,edx
	call	dword ptr [0042A0D8]
	cmp	esi,esp
	call	00411488
	jmp	00414BD1
00414BAB                                  8B F4 6A 01 6A            ..j.j
00414BB0 04 8B 45 08 8B 08 8B 55 08 03 51 04 8B CA FF 15 ..E....U..Q.....
00414BC0 C0 A0 42 00 3B F4 E8 BD C8 FF FF B8 DA 4B 41 00 ..B.;........KA.
00414BD0 C3                                              .              

l00414BD1:
	mov	dword ptr [ebp-04],00000000
	jmp	00414BE1
00414BDA                               C7 45 FC 00 00 00           .E....
00414BE0 00                                              .              

l00414BE1:
	mov	esi,esp
	push	00
	mov	eax,[ebp-1C]
	push	eax
	mov	ecx,[ebp+08]
	mov	edx,[ecx]
	mov	ecx,[ebp+08]
	add	ecx,[edx+04]
	call	dword ptr [0042A0C0]
	cmp	esi,esp
	call	00411488
	mov	eax,[ebp+08]
	mov	[ebp-00000134],eax
	mov	dword ptr [ebp-04],FFFFFFFF
	lea	ecx,[ebp-38]
	call	00411203
	mov	eax,[ebp-00000134]
	push	edx
	mov	ecx,ebp
	push	eax
	lea	edx,[00414C5C]
	call	004114D3
	pop	eax
	pop	edx
	mov	ecx,[ebp-0C]
	mov	fs:[00000000],ecx
	pop	ecx
	pop	edi
	pop	esi
	pop	ebx
	mov	ecx,[ebp-14]
	xor	ecx,ebp
	call	004113E3
	add	esp,0000014C
	cmp	ebp,esp
	call	00411488
	mov	esp,ebp
	pop	ebp
	ret
00414C59                            0F 1F 00 01 00 00 00          .......
00414C60 64 4C 41 00 C8 FF FF FF 08 00 00 00 70 4C 41 00 dLA.........pLA.
00414C70 5F 4F 6B 00 CC CC CC CC CC CC CC CC CC CC CC CC _Ok.............

l00414C80:
	push	ebp
	mov	ebp,esp
	sub	esp,000000D8
	push	ebx
	push	esi
	push	edi
	push	ecx
	lea	edi,[ebp-000000D8]
	mov	ecx,00000036
	mov	eax,CCCCCCCC

l00414C9D:
	rep stosd

l00414C9F:
	pop	ecx
	mov	[ebp-08],ecx
	mov	ecx,0042C02B
	call	00411460
	mov	eax,[ebp+10]
	push	eax
	mov	ecx,[ebp+0C]
	push	ecx
	mov	edx,[ebp+08]
	push	edx
	call	00411302
	add	esp,0C
	lea	eax,[ebp+14]
	push	eax
	mov	ecx,[ebp+08]
	add	ecx,[ebp+10]
	push	ecx
	call	0041154B
	add	esp,08
	mov	byte ptr [ebp-000000D1],00
	lea	eax,[ebp-000000D1]
	push	eax
	mov	ecx,[ebp+10]
	mov	edx,[ebp+08]
	lea	eax,[edx+ecx+01]
	push	eax
	call	0041154B
	add	esp,08
	pop	edi
	pop	esi
	pop	ebx
	add	esp,000000D8
	cmp	ebp,esp
	call	00411488
	mov	esp,ebp
	pop	ebp
	ret	0010
00414D0B                                  CC CC CC CC CC            .....

l00414D10:
	push	ebp
	mov	ebp,esp
	push	FF
	push	00421FC0
	mov	eax,fs:[00000000]
	push	eax
	sub	esp,000000C0
	push	ebx
	push	esi
	push	edi
	lea	edi,[ebp-000000CC]
	mov	ecx,00000030
	mov	eax,CCCCCCCC

l00414D3A:
	rep stosd

l00414D3C:
	mov	eax,[00429014]
	xor	eax,ebp
	push	eax
	lea	eax,[ebp-0C]
	mov	fs:[00000000],eax
	mov	ecx,0042C017
	call	00411460
	mov	eax,[ebp+08]
	movzx	eax,byte ptr [eax]
	mov	ecx,[ebp-0C]
	mov	fs:[00000000],ecx
	pop	ecx
	pop	edi
	pop	esi
	pop	ebx
	add	esp,000000CC
	cmp	ebp,esp
	call	00411488
	mov	esp,ebp
	pop	ebp
	ret
00414D7C                                     CC CC CC CC             ....
00414D80 CC CC CC CC CC CC CC CC CC CC CC CC CC CC CC CC ................

l00414D90:
	push	ebp
	mov	ebp,esp
	push	FF
	push	00421360
	mov	eax,fs:[00000000]
	push	eax
	sub	esp,000000D0
	push	ebx
	push	esi
	push	edi
	lea	edi,[ebp-000000DC]
	mov	ecx,00000034
	mov	eax,CCCCCCCC

l00414DBA:
	rep stosd

l00414DBC:
	mov	eax,[00429014]
	xor	eax,ebp
	push	eax
	lea	eax,[ebp-0C]
	mov	fs:[00000000],eax
	mov	ecx,0042C02F
	call	00411460
	mov	eax,[ebp+08]
	mov	ecx,[ebp+0C]
	mov	edx,[eax]
	cmp	edx,[ecx]
	jnc	00414DEE

l00414DE3:
	mov	eax,[ebp+0C]
	mov	[ebp-000000DC],eax
	jmp	00414DF7

l00414DEE:
	mov	ecx,[ebp+08]
	mov	[ebp-000000DC],ecx

l00414DF7:
	mov	edx,[ebp-000000DC]
	mov	[ebp-000000D4],edx
	mov	eax,[ebp-000000D4]
	mov	ecx,[ebp-0C]
	mov	fs:[00000000],ecx
	pop	ecx
	pop	edi
	pop	esi
	pop	ebx
	add	esp,000000DC
	cmp	ebp,esp
	call	00411488
	mov	esp,ebp
	pop	ebp
	ret
00414E28                         CC CC CC CC CC CC CC CC         ........
00414E30 CC CC CC CC CC CC CC CC CC CC CC CC CC CC CC CC ................
00414E40 CC CC CC CC CC CC CC CC CC CC CC CC CC CC CC CC ................

l00414E50:
	push	ebp
	mov	ebp,esp
	push	FF
	push	00421390
	mov	eax,fs:[00000000]
	push	eax
	sub	esp,000000D0
	push	ebx
	push	esi
	push	edi
	lea	edi,[ebp-000000DC]
	mov	ecx,00000034
	mov	eax,CCCCCCCC

l00414E7A:
	rep stosd

l00414E7C:
	mov	eax,[00429014]
	xor	eax,ebp
	push	eax
	lea	eax,[ebp-0C]
	mov	fs:[00000000],eax
	mov	ecx,0042C02F
	call	00411460
	mov	eax,[ebp+0C]
	mov	ecx,[ebp+08]
	mov	edx,[eax]
	cmp	edx,[ecx]
	jnc	00414EAE

l00414EA3:
	mov	eax,[ebp+0C]
	mov	[ebp-000000DC],eax
	jmp	00414EB7

l00414EAE:
	mov	ecx,[ebp+08]
	mov	[ebp-000000DC],ecx

l00414EB7:
	mov	edx,[ebp-000000DC]
	mov	[ebp-000000D4],edx
	mov	eax,[ebp-000000D4]
	mov	ecx,[ebp-0C]
	mov	fs:[00000000],ecx
	pop	ecx
	pop	edi
	pop	esi
	pop	ebx
	add	esp,000000DC
	cmp	ebp,esp
	call	00411488
	mov	esp,ebp
	pop	ebp
	ret
00414EE8                         CC CC CC CC CC CC CC CC         ........
00414EF0 CC CC CC CC CC CC CC CC CC CC CC CC CC CC CC CC ................
00414F00 CC CC CC CC CC CC CC CC CC CC CC CC CC CC CC CC ................

l00414F10:
	push	ebp
	mov	ebp,esp
	push	FF
	push	004213C0
	mov	eax,fs:[00000000]
	push	eax
	sub	esp,000000CC
	push	ebx
	push	esi
	push	edi
	lea	edi,[ebp-000000D8]
	mov	ecx,00000033
	mov	eax,CCCCCCCC

l00414F3A:
	rep stosd

l00414F3C:
	mov	eax,[00429014]
	xor	eax,ebp
	push	eax
	lea	eax,[ebp-0C]
	mov	fs:[00000000],eax
	mov	ecx,0042C01A
	call	00411460
	movzx	eax,byte ptr [ebp-11]
	push	eax
	mov	ecx,[ebp+0C]
	push	ecx
	mov	edx,[ebp+08]
	push	edx
	call	004116D6
	add	esp,0C
	push	edx
	mov	ecx,ebp
	push	eax
	lea	edx,[00414F9C]
	call	004114D3
	pop	eax
	pop	edx
	mov	ecx,[ebp-0C]
	mov	fs:[00000000],ecx
	pop	ecx
	pop	edi
	pop	esi
	pop	ebx
	add	esp,000000D8
	cmp	ebp,esp
	call	00411488
	mov	esp,ebp
	pop	ebp
	ret
00414F9C                                     01 00 00 00             ....
00414FA0 A4 4F 41 00 EF FF FF FF 01 00 00 00 B0 4F 41 00 .OA..........OA.
00414FB0 5F 54 61 67 00 CC CC CC CC CC CC CC CC CC CC CC _Tag............
00414FC0 CC CC CC CC CC CC CC CC CC CC CC CC CC CC CC CC ................
00414FD0 CC CC CC CC CC CC CC CC CC CC CC CC CC CC CC CC ................

;; fn00414FE0: 00414FE0
;;   Called from:
;;     004116D6 (in fn004116D6)
fn00414FE0 proc
	push	ebp
	mov	ebp,esp
	push	FF
	push	004213F0
	mov	eax,fs:[00000000]
	push	eax
	sub	esp,000000C0
	push	ebx
	push	esi
	push	edi
	lea	edi,[ebp-000000CC]
	mov	ecx,00000030
	mov	eax,CCCCCCCC

l0041500A:
	rep stosd

l0041500C:
	mov	eax,[00429014]
	xor	eax,ebp
	push	eax
	lea	eax,[ebp-0C]
	mov	fs:[00000000],eax
	mov	ecx,0042C01A
	call	00411460
	mov	eax,[ebp+0C]
	push	eax
	call	004116E5
	add	esp,04
	mov	ecx,[ebp-0C]
	mov	fs:[00000000],ecx
	pop	ecx
	pop	edi
	pop	esi
	pop	ebx
	add	esp,000000CC
	cmp	ebp,esp
	call	00411488
	mov	esp,ebp
	pop	ebp
	ret
00415052       CC CC CC CC CC CC CC CC CC CC CC CC CC CC   ..............
00415060 CC CC CC CC CC CC CC CC CC CC CC CC CC CC CC CC ................

l00415070:
	push	ebp
	mov	ebp,esp
	sub	esp,0000010C
	push	ebx
	push	esi
	push	edi
	push	ecx
	lea	edi,[ebp-0000010C]
	mov	ecx,00000043
	mov	eax,CCCCCCCC

l0041508D:
	rep stosd

l0041508F:
	pop	ecx
	mov	eax,[00429014]
	xor	eax,ebp
	mov	[ebp-04],eax
	mov	[ebp-0C],ecx
	mov	ecx,0042C02B
	call	00411460
	mov	ecx,[ebp-0C]
	call	004116B3
	cmp	[ebp+08],eax
	jbe	004150B9

l004150B4:
	call	0041119A

l004150B9:
	mov	ecx,[ebp-0C]
	call	00411640
	mov	[ebp-18],eax
	mov	eax,[ebp-18]
	mov	ecx,[eax+18]
	mov	[ebp-24],ecx
	mov	eax,[ebp+08]
	push	eax
	mov	ecx,[ebp-0C]
	call	0041105A
	mov	[ebp-30],eax
	mov	ecx,[ebp-0C]
	call	00411483
	mov	[ebp-3C],eax
	xor	eax,eax
	mov	ecx,[ebp-30]
	add	ecx,01
	setc	al
	neg	eax
	or	eax,ecx
	push	eax
	mov	ecx,[ebp-3C]
	call	004112D5
	mov	[ebp-48],eax
	mov	ecx,[ebp-18]
	call	00411479
	mov	eax,[ebp-18]
	mov	ecx,[ebp+08]
	mov	[eax+14],ecx
	mov	eax,[ebp-18]
	mov	ecx,[ebp-30]
	mov	[eax+18],ecx
	mov	eax,[ebp+10]
	push	eax
	mov	ecx,[ebp+08]
	push	ecx
	mov	edx,[ebp-48]
	push	edx
	call	004115F5
	add	esp,04
	push	eax
	lea	ecx,[ebp+0C]
	call	004113F7
	cmp	dword ptr [ebp-24],10
	jc	00415160

l0041513F:
	mov	eax,[ebp-24]
	add	eax,01
	push	eax
	mov	ecx,[ebp-18]
	mov	edx,[ecx+04]
	push	edx
	mov	ecx,[ebp-3C]
	call	00411695
	mov	eax,[ebp-18]
	mov	ecx,[ebp-48]
	mov	[eax+04],ecx
	jmp	00415180

l00415160:
	lea	eax,[ebp-48]
	push	eax
	mov	ecx,[ebp-18]
	add	ecx,04
	push	ecx
	call	004113D9
	add	esp,04
	push	eax
	mov	edx,[ebp-3C]
	push	edx
	call	004114DD
	add	esp,0C

l00415180:
	mov	eax,[ebp-0C]
	push	edx
	mov	ecx,ebp
	push	eax
	lea	edx,[004151B4]
	call	004114D3
	pop	eax
	pop	edx
	pop	edi
	pop	esi
	pop	ebx
	mov	ecx,[ebp-04]
	xor	ecx,ebp
	call	004113E3
	add	esp,0000010C
	cmp	ebp,esp
	call	00411488
	mov	esp,ebp
	pop	ebp
	ret	000C
004151B4             01 00 00 00 BC 51 41 00 B8 FF FF FF     .....QA.....
004151C0 04 00 00 00 C8 51 41 00 5F 4E 65 77 5F 70 74 72 .....QA._New_ptr
004151D0 00 CC CC CC CC CC CC CC CC CC CC CC CC CC CC CC ................
004151E0 CC CC CC CC CC CC CC CC CC CC CC CC CC CC CC CC ................
004151F0 CC CC CC CC CC CC CC CC CC CC CC CC CC CC CC CC ................
00415200 CC CC CC CC CC CC CC CC CC CC CC CC CC CC CC CC ................
00415210 CC CC CC CC CC CC CC CC CC CC CC CC CC CC CC CC ................
00415220 CC CC CC CC CC CC CC CC CC CC CC CC CC CC CC CC ................

l00415230:
	push	ebp
	mov	ebp,esp
	sub	esp,0000013C
	push	ebx
	push	esi
	push	edi
	push	ecx
	lea	edi,[ebp-0000013C]
	mov	ecx,0000004F
	mov	eax,CCCCCCCC

l0041524D:
	rep stosd

l0041524F:
	pop	ecx
	mov	eax,[00429014]
	xor	eax,ebp
	mov	[ebp-04],eax
	mov	[ebp-0C],ecx
	mov	ecx,0042C02B
	call	00411460
	mov	ecx,[ebp-0C]
	call	00411640
	mov	[ebp-18],eax
	mov	eax,[ebp-18]
	mov	ecx,[eax+14]
	mov	[ebp-24],ecx
	mov	ecx,[ebp-0C]
	call	004116B3
	sub	eax,[ebp-24]
	cmp	eax,[ebp+08]
	jnc	00415290

l0041528B:
	call	0041119A

l00415290:
	mov	eax,[ebp-24]
	add	eax,[ebp+08]
	mov	[ebp-30],eax
	mov	eax,[ebp-18]
	mov	ecx,[eax+18]
	mov	[ebp-3C],ecx
	mov	eax,[ebp-30]
	push	eax
	mov	ecx,[ebp-0C]
	call	0041105A
	mov	[ebp-48],eax
	mov	ecx,[ebp-0C]
	call	00411483
	mov	[ebp-54],eax
	xor	eax,eax
	mov	ecx,[ebp-48]
	add	ecx,01
	setc	al
	neg	eax
	or	eax,ecx
	push	eax
	mov	ecx,[ebp-54]
	call	004112D5
	mov	[ebp-60],eax
	mov	ecx,[ebp-18]
	call	00411479
	mov	eax,[ebp-18]
	mov	ecx,[ebp-30]
	mov	[eax+14],ecx
	mov	eax,[ebp-18]
	mov	ecx,[ebp-48]
	mov	[eax+18],ecx
	mov	eax,[ebp-60]
	push	eax
	call	004115F5
	add	esp,04
	mov	[ebp-6C],eax
	cmp	dword ptr [ebp-3C],10
	jc	0041534F

l00415306:
	mov	eax,[ebp-18]
	mov	ecx,[eax+04]
	mov	[ebp-78],ecx
	movzx	eax,byte ptr [ebp+10]
	push	eax
	mov	ecx,[ebp-24]
	push	ecx
	mov	edx,[ebp-78]
	push	edx
	call	004115F5
	add	esp,04
	push	eax
	mov	eax,[ebp-6C]
	push	eax
	lea	ecx,[ebp+0C]
	call	0041155F
	mov	eax,[ebp-3C]
	add	eax,01
	push	eax
	mov	ecx,[ebp-78]
	push	ecx
	mov	ecx,[ebp-54]
	call	00411695
	mov	eax,[ebp-18]
	mov	ecx,[ebp-60]
	mov	[eax+04],ecx
	jmp	0041538B

l0041534F:
	movzx	eax,byte ptr [ebp+10]
	push	eax
	mov	ecx,[ebp-24]
	push	ecx
	mov	edx,[ebp-18]
	add	edx,04
	push	edx
	mov	eax,[ebp-6C]
	push	eax
	lea	ecx,[ebp+0C]
	call	0041155F
	lea	eax,[ebp-60]
	push	eax
	mov	ecx,[ebp-18]
	add	ecx,04
	push	ecx
	call	004113D9
	add	esp,04
	push	eax
	mov	edx,[ebp-54]
	push	edx
	call	004114DD
	add	esp,0C

l0041538B:
	mov	eax,[ebp-0C]
	push	edx
	mov	ecx,ebp
	push	eax
	lea	edx,[004153C0]
	call	004114D3
	pop	eax
	pop	edx
	pop	edi
	pop	esi
	pop	ebx
	mov	ecx,[ebp-04]
	xor	ecx,ebp
	call	004113E3
	add	esp,0000013C
	cmp	ebp,esp
	call	00411488
	mov	esp,ebp
	pop	ebp
	ret	000C
004153BF                                              90                .
004153C0 01 00 00 00 C8 53 41 00 A0 FF FF FF 04 00 00 00 .....SA.........
004153D0 D4 53 41 00 5F 4E 65 77 5F 70 74 72 00 CC CC CC .SA._New_ptr....
004153E0 CC CC CC CC CC CC CC CC CC CC CC CC CC CC CC CC ................
004153F0 CC CC CC CC CC CC CC CC CC CC CC CC CC CC CC CC ................
00415400 CC CC CC CC CC CC CC CC CC CC CC CC CC CC CC CC ................
00415410 CC CC CC CC CC CC CC CC CC CC CC CC CC CC CC CC ................
00415420 CC CC CC CC CC CC CC CC CC CC CC CC CC CC CC CC ................
00415430 CC CC CC CC CC CC CC CC CC CC CC CC CC CC CC CC ................
00415440 CC CC CC CC CC CC CC CC CC CC CC CC CC CC CC CC ................

l00415450:
	push	ebp
	mov	ebp,esp
	sub	esp,0000013C
	push	ebx
	push	esi
	push	edi
	push	ecx
	lea	edi,[ebp-0000013C]
	mov	ecx,0000004F
	mov	eax,CCCCCCCC

l0041546D:
	rep stosd

l0041546F:
	pop	ecx
	mov	eax,[00429014]
	xor	eax,ebp
	mov	[ebp-04],eax
	mov	[ebp-0C],ecx
	mov	ecx,0042C02B
	call	00411460
	mov	ecx,[ebp-0C]
	call	00411640
	mov	[ebp-18],eax
	mov	eax,[ebp-18]
	mov	ecx,[eax+14]
	mov	[ebp-24],ecx
	mov	ecx,[ebp-0C]
	call	004116B3
	sub	eax,[ebp-24]
	cmp	eax,[ebp+08]
	jnc	004154B0

l004154AB:
	call	0041119A

l004154B0:
	mov	eax,[ebp-24]
	add	eax,[ebp+08]
	mov	[ebp-30],eax
	mov	eax,[ebp-18]
	mov	ecx,[eax+18]
	mov	[ebp-3C],ecx
	mov	eax,[ebp-30]
	push	eax
	mov	ecx,[ebp-0C]
	call	0041105A
	mov	[ebp-48],eax
	mov	ecx,[ebp-0C]
	call	00411483
	mov	[ebp-54],eax
	xor	eax,eax
	mov	ecx,[ebp-48]
	add	ecx,01
	setc	al
	neg	eax
	or	eax,ecx
	push	eax
	mov	ecx,[ebp-54]
	call	004112D5
	mov	[ebp-60],eax
	mov	ecx,[ebp-18]
	call	00411479
	mov	eax,[ebp-18]
	mov	ecx,[ebp-30]
	mov	[eax+14],ecx
	mov	eax,[ebp-18]
	mov	ecx,[ebp-48]
	mov	[eax+18],ecx
	mov	eax,[ebp-60]
	push	eax
	call	004115F5
	add	esp,04
	mov	[ebp-6C],eax
	cmp	dword ptr [ebp-3C],10
	jc	0041556A

l00415526:
	mov	eax,[ebp-18]
	mov	ecx,[eax+04]
	mov	[ebp-78],ecx
	mov	eax,[ebp-24]
	push	eax
	mov	ecx,[ebp-78]
	push	ecx
	call	004115F5
	add	esp,04
	push	eax
	mov	edx,[ebp-6C]
	push	edx
	lea	ecx,[ebp+0C]
	call	00411622
	mov	eax,[ebp-3C]
	add	eax,01
	push	eax
	mov	ecx,[ebp-78]
	push	ecx
	mov	ecx,[ebp-54]
	call	00411695
	mov	eax,[ebp-18]
	mov	ecx,[ebp-60]
	mov	[eax+04],ecx
	jmp	004155A1

l0041556A:
	mov	eax,[ebp-24]
	push	eax
	mov	ecx,[ebp-18]
	add	ecx,04
	push	ecx
	mov	edx,[ebp-6C]
	push	edx
	lea	ecx,[ebp+0C]
	call	00411622
	lea	eax,[ebp-60]
	push	eax
	mov	ecx,[ebp-18]
	add	ecx,04
	push	ecx
	call	004113D9
	add	esp,04
	push	eax
	mov	edx,[ebp-54]
	push	edx
	call	004114DD
	add	esp,0C

l004155A1:
	mov	eax,[ebp-0C]
	push	edx
	mov	ecx,ebp
	push	eax
	lea	edx,[004155D8]
	call	004114D3
	pop	eax
	pop	edx
	pop	edi
	pop	esi
	pop	ebx
	mov	ecx,[ebp-04]
	xor	ecx,ebp
	call	004113E3
	add	esp,0000013C
	cmp	ebp,esp
	call	00411488
	mov	esp,ebp
	pop	ebp
	ret	0008
004155D5                0F 1F 00 01 00 00 00 E0 55 41 00      ........UA.
004155E0 A0 FF FF FF 04 00 00 00 EC 55 41 00 5F 4E 65 77 .........UA._New
004155F0 5F 70 74 72 00 CC CC CC CC CC CC CC CC CC CC CC _ptr............
00415600 CC CC CC CC CC CC CC CC CC CC CC CC CC CC CC CC ................
00415610 CC CC CC CC CC CC CC CC CC CC CC CC CC CC CC CC ................
00415620 CC CC CC CC CC CC CC CC CC CC CC CC CC CC CC CC ................
00415630 CC CC CC CC CC CC CC CC CC CC CC CC CC CC CC CC ................
00415640 CC CC CC CC CC CC CC CC CC CC CC CC CC CC CC CC ................
00415650 CC CC CC CC CC CC CC CC CC CC CC CC CC CC CC CC ................

l00415660:
	push	ebp
	mov	ebp,esp
	sub	esp,0000013C
	push	ebx
	push	esi
	push	edi
	push	ecx
	lea	edi,[ebp-0000013C]
	mov	ecx,0000004F
	mov	eax,CCCCCCCC

l0041567D:
	rep stosd

l0041567F:
	pop	ecx
	mov	eax,[00429014]
	xor	eax,ebp
	mov	[ebp-04],eax
	mov	[ebp-0C],ecx
	mov	ecx,0042C02B
	call	00411460
	mov	ecx,[ebp-0C]
	call	00411640
	mov	[ebp-18],eax
	mov	eax,[ebp-18]
	mov	ecx,[eax+14]
	mov	[ebp-24],ecx
	mov	ecx,[ebp-0C]
	call	004116B3
	sub	eax,[ebp-24]
	cmp	eax,[ebp+08]
	jnc	004156C0

l004156BB:
	call	0041119A

l004156C0:
	mov	eax,[ebp-24]
	add	eax,[ebp+08]
	mov	[ebp-30],eax
	mov	eax,[ebp-18]
	mov	ecx,[eax+18]
	mov	[ebp-3C],ecx
	mov	eax,[ebp-30]
	push	eax
	mov	ecx,[ebp-0C]
	call	0041105A
	mov	[ebp-48],eax
	mov	ecx,[ebp-0C]
	call	00411483
	mov	[ebp-54],eax
	xor	eax,eax
	mov	ecx,[ebp-48]
	add	ecx,01
	setc	al
	neg	eax
	or	eax,ecx
	push	eax
	mov	ecx,[ebp-54]
	call	004112D5
	mov	[ebp-60],eax
	mov	ecx,[ebp-18]
	call	00411479
	mov	eax,[ebp-18]
	mov	ecx,[ebp-30]
	mov	[eax+14],ecx
	mov	eax,[ebp-18]
	mov	ecx,[ebp-48]
	mov	[eax+18],ecx
	mov	eax,[ebp-60]
	push	eax
	call	004115F5
	add	esp,04
	mov	[ebp-6C],eax
	cmp	dword ptr [ebp-3C],10
	jc	00415782

l00415736:
	mov	eax,[ebp-18]
	mov	ecx,[eax+04]
	mov	[ebp-78],ecx
	mov	eax,[ebp+14]
	push	eax
	mov	ecx,[ebp+10]
	push	ecx
	mov	edx,[ebp-24]
	push	edx
	mov	eax,[ebp-78]
	push	eax
	call	004115F5
	add	esp,04
	push	eax
	mov	ecx,[ebp-6C]
	push	ecx
	lea	ecx,[ebp+0C]
	call	0041143D
	mov	eax,[ebp-3C]
	add	eax,01
	push	eax
	mov	ecx,[ebp-78]
	push	ecx
	mov	ecx,[ebp-54]
	call	00411695
	mov	eax,[ebp-18]
	mov	ecx,[ebp-60]
	mov	[eax+04],ecx
	jmp	004157C1

l00415782:
	mov	eax,[ebp+14]
	push	eax
	mov	ecx,[ebp+10]
	push	ecx
	mov	edx,[ebp-24]
	push	edx
	mov	eax,[ebp-18]
	add	eax,04
	push	eax
	mov	ecx,[ebp-6C]
	push	ecx
	lea	ecx,[ebp+0C]
	call	0041143D
	lea	eax,[ebp-60]
	push	eax
	mov	ecx,[ebp-18]
	add	ecx,04
	push	ecx
	call	004113D9
	add	esp,04
	push	eax
	mov	edx,[ebp-54]
	push	edx
	call	004114DD
	add	esp,0C

l004157C1:
	mov	eax,[ebp-0C]
	push	edx
	mov	ecx,ebp
	push	eax
	lea	edx,[004157F8]
	call	004114D3
	pop	eax
	pop	edx
	pop	edi
	pop	esi
	pop	ebx
	mov	ecx,[ebp-04]
	xor	ecx,ebp
	call	004113E3
	add	esp,0000013C
	cmp	ebp,esp
	call	00411488
	mov	esp,ebp
	pop	ebp
	ret	0010
004157F5                0F 1F 00 01 00 00 00 00 58 41 00      ........XA.
00415800 A0 FF FF FF 04 00 00 00 0C 58 41 00 5F 4E 65 77 .........XA._New
00415810 5F 70 74 72 00 CC CC CC CC CC CC CC CC CC CC CC _ptr............
00415820 CC CC CC CC CC CC CC CC CC CC CC CC CC CC CC CC ................
00415830 CC CC CC CC CC CC CC CC CC CC CC CC CC CC CC CC ................
00415840 CC CC CC CC CC CC CC CC CC CC CC CC CC CC CC CC ................
00415850 CC CC CC CC CC CC CC CC CC CC CC CC CC CC CC CC ................
00415860 CC CC CC CC CC CC CC CC CC CC CC CC CC CC CC CC ................
00415870 CC CC CC CC CC CC CC CC CC CC CC CC CC CC CC CC ................
00415880 CC CC CC CC CC CC CC CC CC CC CC CC CC CC CC CC ................

l00415890:
	push	ebp
	mov	ebp,esp
	push	FF
	push	00421420
	mov	eax,fs:[00000000]
	push	eax
	sub	esp,000000C4
	push	ebx
	push	esi
	push	edi
	lea	edi,[ebp-000000D0]
	mov	ecx,00000031
	mov	eax,CCCCCCCC

l004158BA:
	rep stosd

l004158BC:
	mov	eax,[00429014]
	xor	eax,ebp
	push	eax
	lea	eax,[ebp-0C]
	mov	fs:[00000000],eax
	mov	ecx,0042C02B
	call	00411460
	mov	eax,[ebp+0C]
	cmp	eax,[ebp+14]
	jnz	00415903

l004158DF:
	mov	ecx,[ebp+0C]
	push	ecx
	mov	edx,[ebp+10]
	push	edx
	mov	eax,[ebp+08]
	push	eax
	call	004111F9
	add	esp,0C
	test	eax,eax
	jnz	00415903

l004158F7:
	mov	dword ptr [ebp-000000D0],00000001
	jmp	0041590D

l00415903:
	mov	dword ptr [ebp-000000D0],00000000

l0041590D:
	mov	al,[ebp-000000D0]
	mov	ecx,[ebp-0C]
	mov	fs:[00000000],ecx
	pop	ecx
	pop	edi
	pop	esi
	pop	ebx
	add	esp,000000D0
	cmp	ebp,esp
	call	00411488
	mov	esp,ebp
	pop	ebp
	ret
00415932       CC CC CC CC CC CC CC CC CC CC CC CC CC CC   ..............
00415940 CC CC CC CC CC CC CC CC CC CC CC CC CC CC CC CC ................
00415950 CC CC CC CC CC CC CC CC CC CC CC CC CC CC CC CC ................

l00415960:
	push	ebp
	mov	ebp,esp
	sub	esp,000000C0
	push	ebx
	push	esi
	push	edi
	lea	edi,[ebp-000000C0]
	mov	ecx,00000030
	mov	eax,CCCCCCCC

l0041597C:
	rep stosd

l0041597E:
	mov	ecx,0042C030
	call	00411460
	mov	eax,[ebp+08]
	pop	edi
	pop	esi
	pop	ebx
	add	esp,000000C0
	cmp	ebp,esp
	call	00411488
	mov	esp,ebp
	pop	ebp
	ret
0041599F                                              CC                .
004159A0 CC CC CC CC CC CC CC CC CC CC CC CC CC CC CC CC ................

l004159B0:
	push	ebp
	mov	ebp,esp
	sub	esp,000000C0
	push	ebx
	push	esi
	push	edi
	lea	edi,[ebp-000000C0]
	mov	ecx,00000030
	mov	eax,CCCCCCCC

l004159CC:
	rep stosd

l004159CE:
	mov	ecx,0042C030
	call	00411460
	mov	eax,[ebp+08]
	pop	edi
	pop	esi
	pop	ebx
	add	esp,000000C0
	cmp	ebp,esp
	call	00411488
	mov	esp,ebp
	pop	ebp
	ret
004159EF                                              CC                .
004159F0 CC CC CC CC CC CC CC CC CC CC CC CC CC CC CC CC ................

l00415A00:
	push	ebp
	mov	ebp,esp
	push	FF
	push	00421450
	mov	eax,fs:[00000000]
	push	eax
	sub	esp,000000C0
	push	ebx
	push	esi
	push	edi
	lea	edi,[ebp-000000CC]
	mov	ecx,00000030
	mov	eax,CCCCCCCC

l00415A2A:
	rep stosd

l00415A2C:
	mov	eax,[00429014]
	xor	eax,ebp
	push	eax
	lea	eax,[ebp-0C]
	mov	fs:[00000000],eax
	mov	ecx,0042C030
	call	00411460
	mov	eax,[ebp+08]
	mov	ecx,[ebp-0C]
	mov	fs:[00000000],ecx
	pop	ecx
	pop	edi
	pop	esi
	pop	ebx
	add	esp,000000CC
	cmp	ebp,esp
	call	00411488
	mov	esp,ebp
	pop	ebp
	ret
00415A69                            CC CC CC CC CC CC CC          .......
00415A70 CC CC CC CC CC CC CC CC CC CC CC CC CC CC CC CC ................
00415A80 CC CC CC CC CC CC CC CC CC CC CC CC CC CC CC CC ................

l00415A90:
	push	ebp
	mov	ebp,esp
	push	FF
	push	00421480
	mov	eax,fs:[00000000]
	push	eax
	sub	esp,000000C0
	push	ebx
	push	esi
	push	edi
	lea	edi,[ebp-000000CC]
	mov	ecx,00000030
	mov	eax,CCCCCCCC

l00415ABA:
	rep stosd

l00415ABC:
	mov	eax,[00429014]
	xor	eax,ebp
	push	eax
	lea	eax,[ebp-0C]
	mov	fs:[00000000],eax
	mov	ecx,0042C030
	call	00411460
	mov	eax,[ebp+08]
	mov	ecx,[ebp-0C]
	mov	fs:[00000000],ecx
	pop	ecx
	pop	edi
	pop	esi
	pop	ebx
	add	esp,000000CC
	cmp	ebp,esp
	call	00411488
	mov	esp,ebp
	pop	ebp
	ret
00415AF9                            CC CC CC CC CC CC CC          .......
00415B00 CC CC CC CC CC CC CC CC CC CC CC CC CC CC CC CC ................
00415B10 CC CC CC CC CC CC CC CC CC CC CC CC CC CC CC CC ................

l00415B20:
	push	ebp
	mov	ebp,esp
	push	FF
	push	004214B0
	mov	eax,fs:[00000000]
	push	eax
	sub	esp,000000C0
	push	ebx
	push	esi
	push	edi
	lea	edi,[ebp-000000CC]
	mov	ecx,00000030
	mov	eax,CCCCCCCC

l00415B4A:
	rep stosd

l00415B4C:
	mov	eax,[00429014]
	xor	eax,ebp
	push	eax
	lea	eax,[ebp-0C]
	mov	fs:[00000000],eax
	mov	ecx,0042C030
	call	00411460
	mov	eax,[ebp+08]
	mov	ecx,[ebp-0C]
	mov	fs:[00000000],ecx
	pop	ecx
	pop	edi
	pop	esi
	pop	ebx
	add	esp,000000CC
	cmp	ebp,esp
	call	00411488
	mov	esp,ebp
	pop	ebp
	ret
00415B89                            CC CC CC CC CC CC CC          .......
00415B90 CC CC CC CC CC CC CC CC CC CC CC CC CC CC CC CC ................
00415BA0 CC CC CC CC CC CC CC CC CC CC CC CC CC CC CC CC ................

l00415BB0:
	push	ebp
	mov	ebp,esp
	sub	esp,000000CC
	push	ebx
	push	esi
	push	edi
	lea	edi,[ebp-000000CC]
	mov	ecx,00000033
	mov	eax,CCCCCCCC

l00415BCC:
	rep stosd

l00415BCE:
	mov	ecx,0042C01A
	call	00411460
	mov	eax,[ebp+0C]
	push	eax
	push	04
	call	0041119F
	add	esp,08
	mov	[ebp-000000C8],eax
	mov	ecx,[ebp+10]
	push	ecx
	call	00411645
	add	esp,04
	mov	edx,[ebp-000000C8]
	mov	eax,[eax]
	mov	[edx],eax
	pop	edi
	pop	esi
	pop	ebx
	add	esp,000000CC
	cmp	ebp,esp
	call	00411488
	mov	esp,ebp
	pop	ebp
	ret
00415C16                   CC CC CC CC CC CC CC CC CC CC       ..........
00415C20 CC CC CC CC CC CC CC CC CC CC CC CC CC CC CC CC ................

l00415C30:
	push	ebp
	mov	ebp,esp
	sub	esp,000000CC
	push	ebx
	push	esi
	push	edi
	lea	edi,[ebp-000000CC]
	mov	ecx,00000033
	mov	eax,CCCCCCCC

l00415C4C:
	rep stosd

l00415C4E:
	mov	ecx,0042C01A
	call	00411460
	mov	eax,[ebp+0C]
	push	eax
	push	08
	call	0041119F
	add	esp,08
	mov	[ebp-000000C8],eax
	mov	ecx,[ebp+10]
	push	ecx
	call	00411465
	add	esp,04
	mov	edx,[eax]
	mov	eax,[eax+04]
	mov	ecx,[ebp-000000C8]
	mov	[ecx],edx
	mov	[ecx+04],eax
	pop	edi
	pop	esi
	pop	ebx
	add	esp,000000CC
	cmp	ebp,esp
	call	00411488
	mov	esp,ebp
	pop	ebp
	ret
00415C9C                                     CC CC CC CC             ....
00415CA0 CC CC CC CC CC CC CC CC CC CC CC CC CC CC CC CC ................
00415CB0 CC CC CC CC CC CC CC CC CC CC CC CC CC CC CC CC ................

l00415CC0:
	push	ebp
	mov	ebp,esp
	sub	esp,000000C0
	push	ebx
	push	esi
	push	edi
	lea	edi,[ebp-000000C0]
	mov	ecx,00000030
	mov	eax,CCCCCCCC

l00415CDC:
	rep stosd

l00415CDE:
	mov	ecx,0042C01A
	call	00411460
	pop	edi
	pop	esi
	pop	ebx
	add	esp,000000C0
	cmp	ebp,esp
	call	00411488
	mov	esp,ebp
	pop	ebp
	ret
00415CFC                                     CC CC CC CC             ....
00415D00 CC CC CC CC CC CC CC CC CC CC CC CC CC CC CC CC ................

l00415D10:
	push	ebp
	mov	ebp,esp
	sub	esp,000000C0
	push	ebx
	push	esi
	push	edi
	lea	edi,[ebp-000000C0]
	mov	ecx,00000030
	mov	eax,CCCCCCCC

l00415D2C:
	rep stosd

l00415D2E:
	mov	ecx,0042C01A
	call	00411460
	pop	edi
	pop	esi
	pop	ebx
	add	esp,000000C0
	cmp	ebp,esp
	call	00411488
	mov	esp,ebp
	pop	ebp
	ret
00415D4C                                     CC CC CC CC             ....
00415D50 CC CC CC CC CC CC CC CC CC CC CC CC CC CC CC CC ................
00415D60 55 8B EC 81 EC C0 00 00 00 53 56 57 8D BD 40 FF U........SVW..@.
00415D70 FF FF B9 30 00 00 00 B8 CC CC CC CC F3 AB B9 2D ...0...........-
00415D80 C0 42 00 E8 D8 B6 FF FF 8B F4 6A 0A 8B 45 08 8B .B........j..E..
00415D90 08 8B 55 08 03 51 04 8B CA FF 15 B0 A0 42 00 3B ..U..Q.......B.;
00415DA0 F4 E8 E2 B6 FF FF 8B F4 0F B6 C0 50 8B 4D 08 FF ...........P.M..
00415DB0 15 A4 A0 42 00 3B F4 E8 CC B6 FF FF 8B F4 8B 4D ...B.;.........M
00415DC0 08 FF 15 A0 A0 42 00 3B F4 E8 BA B6 FF FF 8B 45 .....B.;.......E
00415DD0 08 5F 5E 5B 81 C4 C0 00 00 00 3B EC E8 A7 B6 FF ._^[......;.....
00415DE0 FF 8B E5 5D C3 CC CC CC CC CC CC CC CC CC CC CC ...]............
00415DF0 CC CC CC CC CC CC CC CC CC CC CC CC CC CC CC CC ................
00415E00 CC CC CC CC CC CC CC CC CC CC CC CC CC CC CC CC ................

l00415E10:
	push	ebp
	mov	ebp,esp
	push	FF
	push	004214E0
	mov	eax,fs:[00000000]
	push	eax
	sub	esp,000000C0
	push	ebx
	push	esi
	push	edi
	lea	edi,[ebp-000000CC]
	mov	ecx,00000030
	mov	eax,CCCCCCCC

l00415E3A:
	rep stosd

l00415E3C:
	mov	eax,[00429014]
	xor	eax,ebp
	push	eax
	lea	eax,[ebp-0C]
	mov	fs:[00000000],eax
	mov	ecx,0042C00D
	call	00411460
	mov	eax,[ebp+08]
	mov	ecx,[ebp-0C]
	mov	fs:[00000000],ecx
	pop	ecx
	pop	edi
	pop	esi
	pop	ebx
	add	esp,000000CC
	cmp	ebp,esp
	call	00411488
	mov	esp,ebp
	pop	ebp
	ret
00415E79                            CC CC CC CC CC CC CC          .......
00415E80 CC CC CC CC CC CC CC CC CC CC CC CC CC CC CC CC ................
00415E90 CC CC CC CC CC CC CC CC CC CC CC CC CC CC CC CC ................

;; fn00415EA0: 00415EA0
;;   Called from:
;;     00411465 (in fn00411465)
fn00415EA0 proc
	push	ebp
	mov	ebp,esp
	push	FF
	push	00421510
	mov	eax,fs:[00000000]
	push	eax
	sub	esp,000000C0
	push	ebx
	push	esi
	push	edi
	lea	edi,[ebp-000000CC]
	mov	ecx,00000030
	mov	eax,CCCCCCCC

l00415ECA:
	rep stosd

l00415ECC:
	mov	eax,[00429014]
	xor	eax,ebp
	push	eax
	lea	eax,[ebp-0C]
	mov	fs:[00000000],eax
	mov	ecx,0042C00D
	call	00411460
	mov	eax,[ebp+08]
	mov	ecx,[ebp-0C]
	mov	fs:[00000000],ecx
	pop	ecx
	pop	edi
	pop	esi
	pop	ebx
	add	esp,000000CC
	cmp	ebp,esp
	call	00411488
	mov	esp,ebp
	pop	ebp
	ret
00415F09                            CC CC CC CC CC CC CC          .......
00415F10 CC CC CC CC CC CC CC CC CC CC CC CC CC CC CC CC ................
00415F20 CC CC CC CC CC CC CC CC CC CC CC CC CC CC CC CC ................

l00415F30:
	push	ebp
	mov	ebp,esp
	push	FF
	push	00421540
	mov	eax,fs:[00000000]
	push	eax
	sub	esp,000000C0
	push	ebx
	push	esi
	push	edi
	lea	edi,[ebp-000000CC]
	mov	ecx,00000030
	mov	eax,CCCCCCCC

l00415F5A:
	rep stosd

l00415F5C:
	mov	eax,[00429014]
	xor	eax,ebp
	push	eax
	lea	eax,[ebp-0C]
	mov	fs:[00000000],eax
	mov	ecx,0042C00D
	call	00411460
	mov	eax,[ebp+08]
	mov	ecx,[ebp-0C]
	mov	fs:[00000000],ecx
	pop	ecx
	pop	edi
	pop	esi
	pop	ebx
	add	esp,000000CC
	cmp	ebp,esp
	call	00411488
	mov	esp,ebp
	pop	ebp
	ret
00415F99                            CC CC CC CC CC CC CC          .......
00415FA0 CC CC CC CC CC CC CC CC CC CC CC CC CC CC CC CC ................
00415FB0 CC CC CC CC CC CC CC CC CC CC CC CC CC CC CC CC ................

l00415FC0:
	push	ebp
	mov	ebp,esp
	push	FF
	push	00421578
	mov	eax,fs:[00000000]
	push	eax
	push	ecx
	sub	esp,00000124
	push	ebx
	push	esi
	push	edi
	lea	edi,[ebp-00000134]
	mov	ecx,00000049
	mov	eax,CCCCCCCC

l00415FEB:
	rep stosd

l00415FED:
	mov	eax,[00429014]
	xor	eax,ebp
	mov	[ebp-14],eax
	push	eax
	lea	eax,[ebp-0C]
	mov	fs:[00000000],eax
	mov	[ebp-10],esp
	mov	ecx,0042C027
	call	00411460
	mov	dword ptr [ebp-1C],00000000
	mov	byte ptr [ebp-25],00
	push	01
	mov	eax,[ebp+08]
	push	eax
	lea	ecx,[ebp-38]
	call	004115CD
	mov	dword ptr [ebp-04],00000000
	lea	ecx,[ebp-38]
	call	0041114F
	movzx	eax,al
	test	eax,eax
	jz	004161F6

l00416041:
	mov	byte ptr [ebp-04],01
	push	00
	mov	ecx,[ebp+0C]
	call	004113CA
	lea	eax,[ebp+10]
	push	eax
	call	00411361
	add	esp,04
	mov	[ebp-44],eax
	mov	eax,[ebp+08]
	mov	ecx,[eax]
	mov	edx,[ebp+08]
	add	edx,[ecx+04]
	mov	esi,esp
	mov	ecx,edx
	call	dword ptr [0042A0B8]
	cmp	esi,esp
	call	00411488
	mov	[ebp-00000130],eax
	mov	esi,esp
	mov	ecx,[ebp-00000130]
	call	dword ptr [0042A0D0]
	cmp	esi,esp
	call	00411488
	mov	[ebp-00000134],eax
	mov	eax,[ebp-00000134]
	mov	[ebp-50],eax
	jmp	004160EC

l004160A6:
	mov	eax,[ebp+08]
	mov	ecx,[eax]
	mov	edx,[ebp+08]
	add	edx,[ecx+04]
	mov	esi,esp
	mov	ecx,edx
	call	dword ptr [0042A0B8]
	cmp	esi,esp
	call	00411488
	mov	[ebp-00000130],eax
	mov	esi,esp
	mov	ecx,[ebp-00000130]
	call	dword ptr [0042A0CC]
	cmp	esi,esp
	call	00411488
	mov	[ebp-00000134],eax
	mov	eax,[ebp-00000134]
	mov	[ebp-50],eax

l004160EC:
	call	00411235
	mov	[ebp-0000011C],eax
	lea	eax,[ebp-50]
	push	eax
	lea	ecx,[ebp-0000011C]
	push	ecx
	call	00411456
	add	esp,08
	movzx	edx,al
	test	edx,edx
	jz	00416124

l00416111:
	mov	eax,[ebp-1C]
	or	eax,01
	mov	[ebp-1C],eax
	jmp	004161BE
0041611F                                              E9                .
00416120 95 00 00 00                                     ....           

l00416124:
	lea	eax,[ebp-44]
	push	eax
	lea	ecx,[ebp-50]
	push	ecx
	call	00411456
	add	esp,08
	movzx	edx,al
	test	edx,edx
	jz	0041617A

l0041613B:
	mov	byte ptr [ebp-25],01
	mov	eax,[ebp+08]
	mov	ecx,[eax]
	mov	edx,[ebp+08]
	add	edx,[ecx+04]
	mov	esi,esp
	mov	ecx,edx
	call	dword ptr [0042A0B8]
	cmp	esi,esp
	call	00411488
	mov	[ebp-00000130],eax
	mov	esi,esp
	mov	ecx,[ebp-00000130]
	call	dword ptr [0042A0D4]
	cmp	esi,esp
	call	00411488
	jmp	004161BE
00416178                         EB 3F                           .?     

l0041617A:
	mov	ecx,[ebp+0C]
	call	004116BD
	mov	esi,eax
	mov	ecx,[ebp+0C]
	call	004116B3
	cmp	eax,esi
	ja	0041619D

l00416190:
	mov	eax,[ebp-1C]
	or	eax,02
	mov	[ebp-1C],eax
	jmp	004161BE
0041619B                                  EB 1C                     ..  

l0041619D:
	lea	eax,[ebp-50]
	push	eax
	call	00411195
	add	esp,04
	movzx	ecx,al
	push	ecx
	mov	ecx,[ebp+0C]
	call	00411433
	mov	byte ptr [ebp-25],01
	jmp	004160A6

l004161BE:
	jmp	004161E6
004161C0 8B F4 6A 01 6A 04 8B 45 08 8B 08 8B 55 08 03 51 ..j.j..E....U..Q
004161D0 04 8B CA FF 15 C0 A0 42 00 3B F4 E8 A8 B2 FF FF .......B.;......
004161E0 B8 EF 61 41 00 C3                               ..aA..         

l004161E6:
	mov	dword ptr [ebp-04],00000000
	jmp	004161F6
004161EF                                              C7                .
004161F0 45 FC 00 00 00 00                               E.....         

l004161F6:
	movzx	eax,byte ptr [ebp-25]
	test	eax,eax
	jnz	00416207

l004161FE:
	mov	eax,[ebp-1C]
	or	eax,02
	mov	[ebp-1C],eax

l00416207:
	mov	esi,esp
	push	00
	mov	eax,[ebp-1C]
	push	eax
	mov	ecx,[ebp+08]
	mov	edx,[ecx]
	mov	ecx,[ebp+08]
	add	ecx,[edx+04]
	call	dword ptr [0042A0C0]
	cmp	esi,esp
	call	00411488
	mov	eax,[ebp+08]
	mov	[ebp-00000128],eax
	mov	dword ptr [ebp-04],FFFFFFFF
	lea	ecx,[ebp-38]
	call	004114F1
	mov	eax,[ebp-00000128]
	push	edx
	mov	ecx,ebp
	push	eax
	lea	edx,[00416280]
	call	004114D3
	pop	eax
	pop	edx
	mov	ecx,[ebp-0C]
	mov	fs:[00000000],ecx
	pop	ecx
	pop	edi
	pop	esi
	pop	ebx
	mov	ecx,[ebp-14]
	xor	ecx,ebp
	call	004113E3
	add	esp,00000134
	cmp	ebp,esp
	call	00411488
	mov	esp,ebp
	pop	ebp
	ret
0041627F                                              90                .
00416280 03 00 00 00 88 62 41 00 C8 FF FF FF 08 00 00 00 .....bA.........
00416290 BD 62 41 00 BC FF FF FF 04 00 00 00 B2 62 41 00 .bA..........bA.
004162A0 B0 FF FF FF 04 00 00 00 AC 62 41 00 5F 4D 65 74 .........bA._Met
004162B0 61 00 5F 4D 65 74 61 64 65 6C 69 6D 00 5F 4F 6B a._Metadelim._Ok
004162C0 00 CC CC CC CC CC CC CC CC CC CC CC CC CC CC CC ................

l004162D0:
	push	ebp
	mov	ebp,esp
	sub	esp,000000D8
	push	ebx
	push	esi
	push	edi
	push	ecx
	lea	edi,[ebp-000000D8]
	mov	ecx,00000036
	mov	eax,CCCCCCCC

l004162ED:
	rep stosd

l004162EF:
	pop	ecx
	mov	[ebp-08],ecx
	mov	ecx,0042C02B
	call	00411460
	mov	eax,[ebp+10]
	push	eax
	mov	ecx,[ebp+0C]
	push	ecx
	mov	edx,[ebp+08]
	push	edx
	call	00411302
	add	esp,0C
	mov	eax,[ebp+18]
	push	eax
	mov	ecx,[ebp+14]
	push	ecx
	mov	edx,[ebp+08]
	add	edx,[ebp+10]
	push	edx
	call	00411302
	add	esp,0C
	mov	byte ptr [ebp-000000D1],00
	lea	eax,[ebp-000000D1]
	push	eax
	mov	ecx,[ebp+10]
	add	ecx,[ebp+18]
	add	ecx,[ebp+08]
	push	ecx
	call	0041154B
	add	esp,08
	pop	edi
	pop	esi
	pop	ebx
	add	esp,000000D8
	cmp	ebp,esp
	call	00411488
	mov	esp,ebp
	pop	ebp
	ret	0014
0041635E                                           CC CC               ..
00416360 CC CC CC CC CC CC CC CC CC CC CC CC CC CC CC CC ................
00416370 CC CC CC CC CC CC CC CC CC CC CC CC CC CC CC CC ................
00416380 CC CC CC CC CC CC CC CC CC CC CC CC CC CC CC CC ................

l00416390:
	push	ebp
	mov	ebp,esp
	sub	esp,000000C0
	push	ebx
	push	esi
	push	edi
	lea	edi,[ebp-000000C0]
	mov	ecx,00000030
	mov	eax,CCCCCCCC

l004163AC:
	rep stosd

l004163AE:
	mov	ecx,0042C027
	call	00411460
	mov	esi,esp
	push	0A
	mov	eax,[ebp+08]
	mov	ecx,[eax]
	mov	edx,[ebp+08]
	add	edx,[ecx+04]
	mov	ecx,edx
	call	dword ptr [0042A0B0]
	cmp	esi,esp
	call	00411488
	movzx	eax,al
	push	eax
	mov	ecx,[ebp+0C]
	push	ecx
	mov	edx,[ebp+08]
	push	edx
	call	0041161D
	add	esp,04
	push	eax
	call	0041118B
	add	esp,0C
	pop	edi
	pop	esi
	pop	ebx
	add	esp,000000C0
	cmp	ebp,esp
	call	00411488
	mov	esp,ebp
	pop	ebp
	ret
00416407                      CC CC CC CC CC CC CC CC CC        .........
00416410 CC CC CC CC CC CC CC CC CC CC CC CC CC CC CC CC ................
00416420 CC CC CC CC CC CC CC CC CC CC CC CC CC CC CC CC ................

l00416430:
	push	ebp
	mov	ebp,esp
	push	FF
	push	004215B0
	mov	eax,fs:[00000000]
	push	eax
	sub	esp,000000C0
	push	ebx
	push	esi
	push	edi
	lea	edi,[ebp-000000CC]
	mov	ecx,00000030
	mov	eax,CCCCCCCC

l0041645A:
	rep stosd

l0041645C:
	mov	eax,[00429014]
	xor	eax,ebp
	push	eax
	lea	eax,[ebp-0C]
	mov	fs:[00000000],eax
	mov	ecx,0042C00D
	call	00411460
	mov	eax,[ebp+08]
	mov	ecx,[ebp-0C]
	mov	fs:[00000000],ecx
	pop	ecx
	pop	edi
	pop	esi
	pop	ebx
	add	esp,000000CC
	cmp	ebp,esp
	call	00411488
	mov	esp,ebp
	pop	ebp
	ret
00416499                            CC CC CC CC CC CC CC          .......
004164A0 CC CC CC CC CC CC CC CC CC CC CC CC CC CC CC CC ................
004164B0 CC CC CC CC CC CC CC CC CC CC CC CC CC CC CC CC ................

;; fn004164C0: 004164C0
;;   Called from:
;;     0041161D (in fn0041161D)
fn004164C0 proc
	push	ebp
	mov	ebp,esp
	push	FF
	push	004215E0
	mov	eax,fs:[00000000]
	push	eax
	sub	esp,000000C0
	push	ebx
	push	esi
	push	edi
	lea	edi,[ebp-000000CC]
	mov	ecx,00000030
	mov	eax,CCCCCCCC

l004164EA:
	rep stosd

l004164EC:
	mov	eax,[00429014]
	xor	eax,ebp
	push	eax
	lea	eax,[ebp-0C]
	mov	fs:[00000000],eax
	mov	ecx,0042C00D
	call	00411460
	mov	eax,[ebp+08]
	mov	ecx,[ebp-0C]
	mov	fs:[00000000],ecx
	pop	ecx
	pop	edi
	pop	esi
	pop	ebx
	add	esp,000000CC
	cmp	ebp,esp
	call	00411488
	mov	esp,ebp
	pop	ebp
	ret
00416529                            CC CC CC CC CC CC CC          .......
00416530 CC CC CC CC CC CC CC CC CC CC CC CC CC CC CC CC ................
00416540 CC CC CC CC CC CC CC CC CC CC CC CC CC CC CC CC ................

l00416550:
	push	ebp
	mov	ebp,esp
	push	FF
	push	00421610
	mov	eax,fs:[00000000]
	push	eax
	sub	esp,000000C0
	push	ebx
	push	esi
	push	edi
	lea	edi,[ebp-000000CC]
	mov	ecx,00000030
	mov	eax,CCCCCCCC

l0041657A:
	rep stosd

l0041657C:
	mov	eax,[00429014]
	xor	eax,ebp
	push	eax
	lea	eax,[ebp-0C]
	mov	fs:[00000000],eax
	mov	ecx,0042C00D
	call	00411460
	mov	eax,[ebp+08]
	mov	ecx,[ebp-0C]
	mov	fs:[00000000],ecx
	pop	ecx
	pop	edi
	pop	esi
	pop	ebx
	add	esp,000000CC
	cmp	ebp,esp
	call	00411488
	mov	esp,ebp
	pop	ebp
	ret
004165B9                            CC CC CC CC CC CC CC          .......
004165C0 CC CC CC CC CC CC CC CC CC CC CC CC CC CC CC CC ................
004165D0 CC CC CC CC CC CC CC CC CC CC CC CC CC CC CC CC ................

;; fn004165E0: 004165E0
;;   Called from:
;;     0041100F (in fn0041100F)
fn004165E0 proc
	push	ebp
	mov	ebp,esp
	push	FF
	push	00421648
	mov	eax,fs:[00000000]
	push	eax
	sub	esp,000000D8
	push	ebx
	push	esi
	push	edi
	push	ecx
	lea	edi,[ebp-000000E4]
	mov	ecx,00000036
	mov	eax,CCCCCCCC

l0041660B:
	rep stosd

l0041660D:
	pop	ecx
	mov	eax,[00429014]
	xor	eax,ebp
	push	eax
	lea	eax,[ebp-0C]
	mov	fs:[00000000],eax
	mov	[ebp-14],ecx
	mov	ecx,0042C02B
	call	00411460
	movzx	eax,byte ptr [ebp-000000DD]
	push	eax
	mov	ecx,[ebp-14]
	call	0041127B
	mov	dword ptr [ebp-04],00000000
	mov	ecx,[ebp-14]
	call	004113D4
	mov	dword ptr [ebp-04],FFFFFFFF
	mov	eax,[ebp-14]
	mov	ecx,[ebp-0C]
	mov	fs:[00000000],ecx
	pop	ecx
	pop	edi
	pop	esi
	pop	ebx
	add	esp,000000E4
	cmp	ebp,esp
	call	00411488
	mov	esp,ebp
	pop	ebp
	ret
00416674             CC CC CC CC CC CC CC CC CC CC CC CC     ............
00416680 CC CC CC CC CC CC CC CC CC CC CC CC CC CC CC CC ................
00416690 CC CC CC CC CC CC CC CC CC CC CC CC CC CC CC CC ................

;; fn004166A0: 004166A0
;;   Called from:
;;     00411258 (in fn00411258)
fn004166A0 proc
	push	ebp
	mov	ebp,esp
	sub	esp,000000CC
	push	ebx
	push	esi
	push	edi
	push	ecx
	lea	edi,[ebp-000000CC]
	mov	ecx,00000033
	mov	eax,CCCCCCCC

l004166BD:
	rep stosd

l004166BF:
	pop	ecx
	mov	[ebp-08],ecx
	mov	ecx,0042C02B
	call	00411460
	mov	ecx,[ebp-08]
	call	00411357
	mov	ecx,[ebp-08]
	add	ecx,04
	call	004114D8
	mov	eax,[ebp-08]
	mov	dword ptr [eax+14],00000000
	mov	eax,[ebp-08]
	mov	dword ptr [eax+18],00000000
	mov	eax,[ebp-08]
	pop	edi
	pop	esi
	pop	ebx
	add	esp,000000CC
	cmp	ebp,esp
	call	00411488
	mov	esp,ebp
	pop	ebp
	ret
0041670B                                  CC CC CC CC CC            .....
00416710 CC CC CC CC CC CC CC CC CC CC CC CC CC CC CC CC ................
00416720 CC CC CC CC CC CC CC CC CC CC CC CC CC CC CC CC ................

;; fn00416730: 00416730
;;   Called from:
;;     00411334 (in fn00411334)
fn00416730 proc
	push	ebp
	mov	ebp,esp
	push	FF
	push	00421670
	mov	eax,fs:[00000000]
	push	eax
	sub	esp,000000CC
	push	ebx
	push	esi
	push	edi
	push	ecx
	lea	edi,[ebp-000000D8]
	mov	ecx,00000033
	mov	eax,CCCCCCCC

l0041675B:
	rep stosd

l0041675D:
	pop	ecx
	mov	eax,[00429014]
	xor	eax,ebp
	push	eax
	lea	eax,[ebp-0C]
	mov	fs:[00000000],eax
	mov	[ebp-14],ecx
	mov	ecx,0042C01A
	call	00411460
	mov	eax,[ebp-14]
	mov	ecx,[ebp-0C]
	mov	fs:[00000000],ecx
	pop	ecx
	pop	edi
	pop	esi
	pop	ebx
	add	esp,000000D8
	cmp	ebp,esp
	call	00411488
	mov	esp,ebp
	pop	ebp
	ret
0041679E                                           CC CC               ..
004167A0 CC CC CC CC CC CC CC CC CC CC CC CC CC CC CC CC ................
004167B0 CC CC CC CC CC CC CC CC CC CC CC CC CC CC CC CC ................

l004167C0:
	push	ebp
	mov	ebp,esp
	push	FF
	push	004216A0
	mov	eax,fs:[00000000]
	push	eax
	sub	esp,000000D8
	push	ebx
	push	esi
	push	edi
	push	ecx
	lea	edi,[ebp-000000E4]
	mov	ecx,00000036
	mov	eax,CCCCCCCC

l004167EB:
	rep stosd

l004167ED:
	pop	ecx
	mov	eax,[00429014]
	xor	eax,ebp
	push	eax
	lea	eax,[ebp-0C]
	mov	fs:[00000000],eax
	mov	[ebp-14],ecx
	mov	ecx,0042C02B
	call	00411460
	mov	ecx,[ebp+08]
	call	00411483
	push	eax
	call	004116E5
	add	esp,04
	push	eax
	mov	ecx,[ebp-14]
	call	00411636
	xor	eax,eax
	mov	[ebp-000000DD],al
	movzx	ecx,byte ptr [ebp-000000DD]
	push	ecx
	mov	edx,[ebp+08]
	push	edx
	call	004115F0
	add	esp,04
	push	eax
	mov	ecx,[ebp-14]
	call	004111A4
	mov	eax,[ebp-14]
	mov	ecx,[ebp-0C]
	mov	fs:[00000000],ecx
	pop	ecx
	pop	edi
	pop	esi
	pop	ebx
	add	esp,000000E4
	cmp	ebp,esp
	call	00411488
	mov	esp,ebp
	pop	ebp
	ret	0004
0041686F                                              CC                .
00416870 CC CC CC CC CC CC CC CC CC CC CC CC CC CC CC CC ................
00416880 CC CC CC CC CC CC CC CC CC CC CC CC CC CC CC CC ................
00416890 CC CC CC CC CC CC CC CC CC CC CC CC CC CC CC CC ................

l004168A0:
	push	ebp
	mov	ebp,esp
	push	FF
	push	004216D8
	mov	eax,fs:[00000000]
	push	eax
	sub	esp,000000D8
	push	ebx
	push	esi
	push	edi
	push	ecx
	lea	edi,[ebp-000000E4]
	mov	ecx,00000036
	mov	eax,CCCCCCCC

l004168CB:
	rep stosd

l004168CD:
	pop	ecx
	mov	eax,[00429014]
	xor	eax,ebp
	push	eax
	lea	eax,[ebp-0C]
	mov	fs:[00000000],eax
	mov	[ebp-14],ecx
	mov	ecx,0042C02B
	call	00411460
	mov	ecx,[ebp+08]
	call	004114E2
	push	eax
	lea	eax,[ebp-000000DD]
	push	eax
	call	0041153C
	add	esp,08
	push	eax
	mov	ecx,[ebp-14]
	call	00411636
	mov	dword ptr [ebp-04],00000000
	mov	eax,[ebp+08]
	push	eax
	mov	ecx,[ebp-14]
	call	00411500
	mov	dword ptr [ebp-04],FFFFFFFF
	mov	eax,[ebp-14]
	mov	ecx,[ebp-0C]
	mov	fs:[00000000],ecx
	pop	ecx
	pop	edi
	pop	esi
	pop	ebx
	add	esp,000000E4
	cmp	ebp,esp
	call	00411488
	mov	esp,ebp
	pop	ebp
	ret	0004
0041694B                                  CC CC CC CC CC            .....
00416950 CC CC CC CC CC CC CC CC CC CC CC CC CC CC CC CC ................
00416960 CC CC CC CC CC CC CC CC CC CC CC CC CC CC CC CC ................
00416970 CC CC CC CC CC CC CC CC CC CC CC CC CC CC CC CC ................

l00416980:
	push	ebp
	mov	ebp,esp
	push	FF
	push	00421708
	mov	eax,fs:[00000000]
	push	eax
	sub	esp,000000CC
	push	ebx
	push	esi
	push	edi
	push	ecx
	lea	edi,[ebp-000000D8]
	mov	ecx,00000033
	mov	eax,CCCCCCCC

l004169AB:
	rep stosd

l004169AD:
	pop	ecx
	mov	eax,[00429014]
	xor	eax,ebp
	push	eax
	lea	eax,[ebp-0C]
	mov	fs:[00000000],eax
	mov	[ebp-14],ecx
	mov	ecx,0042C02B
	call	00411460
	mov	ecx,[ebp-14]
	call	0041100F
	mov	dword ptr [ebp-04],00000000
	mov	ecx,[ebp-14]
	call	004112F8
	mov	eax,[ebp+08]
	push	eax
	mov	ecx,[ebp-14]
	call	0041145B
	mov	dword ptr [ebp-04],FFFFFFFF
	mov	eax,[ebp-14]
	mov	ecx,[ebp-0C]
	mov	fs:[00000000],ecx
	pop	ecx
	pop	edi
	pop	esi
	pop	ebx
	add	esp,000000D8
	cmp	ebp,esp
	call	00411488
	mov	esp,ebp
	pop	ebp
	ret	0004
00416A1A                               CC CC CC CC CC CC           ......
00416A20 CC CC CC CC CC CC CC CC CC CC CC CC CC CC CC CC ................
00416A30 CC CC CC CC CC CC CC CC CC CC CC CC CC CC CC CC ................

;; fn00416A40: 00416A40
;;   Called from:
;;     0041111D (in fn0041111D)
fn00416A40 proc
	push	ebp
	mov	ebp,esp
	push	FF
	push	00421730
	mov	eax,fs:[00000000]
	push	eax
	sub	esp,000000CC
	push	ebx
	push	esi
	push	edi
	push	ecx
	lea	edi,[ebp-000000D8]
	mov	ecx,00000033
	mov	eax,CCCCCCCC

l00416A6B:
	rep stosd

l00416A6D:
	pop	ecx
	mov	eax,[00429014]
	xor	eax,ebp
	push	eax
	lea	eax,[ebp-0C]
	mov	fs:[00000000],eax
	mov	[ebp-14],ecx
	mov	ecx,0042C02B
	call	00411460
	mov	ecx,[ebp-14]
	call	0041100F
	mov	ecx,[ebp-14]
	call	004112F8
	mov	eax,[ebp-14]
	mov	ecx,[ebp-0C]
	mov	fs:[00000000],ecx
	pop	ecx
	pop	edi
	pop	esi
	pop	ebx
	add	esp,000000D8
	cmp	ebp,esp
	call	00411488
	mov	esp,ebp
	pop	ebp
	ret
00416ABE                                           CC CC               ..
00416AC0 CC CC CC CC CC CC CC CC CC CC CC CC CC CC CC CC ................
00416AD0 CC CC CC CC CC CC CC CC CC CC CC CC CC CC CC CC ................

;; fn00416AE0: 00416AE0
;;   Called from:
;;     004114D8 (in fn004114D8)
fn00416AE0 proc
	push	ebp
	mov	ebp,esp
	sub	esp,000000CC
	push	ebx
	push	esi
	push	edi
	push	ecx
	lea	edi,[ebp-000000CC]
	mov	ecx,00000033
	mov	eax,CCCCCCCC

l00416AFD:
	rep stosd

l00416AFF:
	pop	ecx
	mov	[ebp-08],ecx
	mov	ecx,0042C02B
	call	00411460
	mov	eax,[ebp-08]
	pop	edi
	pop	esi
	pop	ebx
	add	esp,000000CC
	cmp	ebp,esp
	call	00411488
	mov	esp,ebp
	pop	ebp
	ret
00416B24             CC CC CC CC CC CC CC CC CC CC CC CC     ............
00416B30 CC CC CC CC CC CC CC CC CC CC CC CC CC CC CC CC ................

;; fn00416B40: 00416B40
;;   Called from:
;;     00411357 (in fn00411357)
fn00416B40 proc
	push	ebp
	mov	ebp,esp
	sub	esp,000000CC
	push	ebx
	push	esi
	push	edi
	push	ecx
	lea	edi,[ebp-000000CC]
	mov	ecx,00000033
	mov	eax,CCCCCCCC

l00416B5D:
	rep stosd

l00416B5F:
	pop	ecx
	mov	[ebp-08],ecx
	mov	ecx,0042C018
	call	00411460
	mov	eax,[ebp-08]
	mov	dword ptr [eax],00000000
	mov	eax,[ebp-08]
	pop	edi
	pop	esi
	pop	ebx
	add	esp,000000CC
	cmp	ebp,esp
	call	00411488
	mov	esp,ebp
	pop	ebp
	ret
00416B8D                                        CC CC CC              ...
00416B90 CC CC CC CC CC CC CC CC CC CC CC CC CC CC CC CC ................

l00416BA0:
	push	ebp
	mov	ebp,esp
	push	FF
	push	00421760
	mov	eax,fs:[00000000]
	push	eax
	sub	esp,000000CC
	push	ebx
	push	esi
	push	edi
	push	ecx
	lea	edi,[ebp-000000D8]
	mov	ecx,00000033
	mov	eax,CCCCCCCC

l00416BCB:
	rep stosd

l00416BCD:
	pop	ecx
	mov	eax,[00429014]
	xor	eax,ebp
	push	eax
	lea	eax,[ebp-0C]
	mov	fs:[00000000],eax
	mov	[ebp-14],ecx
	mov	ecx,0042C018
	call	00411460
	mov	eax,[ebp-14]
	mov	dword ptr [eax],00000000
	mov	eax,[ebp-14]
	mov	dword ptr [eax+04],00000000
	mov	eax,[ebp-14]
	mov	ecx,[ebp-0C]
	mov	fs:[00000000],ecx
	pop	ecx
	pop	edi
	pop	esi
	pop	ebx
	add	esp,000000D8
	cmp	ebp,esp
	call	00411488
	mov	esp,ebp
	pop	ebp
	ret
00416C21    CC CC CC CC CC CC CC CC CC CC CC CC CC CC CC  ...............
00416C30 CC CC CC CC CC CC CC CC CC CC CC CC CC CC CC CC ................
00416C40 CC CC CC CC CC CC CC CC CC CC CC CC CC CC CC CC ................

l00416C50:
	push	ebp
	mov	ebp,esp
	sub	esp,000000D4
	push	ebx
	push	esi
	push	edi
	push	ecx
	lea	edi,[ebp-000000D4]
	mov	ecx,00000035
	mov	eax,CCCCCCCC

l00416C6D:
	rep stosd

l00416C6F:
	pop	ecx
	mov	[ebp-08],ecx
	mov	ecx,0042C02C
	call	00411460
	mov	eax,[ebp-08]
	mov	ecx,[ebp+08]
	mov	[eax],ecx
	mov	eax,[ebp-08]
	mov	ecx,[eax]
	mov	[ebp-000000D0],ecx
	mov	edx,[ebp-000000D0]
	mov	eax,[edx]
	mov	ecx,[ebp-000000D0]
	add	ecx,[eax+04]
	mov	esi,esp
	call	dword ptr [0042A0B8]
	cmp	esi,esp
	call	00411488
	test	eax,eax
	jz	00416D01

l00416CB4:
	mov	eax,[ebp-08]
	mov	ecx,[eax]
	mov	[ebp-000000D0],ecx
	mov	edx,[ebp-000000D0]
	mov	eax,[edx]
	mov	ecx,[ebp-000000D0]
	add	ecx,[eax+04]
	mov	esi,esp
	call	dword ptr [0042A0B8]
	cmp	esi,esp
	call	00411488
	mov	[ebp-000000D4],eax
	mov	ecx,[ebp-000000D4]
	mov	edx,[ecx]
	mov	esi,esp
	mov	ecx,[ebp-000000D4]
	mov	eax,[edx+04]
	call	eax
	cmp	esi,esp
	call	00411488

l00416D01:
	mov	eax,[ebp-08]
	pop	edi
	pop	esi
	pop	ebx
	add	esp,000000D4
	cmp	ebp,esp
	call	00411488
	mov	esp,ebp
	pop	ebp
	ret	0004
00416D1A                               CC CC CC CC CC CC           ......
00416D20 CC CC CC CC CC CC CC CC CC CC CC CC CC CC CC CC ................
00416D30 CC CC CC CC CC CC CC CC CC CC CC CC CC CC CC CC ................
00416D40 CC CC CC CC CC CC CC CC CC CC CC CC CC CC CC CC ................

;; fn00416D50: 00416D50
;;   Called from:
;;     00411744 (in fn00411744)
fn00416D50 proc
	push	ebp
	mov	ebp,esp
	sub	esp,000000D4
	push	ebx
	push	esi
	push	edi
	push	ecx
	lea	edi,[ebp-000000D4]
	mov	ecx,00000035
	mov	eax,CCCCCCCC

l00416D6D:
	rep stosd

l00416D6F:
	pop	ecx
	mov	[ebp-08],ecx
	mov	ecx,0042C02D
	call	00411460
	mov	eax,[ebp-08]
	mov	ecx,[ebp+08]
	mov	[eax],ecx
	mov	eax,[ebp-08]
	mov	ecx,[eax]
	mov	[ebp-000000D0],ecx
	mov	edx,[ebp-000000D0]
	mov	eax,[edx]
	mov	ecx,[ebp-000000D0]
	add	ecx,[eax+04]
	mov	esi,esp
	call	dword ptr [0042A0B8]
	cmp	esi,esp
	call	00411488
	test	eax,eax
	jz	00416E01

l00416DB4:
	mov	eax,[ebp-08]
	mov	ecx,[eax]
	mov	[ebp-000000D0],ecx
	mov	edx,[ebp-000000D0]
	mov	eax,[edx]
	mov	ecx,[ebp-000000D0]
	add	ecx,[eax+04]
	mov	esi,esp
	call	dword ptr [0042A0B8]
	cmp	esi,esp
	call	00411488
	mov	[ebp-000000D4],eax
	mov	ecx,[ebp-000000D4]
	mov	edx,[ecx]
	mov	esi,esp
	mov	ecx,[ebp-000000D4]
	mov	eax,[edx+04]
	call	eax
	cmp	esi,esp
	call	00411488

l00416E01:
	mov	eax,[ebp-08]
	pop	edi
	pop	esi
	pop	ebx
	add	esp,000000D4
	cmp	ebp,esp
	call	00411488
	mov	esp,ebp
	pop	ebp
	ret	0004
00416E1A                               CC CC CC CC CC CC           ......
00416E20 CC CC CC CC CC CC CC CC CC CC CC CC CC CC CC CC ................
00416E30 CC CC CC CC CC CC CC CC CC CC CC CC CC CC CC CC ................
00416E40 CC CC CC CC CC CC CC CC CC CC CC CC CC CC CC CC ................

l00416E50:
	push	ebp
	mov	ebp,esp
	push	FF
	push	00421798
	mov	eax,fs:[00000000]
	push	eax
	sub	esp,000000CC
	push	ebx
	push	esi
	push	edi
	push	ecx
	lea	edi,[ebp-000000D8]
	mov	ecx,00000033
	mov	eax,CCCCCCCC

l00416E7B:
	rep stosd

l00416E7D:
	pop	ecx
	mov	eax,[00429014]
	xor	eax,ebp
	push	eax
	lea	eax,[ebp-0C]
	mov	fs:[00000000],eax
	mov	[ebp-14],ecx
	mov	ecx,0042C02C
	call	00411460
	mov	eax,[ebp+08]
	push	eax
	mov	ecx,[ebp-14]
	call	004110C8
	mov	dword ptr [ebp-04],00000000
	mov	esi,esp
	movzx	eax,byte ptr [ebp+0C]
	push	eax
	mov	ecx,[ebp-14]
	mov	ecx,[ecx]
	call	dword ptr [0042A098]
	cmp	esi,esp
	call	00411488
	mov	edx,[ebp-14]
	mov	[edx+04],al
	mov	dword ptr [ebp-04],FFFFFFFF
	mov	eax,[ebp-14]
	mov	ecx,[ebp-0C]
	mov	fs:[00000000],ecx
	pop	ecx
	pop	edi
	pop	esi
	pop	ebx
	add	esp,000000D8
	cmp	ebp,esp
	call	00411488
	mov	esp,ebp
	pop	ebp
	ret	0008
00416EF9                            CC CC CC CC CC CC CC          .......
00416F00 CC CC CC CC CC CC CC CC CC CC CC CC CC CC CC CC ................
00416F10 CC CC CC CC CC CC CC CC CC CC CC CC CC CC CC CC ................
00416F20 CC CC CC CC CC CC CC CC CC CC CC CC CC CC CC CC ................

;; fn00416F30: 00416F30
;;   Called from:
;;     004116EF (in fn004116EF)
fn00416F30 proc
	push	ebp
	mov	ebp,esp
	push	FF
	push	004217C8
	mov	eax,fs:[00000000]
	push	eax
	sub	esp,000000CC
	push	ebx
	push	esi
	push	edi
	push	ecx
	lea	edi,[ebp-000000D8]
	mov	ecx,00000033
	mov	eax,CCCCCCCC

l00416F5B:
	rep stosd

l00416F5D:
	pop	ecx
	mov	eax,[00429014]
	xor	eax,ebp
	push	eax
	lea	eax,[ebp-0C]
	mov	fs:[00000000],eax
	mov	[ebp-14],ecx
	mov	ecx,0042C02D
	call	00411460
	mov	eax,[ebp+08]
	push	eax
	mov	ecx,[ebp-14]
	call	00411744
	mov	dword ptr [ebp-04],00000000
	mov	eax,[ebp+08]
	mov	ecx,[eax]
	mov	edx,[ebp+08]
	add	edx,[ecx+04]
	mov	esi,esp
	mov	ecx,edx
	call	dword ptr [0042A0E4]
	cmp	esi,esp
	call	00411488
	movzx	eax,al
	test	eax,eax
	jz	00417020

l00416FB2:
	mov	eax,[ebp+08]
	mov	ecx,[eax]
	mov	edx,[ebp+08]
	add	edx,[ecx+04]
	mov	esi,esp
	mov	ecx,edx
	call	dword ptr [0042A0BC]
	cmp	esi,esp
	call	00411488
	test	eax,eax
	jz	00417020

l00416FD2:
	mov	eax,[ebp+08]
	mov	ecx,[eax]
	mov	edx,[ebp+08]
	add	edx,[ecx+04]
	mov	esi,esp
	mov	ecx,edx
	call	dword ptr [0042A0BC]
	cmp	esi,esp
	call	00411488
	cmp	eax,[ebp+08]
	jz	00417020

l00416FF3:
	mov	eax,[ebp+08]
	mov	ecx,[eax]
	mov	edx,[ebp+08]
	add	edx,[ecx+04]
	mov	esi,esp
	mov	ecx,edx
	call	dword ptr [0042A0BC]
	cmp	esi,esp
	call	00411488
	mov	esi,esp
	mov	ecx,eax
	call	dword ptr [0042A0A0]
	cmp	esi,esp
	call	00411488

l00417020:
	mov	eax,[ebp+08]
	mov	ecx,[eax]
	mov	edx,[ebp+08]
	add	edx,[ecx+04]
	mov	esi,esp
	mov	ecx,edx
	call	dword ptr [0042A0E4]
	cmp	esi,esp
	call	00411488
	mov	ecx,[ebp-14]
	mov	[ecx+04],al
	mov	dword ptr [ebp-04],FFFFFFFF
	mov	eax,[ebp-14]
	mov	ecx,[ebp-0C]
	mov	fs:[00000000],ecx
	pop	ecx
	pop	edi
	pop	esi
	pop	ebx
	add	esp,000000D8
	cmp	ebp,esp
	call	00411488
	mov	esp,ebp
	pop	ebp
	ret	0004
0041706D                                        CC CC CC              ...
00417070 CC CC CC CC CC CC CC CC CC CC CC CC CC CC CC CC ................
00417080 CC CC CC CC CC CC CC CC CC CC CC CC CC CC CC CC ................
00417090 CC CC CC CC CC CC CC CC CC CC CC CC CC CC CC CC ................
004170A0 CC CC CC CC CC CC CC CC CC CC CC CC CC CC CC CC ................
004170B0 CC CC CC CC CC CC CC CC CC CC CC CC CC CC CC CC ................

l004170C0:
	push	ebp
	mov	ebp,esp
	sub	esp,000000CC
	push	ebx
	push	esi
	push	edi
	push	ecx
	lea	edi,[ebp-000000CC]
	mov	ecx,00000033
	mov	eax,CCCCCCCC

l004170DD:
	rep stosd

l004170DF:
	pop	ecx
	mov	[ebp-08],ecx
	mov	ecx,[ebp-08]
	call	004114AB
	pop	edi
	pop	esi
	pop	ebx
	add	esp,000000CC
	cmp	ebp,esp
	call	00411488
	mov	esp,ebp
	pop	ebp
	ret
004170FF                                              CC                .
00417100 CC CC CC CC CC CC CC CC CC CC CC CC CC CC CC CC ................

l00417110:
	push	ebp
	mov	ebp,esp
	push	FF
	push	004217F0
	mov	eax,fs:[00000000]
	push	eax
	sub	esp,000000CC
	push	ebx
	push	esi
	push	edi
	push	ecx
	lea	edi,[ebp-000000D8]
	mov	ecx,00000033
	mov	eax,CCCCCCCC

l0041713B:
	rep stosd

l0041713D:
	pop	ecx
	mov	eax,[00429014]
	xor	eax,ebp
	push	eax
	lea	eax,[ebp-0C]
	mov	fs:[00000000],eax
	mov	[ebp-14],ecx
	mov	ecx,0042C02B
	call	00411460
	mov	ecx,[ebp-14]
	call	00411442
	mov	ecx,[ebp-14]
	call	00411492
	mov	ecx,[ebp-0C]
	mov	fs:[00000000],ecx
	pop	ecx
	pop	edi
	pop	esi
	pop	ebx
	add	esp,000000D8
	cmp	ebp,esp
	call	00411488
	mov	esp,ebp
	pop	ebp
	ret
0041718B                                  CC CC CC CC CC            .....
00417190 CC CC CC CC CC CC CC CC CC CC CC CC CC CC CC CC ................
004171A0 CC CC CC CC CC CC CC CC CC CC CC CC CC CC CC CC ................

;; fn004171B0: 004171B0
;;   Called from:
;;     004114AB (in fn004114AB)
fn004171B0 proc
	push	ebp
	mov	ebp,esp
	sub	esp,000000CC
	push	ebx
	push	esi
	push	edi
	push	ecx
	lea	edi,[ebp-000000CC]
	mov	ecx,00000033
	mov	eax,CCCCCCCC

l004171CD:
	rep stosd

l004171CF:
	pop	ecx
	mov	[ebp-08],ecx
	mov	ecx,[ebp-08]
	add	ecx,04
	call	00411424
	pop	edi
	pop	esi
	pop	ebx
	add	esp,000000CC
	cmp	ebp,esp
	call	00411488
	mov	esp,ebp
	pop	ebp
	ret
004171F2       CC CC CC CC CC CC CC CC CC CC CC CC CC CC   ..............
00417200 CC CC CC CC CC CC CC CC CC CC CC CC CC CC CC CC ................

l00417210:
	push	ebp
	mov	ebp,esp
	push	FF
	push	00421820
	mov	eax,fs:[00000000]
	push	eax
	sub	esp,000000CC
	push	ebx
	push	esi
	push	edi
	push	ecx
	lea	edi,[ebp-000000D8]
	mov	ecx,00000033
	mov	eax,CCCCCCCC

l0041723B:
	rep stosd

l0041723D:
	pop	ecx
	mov	eax,[00429014]
	xor	eax,ebp
	push	eax
	lea	eax,[ebp-0C]
	mov	fs:[00000000],eax
	mov	[ebp-14],ecx
	mov	ecx,0042C02B
	call	00411460
	mov	ecx,[ebp-14]
	call	0041132A
	mov	ecx,[ebp-14]
	call	00411104
	mov	ecx,[ebp-0C]
	mov	fs:[00000000],ecx
	pop	ecx
	pop	edi
	pop	esi
	pop	ebx
	add	esp,000000D8
	cmp	ebp,esp
	call	00411488
	mov	esp,ebp
	pop	ebp
	ret
0041728B                                  CC CC CC CC CC            .....
00417290 CC CC CC CC CC CC CC CC CC CC CC CC CC CC CC CC ................
004172A0 CC CC CC CC CC CC CC CC CC CC CC CC CC CC CC CC ................

;; fn004172B0: 004172B0
;;   Called from:
;;     00411424 (in fn00411424)
fn004172B0 proc
	push	ebp
	mov	ebp,esp
	push	FF
	push	00421850
	mov	eax,fs:[00000000]
	push	eax
	sub	esp,000000CC
	push	ebx
	push	esi
	push	edi
	push	ecx
	lea	edi,[ebp-000000D8]
	mov	ecx,00000033
	mov	eax,CCCCCCCC

l004172DB:
	rep stosd

l004172DD:
	pop	ecx
	mov	eax,[00429014]
	xor	eax,ebp
	push	eax
	lea	eax,[ebp-0C]
	mov	fs:[00000000],eax
	mov	[ebp-14],ecx
	mov	ecx,0042C02B
	call	00411460
	mov	ecx,[ebp-0C]
	mov	fs:[00000000],ecx
	pop	ecx
	pop	edi
	pop	esi
	pop	ebx
	add	esp,000000D8
	cmp	ebp,esp
	call	00411488
	mov	esp,ebp
	pop	ebp
	ret
0041731B                                  CC CC CC CC CC            .....
00417320 CC CC CC CC CC CC CC CC CC CC CC CC CC CC CC CC ................
00417330 CC CC CC CC CC CC CC CC CC CC CC CC CC CC CC CC ................

l00417340:
	push	ebp
	mov	ebp,esp
	push	FF
	push	00421880
	mov	eax,fs:[00000000]
	push	eax
	sub	esp,000000D4
	push	ebx
	push	esi
	push	edi
	push	ecx
	lea	edi,[ebp-000000E0]
	mov	ecx,00000035
	mov	eax,CCCCCCCC

l0041736B:
	rep stosd

l0041736D:
	pop	ecx
	mov	eax,[00429014]
	xor	eax,ebp
	push	eax
	lea	eax,[ebp-0C]
	mov	fs:[00000000],eax
	mov	[ebp-14],ecx
	mov	ecx,0042C02C
	call	00411460
	mov	eax,[ebp-14]
	mov	ecx,[eax]
	mov	[ebp-000000DC],ecx
	mov	edx,[ebp-000000DC]
	mov	eax,[edx]
	mov	ecx,[ebp-000000DC]
	add	ecx,[eax+04]
	mov	esi,esp
	call	dword ptr [0042A0B8]
	cmp	esi,esp
	call	00411488
	test	eax,eax
	jz	00417408

l004173BB:
	mov	eax,[ebp-14]
	mov	ecx,[eax]
	mov	[ebp-000000DC],ecx
	mov	edx,[ebp-000000DC]
	mov	eax,[edx]
	mov	ecx,[ebp-000000DC]
	add	ecx,[eax+04]
	mov	esi,esp
	call	dword ptr [0042A0B8]
	cmp	esi,esp
	call	00411488
	mov	[ebp-000000E0],eax
	mov	ecx,[ebp-000000E0]
	mov	edx,[ecx]
	mov	esi,esp
	mov	ecx,[ebp-000000E0]
	mov	eax,[edx+08]
	call	eax
	cmp	esi,esp
	call	00411488

l00417408:
	mov	ecx,[ebp-0C]
	mov	fs:[00000000],ecx
	pop	ecx
	pop	edi
	pop	esi
	pop	ebx
	add	esp,000000E0
	cmp	ebp,esp
	call	00411488
	mov	esp,ebp
	pop	ebp
	ret
00417427                      CC CC CC CC CC CC CC CC CC        .........
00417430 CC CC CC CC CC CC CC CC CC CC CC CC CC CC CC CC ................
00417440 CC CC CC CC CC CC CC CC CC CC CC CC CC CC CC CC ................
00417450 CC CC CC CC CC CC CC CC CC CC CC CC CC CC CC CC ................

l00417460:
	push	ebp
	mov	ebp,esp
	push	FF
	push	004218B0
	mov	eax,fs:[00000000]
	push	eax
	sub	esp,000000D4
	push	ebx
	push	esi
	push	edi
	push	ecx
	lea	edi,[ebp-000000E0]
	mov	ecx,00000035
	mov	eax,CCCCCCCC

l0041748B:
	rep stosd

l0041748D:
	pop	ecx
	mov	eax,[00429014]
	xor	eax,ebp
	push	eax
	lea	eax,[ebp-0C]
	mov	fs:[00000000],eax
	mov	[ebp-14],ecx
	mov	ecx,0042C02D
	call	00411460
	mov	eax,[ebp-14]
	mov	ecx,[eax]
	mov	[ebp-000000DC],ecx
	mov	edx,[ebp-000000DC]
	mov	eax,[edx]
	mov	ecx,[ebp-000000DC]
	add	ecx,[eax+04]
	mov	esi,esp
	call	dword ptr [0042A0B8]
	cmp	esi,esp
	call	00411488
	test	eax,eax
	jz	00417528

l004174DB:
	mov	eax,[ebp-14]
	mov	ecx,[eax]
	mov	[ebp-000000DC],ecx
	mov	edx,[ebp-000000DC]
	mov	eax,[edx]
	mov	ecx,[ebp-000000DC]
	add	ecx,[eax+04]
	mov	esi,esp
	call	dword ptr [0042A0B8]
	cmp	esi,esp
	call	00411488
	mov	[ebp-000000E0],eax
	mov	ecx,[ebp-000000E0]
	mov	edx,[ecx]
	mov	esi,esp
	mov	ecx,[ebp-000000E0]
	mov	eax,[edx+08]
	call	eax
	cmp	esi,esp
	call	00411488

l00417528:
	mov	ecx,[ebp-0C]
	mov	fs:[00000000],ecx
	pop	ecx
	pop	edi
	pop	esi
	pop	ebx
	add	esp,000000E0
	cmp	ebp,esp
	call	00411488
	mov	esp,ebp
	pop	ebp
	ret
00417547                      CC CC CC CC CC CC CC CC CC        .........
00417550 CC CC CC CC CC CC CC CC CC CC CC CC CC CC CC CC ................
00417560 CC CC CC CC CC CC CC CC CC CC CC CC CC CC CC CC ................
00417570 CC CC CC CC CC CC CC CC CC CC CC CC CC CC CC CC ................

l00417580:
	push	ebp
	mov	ebp,esp
	sub	esp,000000CC
	push	ebx
	push	esi
	push	edi
	push	ecx
	lea	edi,[ebp-000000CC]
	mov	ecx,00000033
	mov	eax,CCCCCCCC

l0041759D:
	rep stosd

l0041759F:
	pop	ecx
	mov	[ebp-08],ecx
	mov	ecx,[ebp-08]
	call	00411767
	pop	edi
	pop	esi
	pop	ebx
	add	esp,000000CC
	cmp	ebp,esp
	call	00411488
	mov	esp,ebp
	pop	ebp
	ret
004175BF                                              CC                .
004175C0 CC CC CC CC CC CC CC CC CC CC CC CC CC CC CC CC ................

l004175D0:
	push	ebp
	mov	ebp,esp
	push	FF
	push	004218E0
	mov	eax,fs:[00000000]
	push	eax
	sub	esp,000000CC
	push	ebx
	push	esi
	push	edi
	push	ecx
	lea	edi,[ebp-000000D8]
	mov	ecx,00000033
	mov	eax,CCCCCCCC

l004175FB:
	rep stosd

l004175FD:
	pop	ecx
	mov	eax,[00429014]
	xor	eax,ebp
	push	eax
	lea	eax,[ebp-0C]
	mov	fs:[00000000],eax
	mov	[ebp-14],ecx
	mov	ecx,0042C02D
	call	00411460
	call	00411064
	movzx	eax,al
	test	eax,eax
	jnz	0041763C

l00417628:
	mov	esi,esp
	mov	eax,[ebp-14]
	mov	ecx,[eax]
	call	dword ptr [0042A0AC]
	cmp	esi,esp
	call	00411488

l0041763C:
	mov	ecx,[ebp-14]
	call	00411096
	mov	ecx,[ebp-0C]
	mov	fs:[00000000],ecx
	pop	ecx
	pop	edi
	pop	esi
	pop	ebx
	add	esp,000000D8
	cmp	ebp,esp
	call	00411488
	mov	esp,ebp
	pop	ebp
	ret
00417663          CC CC CC CC CC CC CC CC CC CC CC CC CC    .............
00417670 CC CC CC CC CC CC CC CC CC CC CC CC CC CC CC CC ................
00417680 CC CC CC CC CC CC CC CC CC CC CC CC CC CC CC CC ................

l00417690:
	push	ebp
	mov	ebp,esp
	push	FF
	push	00421910
	mov	eax,fs:[00000000]
	push	eax
	sub	esp,000000C0
	push	ebx
	push	esi
	push	edi
	lea	edi,[ebp-000000CC]
	mov	ecx,00000030
	mov	eax,CCCCCCCC

l004176BA:
	rep stosd

l004176BC:
	mov	eax,[00429014]
	xor	eax,ebp
	push	eax
	lea	eax,[ebp-0C]
	mov	fs:[00000000],eax
	mov	ecx,0042C000
	call	00411460
	mov	eax,[ebp+0C]
	mov	ecx,[ebp-0C]
	mov	fs:[00000000],ecx
	pop	ecx
	pop	edi
	pop	esi
	pop	ebx
	add	esp,000000CC
	cmp	ebp,esp
	call	00411488
	mov	esp,ebp
	pop	ebp
	ret
004176F9                            CC CC CC CC CC CC CC          .......
00417700 CC CC CC CC CC CC CC CC CC CC CC CC CC CC CC CC ................
00417710 CC CC CC CC CC CC CC CC CC CC CC CC CC CC CC CC ................

l00417720:
	push	ebp
	mov	ebp,esp
	push	FF
	push	00421940
	mov	eax,fs:[00000000]
	push	eax
	sub	esp,000000D8
	push	ebx
	push	esi
	push	edi
	push	ecx
	lea	edi,[ebp-000000E4]
	mov	ecx,00000036
	mov	eax,CCCCCCCC

l0041774B:
	rep stosd

l0041774D:
	pop	ecx
	mov	eax,[00429014]
	xor	eax,ebp
	push	eax
	lea	eax,[ebp-0C]
	mov	fs:[00000000],eax
	mov	[ebp-14],ecx
	mov	ecx,0042C02B
	call	00411460
	mov	eax,[ebp+08]
	push	eax
	call	00411609
	add	esp,04
	cmp	[ebp-14],eax
	jz	004177BB

l0041777D:
	mov	ecx,[ebp-14]
	call	0041132A
	mov	ecx,[ebp+08]
	call	00411483
	push	eax
	mov	ecx,[ebp-14]
	call	0041126C
	xor	eax,eax
	mov	[ebp-000000DD],al
	movzx	ecx,byte ptr [ebp-000000DD]
	push	ecx
	mov	edx,[ebp+08]
	push	edx
	call	004115F0
	add	esp,04
	push	eax
	mov	ecx,[ebp-14]
	call	004111B3

l004177BB:
	mov	eax,[ebp-14]
	mov	ecx,[ebp-0C]
	mov	fs:[00000000],ecx
	pop	ecx
	pop	edi
	pop	esi
	pop	ebx
	add	esp,000000E4
	cmp	ebp,esp
	call	00411488
	mov	esp,ebp
	pop	ebp
	ret	0004
004177DF                                              CC                .

l004177E0:
	push	ebp
	mov	ebp,esp
	sub	esp,000000E4
	push	ebx
	push	esi
	push	edi
	push	ecx
	lea	edi,[ebp-000000E4]
	mov	ecx,00000039
	mov	eax,CCCCCCCC

l004177FD:
	rep stosd

l004177FF:
	pop	ecx
	mov	[ebp-08],ecx
	mov	ecx,0042C02B
	call	00411460
	mov	ecx,[ebp-08]
	call	00411640
	mov	[ebp-14],eax
	mov	eax,[ebp-14]
	mov	dword ptr [eax+14],00000000
	mov	eax,[ebp-14]
	mov	dword ptr [eax+18],0000000F
	mov	byte ptr [ebp-000000DD],00
	lea	eax,[ebp-000000DD]
	push	eax
	mov	ecx,00000001
	imul	edx,ecx,00
	mov	eax,[ebp-14]
	lea	ecx,[eax+edx+04]
	push	ecx
	call	0041154B
	add	esp,08
	pop	edi
	pop	esi
	pop	ebx
	add	esp,000000E4
	cmp	ebp,esp
	call	00411488
	mov	esp,ebp
	pop	ebp
	ret
00417866                   CC CC CC CC CC CC CC CC CC CC       ..........
00417870 CC CC CC CC CC CC CC CC CC CC CC CC CC CC CC CC ................

l00417880:
	push	ebp
	mov	ebp,esp
	sub	esp,000000CC
	push	ebx
	push	esi
	push	edi
	push	ecx
	lea	edi,[ebp-000000CC]
	mov	ecx,00000033
	mov	eax,CCCCCCCC

l0041789D:
	rep stosd

l0041789F:
	pop	ecx
	mov	[ebp-08],ecx
	mov	ecx,0042C02B
	call	00411460
	mov	eax,[ebp+08]
	push	eax
	mov	ecx,[ebp-08]
	call	0041145B
	pop	edi
	pop	esi
	pop	ebx
	add	esp,000000CC
	cmp	ebp,esp
	call	00411488
	mov	esp,ebp
	pop	ebp
	ret	0004
004178CF                                              CC                .

l004178D0:
	push	ebp
	mov	ebp,esp
	sub	esp,000000EC
	push	ebx
	push	esi
	push	edi
	push	ecx
	lea	edi,[ebp-000000EC]
	mov	ecx,0000003B
	mov	eax,CCCCCCCC

l004178ED:
	rep stosd

l004178EF:
	pop	ecx
	mov	eax,[00429014]
	xor	eax,ebp
	mov	[ebp-04],eax
	mov	[ebp-0C],ecx
	mov	ecx,0042C02B
	call	00411460
	mov	ecx,[ebp-0C]
	call	00411483
	push	eax
	lea	ecx,[ebp-15]
	call	00411555
	push	01
	lea	ecx,[ebp-15]
	call	00411438
	push	eax
	call	0041137F
	add	esp,04
	mov	esi,eax
	mov	ecx,[ebp-0C]
	call	00411758
	mov	[eax],esi
	lea	ecx,[ebp-000000E8]
	call	00411546
	push	eax
	mov	ecx,[ebp-0C]
	call	00411758
	mov	eax,[eax]
	push	eax
	lea	ecx,[ebp-15]
	push	ecx
	call	0041174E
	add	esp,0C
	mov	ecx,[ebp-0C]
	call	00411640
	push	eax
	call	00411631
	add	esp,04
	mov	esi,eax
	mov	ecx,[ebp-0C]
	call	00411758
	mov	eax,[eax]
	mov	[eax],esi
	push	edx
	mov	ecx,ebp
	push	eax
	lea	edx,[004179A8]
	call	004114D3
	pop	eax
	pop	edx
	pop	edi
	pop	esi
	pop	ebx
	mov	ecx,[ebp-04]
	xor	ecx,ebp
	call	004113E3
	add	esp,000000EC
	cmp	ebp,esp
	call	00411488
	mov	esp,ebp
	pop	ebp
	ret
004179A8                         01 00 00 00 B0 79 41 00         .....yA.
004179B0 EB FF FF FF 01 00 00 00 BC 79 41 00 5F 50 72 6F .........yA._Pro
004179C0 78 79 5F 61 6C 6C 6F 63 61 74 6F 72 00 CC CC CC xy_allocator....
004179D0 CC CC CC CC CC CC CC CC CC CC CC CC CC CC CC CC ................

l004179E0:
	push	ebp
	mov	ebp,esp
	sub	esp,000000CC
	push	ebx
	push	esi
	push	edi
	push	ecx
	lea	edi,[ebp-000000CC]
	mov	ecx,00000033
	mov	eax,CCCCCCCC

l004179FD:
	rep stosd

l004179FF:
	pop	ecx
	mov	[ebp-08],ecx
	mov	ecx,0042C02C
	call	00411460
	mov	eax,[ebp-08]
	mov	al,[eax+04]
	pop	edi
	pop	esi
	pop	ebx
	add	esp,000000CC
	cmp	ebp,esp
	call	00411488
	mov	esp,ebp
	pop	ebp
	ret
00417A27                      CC CC CC CC CC CC CC CC CC        .........
00417A30 CC CC CC CC CC CC CC CC CC CC CC CC CC CC CC CC ................

l00417A40:
	push	ebp
	mov	ebp,esp
	sub	esp,000000CC
	push	ebx
	push	esi
	push	edi
	push	ecx
	lea	edi,[ebp-000000CC]
	mov	ecx,00000033
	mov	eax,CCCCCCCC

l00417A5D:
	rep stosd

l00417A5F:
	pop	ecx
	mov	[ebp-08],ecx
	mov	ecx,0042C02D
	call	00411460
	mov	eax,[ebp-08]
	mov	al,[eax+04]
	pop	edi
	pop	esi
	pop	ebx
	add	esp,000000CC
	cmp	ebp,esp
	call	00411488
	mov	esp,ebp
	pop	ebp
	ret
00417A87                      CC CC CC CC CC CC CC CC CC        .........

l00417A90:
	push	ebp
	mov	ebp,esp
	sub	esp,000000DC
	push	ebx
	push	esi
	push	edi
	push	ecx
	lea	edi,[ebp-000000DC]
	mov	ecx,00000037
	mov	eax,CCCCCCCC

l00417AAD:
	rep stosd

l00417AAF:
	pop	ecx
	mov	[ebp-08],ecx
	mov	ecx,0042C02B
	call	00411460
	mov	eax,00000001
	test	eax,eax
	jz	00417AEB

l00417AC6:
	mov	ecx,[ebp+08]
	push	ecx
	mov	ecx,[ebp-08]
	call	00411483
	push	eax
	call	0041135C
	add	esp,08
	movzx	edx,al
	test	edx,edx
	jz	00417AEB

l00417AE2:
	mov	byte ptr [ebp-000000D9],01
	jmp	00417AF2

l00417AEB:
	mov	byte ptr [ebp-000000D9],00

l00417AF2:
	mov	al,[ebp-000000D9]
	mov	[ebp-11],al
	movzx	eax,byte ptr [ebp-11]
	test	eax,eax
	jz	00417B0B

l00417B03:
	mov	ecx,[ebp-08]
	call	00411442

l00417B0B:
	mov	eax,[ebp+08]
	push	eax
	mov	ecx,[ebp-08]
	call	00411483
	push	eax
	call	0041122B
	add	esp,08
	movzx	eax,byte ptr [ebp-11]
	test	eax,eax
	jz	00417B30

l00417B28:
	mov	ecx,[ebp-08]
	call	004113D4

l00417B30:
	pop	edi
	pop	esi
	pop	ebx
	add	esp,000000DC
	cmp	ebp,esp
	call	00411488
	mov	esp,ebp
	pop	ebp
	ret	0004
00417B46                   CC CC CC CC CC CC CC CC CC CC       ..........
00417B50 CC CC CC CC CC CC CC CC CC CC CC CC CC CC CC CC ................

l00417B60:
	push	ebp
	mov	ebp,esp
	sub	esp,000000CC
	push	ebx
	push	esi
	push	edi
	push	ecx
	lea	edi,[ebp-000000CC]
	mov	ecx,00000033
	mov	eax,CCCCCCCC

l00417B7D:
	rep stosd

l00417B7F:
	pop	ecx
	mov	[ebp-08],ecx
	mov	ecx,0042C02B
	call	00411460
	mov	eax,[ebp+10]
	add	eax,01
	push	eax
	mov	ecx,[ebp+0C]
	push	ecx
	mov	edx,[ebp+08]
	push	edx
	call	00411302
	add	esp,0C
	pop	edi
	pop	esi
	pop	ebx
	add	esp,000000CC
	cmp	ebp,esp
	call	00411488
	mov	esp,ebp
	pop	ebp
	ret	000C
00417BBA                               CC CC CC CC CC CC           ......
00417BC0 CC CC CC CC CC CC CC CC CC CC CC CC CC CC CC CC ................
00417BD0 CC CC CC CC CC CC CC CC CC CC CC CC CC CC CC CC ................
00417BE0 CC CC CC CC CC CC CC CC CC CC CC CC CC CC CC CC ................
00417BF0 CC CC CC CC CC CC CC CC CC CC CC CC CC CC CC CC ................

l00417C00:
	push	ebp
	mov	ebp,esp
	sub	esp,000000D8
	push	ebx
	push	esi
	push	edi
	push	ecx
	lea	edi,[ebp-000000D8]
	mov	ecx,00000036
	mov	eax,CCCCCCCC

l00417C1D:
	rep stosd

l00417C1F:
	pop	ecx
	mov	[ebp-08],ecx
	mov	ecx,0042C02B
	call	00411460
	mov	eax,[ebp+0C]
	push	eax
	mov	ecx,[ebp+10]
	push	ecx
	mov	edx,[ebp+08]
	push	edx
	call	00411302
	add	esp,0C
	mov	byte ptr [ebp-000000D1],00
	lea	eax,[ebp-000000D1]
	push	eax
	mov	ecx,[ebp+08]
	add	ecx,[ebp+0C]
	push	ecx
	call	0041154B
	add	esp,08
	pop	edi
	pop	esi
	pop	ebx
	add	esp,000000D8
	cmp	ebp,esp
	call	00411488
	mov	esp,ebp
	pop	ebp
	ret	000C
00417C74             CC CC CC CC CC CC CC CC CC CC CC CC     ............
00417C80 CC CC CC CC CC CC CC CC CC CC CC CC CC CC CC CC ................
00417C90 CC CC CC CC CC CC CC CC CC CC CC CC CC CC CC CC ................
00417CA0 CC CC CC CC CC CC CC CC CC CC CC CC CC CC CC CC ................
00417CB0 CC CC CC CC CC CC CC CC CC CC CC CC CC CC CC CC ................
00417CC0 CC CC CC CC CC CC CC CC CC CC CC CC CC CC CC CC ................
00417CD0 CC CC CC CC CC CC CC CC CC CC CC CC CC CC CC CC ................
00417CE0 CC CC CC CC CC CC CC CC CC CC CC CC CC CC CC CC ................
00417CF0 CC CC CC CC CC CC CC CC CC CC CC CC CC CC CC CC ................
00417D00 CC CC CC CC CC CC CC CC CC CC CC CC CC CC CC CC ................
00417D10 CC CC CC CC CC CC CC CC CC CC CC CC CC CC CC CC ................
00417D20 CC CC CC CC CC CC CC CC CC CC CC CC CC CC CC CC ................

l00417D30:
	push	ebp
	mov	ebp,esp
	sub	esp,000000CC
	push	ebx
	push	esi
	push	edi
	push	ecx
	lea	edi,[ebp-000000CC]
	mov	ecx,00000033
	mov	eax,CCCCCCCC

l00417D4D:
	rep stosd

l00417D4F:
	pop	ecx
	mov	[ebp-08],ecx
	mov	ecx,0042C02B
	call	00411460
	mov	eax,[ebp+08]
	push	eax
	mov	ecx,[ebp-08]
	call	0041141A
	pop	edi
	pop	esi
	pop	ebx
	add	esp,000000CC
	cmp	ebp,esp
	call	00411488
	mov	esp,ebp
	pop	ebp
	ret	0004
00417D7F                                              CC                .
00417D80 CC CC CC CC CC CC CC CC CC CC CC CC CC CC CC CC ................
00417D90 CC CC CC CC CC CC CC CC CC CC CC CC CC CC CC CC ................

l00417DA0:
	push	ebp
	mov	ebp,esp
	sub	esp,000000CC
	push	ebx
	push	esi
	push	edi
	push	ecx
	lea	edi,[ebp-000000CC]
	mov	ecx,00000033
	mov	eax,CCCCCCCC

l00417DBD:
	rep stosd

l00417DBF:
	pop	ecx
	mov	[ebp-08],ecx
	mov	ecx,0042C02B
	call	00411460
	movzx	eax,byte ptr [ebp+08]
	push	eax
	mov	ecx,[ebp-08]
	call	004112AD
	mov	eax,[ebp-08]
	pop	edi
	pop	esi
	pop	ebx
	add	esp,000000CC
	cmp	ebp,esp
	call	00411488
	mov	esp,ebp
	pop	ebp
	ret	0004
00417DF3          CC CC CC CC CC CC CC CC CC CC CC CC CC    .............

;; fn00417E00: 00417E00
;;   Called from:
;;     0041148D (in fn0041148D)
fn00417E00 proc
	push	ebp
	mov	ebp,esp
	sub	esp,000000F0
	push	ebx
	push	esi
	push	edi
	lea	edi,[ebp-000000F0]
	mov	ecx,0000003C
	mov	eax,CCCCCCCC

l00417E1C:
	rep stosd

l00417E1E:
	mov	ecx,0042C01A
	call	00411460
	mov	eax,[ebp+0C]
	mov	ecx,[eax]
	add	ecx,27
	mov	edx,[ebp+0C]
	mov	[edx],ecx
	mov	eax,[ebp+08]
	mov	ecx,[eax]
	mov	[ebp-08],ecx
	mov	eax,00000004
	imul	ecx,eax,FF
	mov	edx,[ebp-08]
	mov	eax,[edx+ecx]
	mov	[ebp-14],eax

l00417E4E:
	mov	eax,00000004
	imul	ecx,eax,FE
	mov	edx,[ebp-08]
	cmp	dword ptr [edx+ecx],FAFAFAFA
	jnz	00417E64

l00417E62:
	jmp	00417EC8

l00417E64:
	mov	esi,esp
	push	00425C40
	push	00425C54
	push	00
	mov	eax,[00429000]
	add	eax,08
	push	eax
	push	00425C88
	push	02
	call	dword ptr [0042A208]
	add	esp,18
	cmp	esi,esp
	call	00411488
	cmp	eax,01
	jnz	00417E98

l00417E97:
	int	03

l00417E98:
	mov	esi,esp
	push	00
	mov	eax,[00429000]
	add	eax,08
	push	eax
	push	00425D08
	push	00425E08
	push	00425C58
	call	dword ptr [0042A20C]
	add	esp,14
	cmp	esi,esp
	call	00411488
	xor	eax,eax
	jnz	00417E64

l00417EC8:
	xor	eax,eax
	jnz	00417E4E

l00417ECC:
	mov	dword ptr [ebp-20],00000008
	mov	eax,[ebp+08]
	mov	ecx,[eax]
	sub	ecx,[ebp-14]
	mov	[ebp-2C],ecx

l00417EDE:
	cmp	dword ptr [ebp-2C],08
	jc	00417EEC

l00417EE4:
	cmp	dword ptr [ebp-2C],27
	ja	00417EEC

l00417EEA:
	jmp	00417F50

l00417EEC:
	mov	esi,esp
	push	00425C40
	push	00425C54
	push	00
	mov	eax,[00429000]
	add	eax,12
	push	eax
	push	00425C88
	push	02
	call	dword ptr [0042A208]
	add	esp,18
	cmp	esi,esp
	call	00411488
	cmp	eax,01
	jnz	00417F20

l00417F1F:
	int	03

l00417F20:
	mov	esi,esp
	push	00
	mov	eax,[00429000]
	add	eax,12
	push	eax
	push	00425D08
	push	00425E08
	push	00425C58
	call	dword ptr [0042A20C]
	add	esp,14
	cmp	esi,esp
	call	00411488
	xor	eax,eax
	jnz	00417EEC

l00417F50:
	xor	eax,eax
	jnz	00417EDE

l00417F54:
	mov	eax,[ebp+08]
	mov	ecx,[ebp-14]
	mov	[eax],ecx
	pop	edi
	pop	esi
	pop	ebx
	add	esp,000000F0
	cmp	ebp,esp
	call	00411488
	mov	esp,ebp
	pop	ebp
	ret

;; fn00417F70: 00417F70
;;   Called from:
;;     0041105A (in fn0041105A)
fn00417F70 proc
	push	ebp
	mov	ebp,esp
	sub	esp,0000010C
	push	ebx
	push	esi
	push	edi
	push	ecx
	lea	edi,[ebp-0000010C]
	mov	ecx,00000043
	mov	eax,CCCCCCCC

l00417F8D:
	rep stosd

l00417F8F:
	pop	ecx
	mov	eax,[00429014]
	xor	eax,ebp
	mov	[ebp-04],eax
	mov	[ebp-0C],ecx
	mov	ecx,0042C02B
	call	00411460
	mov	ecx,[ebp-0C]
	call	004116B3
	mov	[ebp-18],eax
	mov	ecx,[ebp-0C]
	call	0041128F
	mov	[ebp-24],eax
	mov	eax,[ebp+08]
	or	eax,0F
	mov	[ebp-30],eax
	mov	eax,[ebp-30]
	cmp	eax,[ebp-18]
	jbe	00417FD3

l00417FCE:
	mov	eax,[ebp-18]
	jmp	00418013

l00417FD3:
	mov	eax,[ebp-24]
	mov	ecx,[eax+18]
	mov	[ebp-3C],ecx
	mov	eax,[ebp-3C]
	shr	eax,01
	mov	ecx,[ebp-18]
	sub	ecx,eax
	cmp	[ebp-3C],ecx
	jbe	00417FF0

l00417FEB:
	mov	eax,[ebp-18]
	jmp	00418013

l00417FF0:
	mov	eax,[ebp-3C]
	shr	eax,01
	add	eax,[ebp-3C]
	mov	[ebp-00000108],eax
	lea	ecx,[ebp-00000108]
	push	ecx
	lea	edx,[ebp-30]
	push	edx
	call	00411659
	add	esp,08
	mov	eax,[eax]

l00418013:
	push	edx
	mov	ecx,ebp
	push	eax
	lea	edx,[00418044]
	call	004114D3
	pop	eax
	pop	edx
	pop	edi
	pop	esi
	pop	ebx
	mov	ecx,[ebp-04]
	xor	ecx,ebp
	call	004113E3
	add	esp,0000010C
	cmp	ebp,esp
	call	00411488
	mov	esp,ebp
	pop	ebp
	ret	0004
00418044             01 00 00 00 4C 80 41 00 D0 FF FF FF     ....L.A.....
00418050 04 00 00 00 58 80 41 00 5F 4D 61 73 6B 65 64 00 ....X.A._Masked.
00418060 CC CC CC CC CC CC CC CC CC CC CC CC CC CC CC CC ................
00418070 CC CC CC CC CC CC CC CC CC CC CC CC CC CC CC CC ................
00418080 CC CC CC CC CC CC CC CC CC CC CC CC CC CC CC CC ................
00418090 CC CC CC CC CC CC CC CC CC CC CC CC CC CC CC CC ................
004180A0 CC CC CC CC CC CC CC CC CC CC CC CC CC CC CC CC ................
004180B0 CC CC CC CC CC CC CC CC CC CC CC CC CC CC CC CC ................
004180C0 CC CC CC CC CC CC CC CC CC CC CC CC CC CC CC CC ................
004180D0 CC CC CC CC CC CC CC CC CC CC CC CC CC CC CC CC ................
004180E0 CC CC CC CC CC CC CC CC CC CC CC CC CC CC CC CC ................
004180F0 CC CC CC CC CC CC CC CC CC CC CC CC CC CC CC CC ................
00418100 CC CC CC CC CC CC CC CC CC CC CC CC CC CC CC CC ................

l00418110:
	push	ebp
	mov	ebp,esp
	sub	esp,000000C0
	push	ebx
	push	esi
	push	edi
	lea	edi,[ebp-000000C0]
	mov	ecx,00000030
	mov	eax,CCCCCCCC

l0041812C:
	rep stosd

l0041812E:
	mov	ecx,0042C01A
	call	00411460
	mov	eax,[ebp+08]
	push	eax
	call	004115C8
	add	esp,04
	pop	edi
	pop	esi
	pop	ebx
	add	esp,000000C0
	cmp	ebp,esp
	call	00411488
	mov	esp,ebp
	pop	ebp
	ret
00418158                         CC CC CC CC CC CC CC CC         ........
00418160 CC CC CC CC CC CC CC CC CC CC CC CC CC CC CC CC ................
00418170 CC CC CC CC CC CC CC CC CC CC CC CC CC CC CC CC ................
00418180 CC CC CC CC CC CC CC CC CC CC CC CC CC CC CC CC ................
00418190 CC CC CC CC CC CC CC CC CC CC CC CC CC CC CC CC ................
004181A0 CC CC CC CC CC CC CC CC CC CC CC CC CC CC CC CC ................
004181B0 CC CC CC CC CC CC CC CC CC CC CC CC CC CC CC CC ................
004181C0 CC CC CC CC CC CC CC CC CC CC CC CC CC CC CC CC ................

l004181D0:
	push	ebp
	mov	ebp,esp
	push	FF
	push	00421970
	mov	eax,fs:[00000000]
	push	eax
	sub	esp,000000D8
	push	ebx
	push	esi
	push	edi
	push	ecx
	lea	edi,[ebp-000000E4]
	mov	ecx,00000036
	mov	eax,CCCCCCCC

l004181FB:
	rep stosd

l004181FD:
	pop	ecx
	mov	eax,[00429014]
	xor	eax,ebp
	push	eax
	lea	eax,[ebp-0C]
	mov	fs:[00000000],eax
	mov	[ebp-14],ecx
	mov	ecx,0042C02B
	call	00411460
	xor	eax,eax
	mov	[ebp-000000DD],al
	movzx	ecx,byte ptr [ebp-000000DD]
	push	ecx
	mov	edx,[ebp+08]
	push	edx
	call	004115F0
	add	esp,04
	push	eax
	mov	ecx,[ebp-14]
	call	004111A4
	mov	ecx,[ebp-0C]
	mov	fs:[00000000],ecx
	pop	ecx
	pop	edi
	pop	esi
	pop	ebx
	add	esp,000000E4
	cmp	ebp,esp
	call	00411488
	mov	esp,ebp
	pop	ebp
	ret	0008
00418262       CC CC CC CC CC CC CC CC CC CC CC CC CC CC   ..............
00418270 CC CC CC CC CC CC CC CC CC CC CC CC CC CC CC CC ................
00418280 CC CC CC CC CC CC CC CC CC CC CC CC CC CC CC CC ................
00418290 CC CC CC CC CC CC CC CC CC CC CC CC CC CC CC CC ................
004182A0 CC CC CC CC CC CC CC CC CC CC CC CC CC CC CC CC ................
004182B0 CC CC CC CC CC CC CC CC CC CC CC CC CC CC CC CC ................
004182C0 CC CC CC CC CC CC CC CC CC CC CC CC CC CC CC CC ................
004182D0 CC CC CC CC CC CC CC CC CC CC CC CC CC CC CC CC ................
004182E0 CC CC CC CC CC CC CC CC CC CC CC CC CC CC CC CC ................

l004182F0:
	push	ebp
	mov	ebp,esp
	push	FF
	push	004219A0
	mov	eax,fs:[00000000]
	push	eax
	sub	esp,000000F0
	push	ebx
	push	esi
	push	edi
	push	ecx
	lea	edi,[ebp-000000FC]
	mov	ecx,0000003C
	mov	eax,CCCCCCCC

l0041831B:
	rep stosd

l0041831D:
	pop	ecx
	mov	eax,[00429014]
	xor	eax,ebp
	push	eax
	lea	eax,[ebp-0C]
	mov	fs:[00000000],eax
	mov	[ebp-14],ecx
	mov	ecx,0042C02B
	call	00411460
	mov	ecx,[ebp+08]
	call	00411640
	mov	[ebp-20],eax
	mov	ecx,[ebp-20]
	call	004115A5
	movzx	eax,al
	test	eax,eax
	jz	00418364

l00418356:
	mov	eax,[ebp+08]
	push	eax
	mov	ecx,[ebp-14]
	call	0041163B
	jmp	0041836C

l00418364:
	mov	ecx,[ebp+08]
	call	004115D7

l0041836C:
	mov	ecx,[ebp-14]
	call	00411640
	push	eax
	call	00411631
	add	esp,04
	add	eax,04
	mov	[ebp-2C],eax
	mov	eax,[ebp-20]
	push	eax
	call	00411631
	add	esp,04
	add	eax,04
	mov	[ebp-38],eax
	push	18
	mov	eax,[ebp-38]
	push	eax
	mov	ecx,[ebp-2C]
	push	ecx
	call	00411523
	add	esp,0C
	mov	ecx,[ebp+08]
	call	004112F8
	mov	ecx,[ebp-0C]
	mov	fs:[00000000],ecx
	pop	ecx
	pop	edi
	pop	esi
	pop	ebx
	add	esp,000000FC
	cmp	ebp,esp
	call	00411488
	mov	esp,ebp
	pop	ebp
	ret	0008
004183D0 CC CC CC CC CC CC CC CC CC CC CC CC CC CC CC CC ................
004183E0 CC CC CC CC CC CC CC CC CC CC CC CC CC CC CC CC ................

l004183F0:
	push	ebp
	mov	ebp,esp
	sub	esp,000000F0
	push	ebx
	push	esi
	push	edi
	push	ecx
	lea	edi,[ebp-000000F0]
	mov	ecx,0000003C
	mov	eax,CCCCCCCC

l0041840D:
	rep stosd

l0041840F:
	pop	ecx
	mov	[ebp-08],ecx
	mov	ecx,0042C02B
	call	00411460
	mov	ecx,[ebp-08]
	call	00411640
	mov	[ebp-14],eax
	mov	ecx,[ebp-14]
	call	00411479
	mov	eax,[ebp-14]
	mov	ecx,[eax+04]
	mov	[ebp-20],ecx
	mov	ecx,[ebp-08]
	call	00411483
	mov	[ebp-2C],eax
	mov	eax,[ebp-14]
	add	eax,04
	push	eax
	call	004113D9
	add	esp,04
	push	eax
	mov	ecx,[ebp-2C]
	push	ecx
	call	004110AF
	add	esp,08
	mov	eax,[ebp-14]
	mov	ecx,[eax+14]
	add	ecx,01
	push	ecx
	mov	edx,[ebp-20]
	push	edx
	call	004115F5
	add	esp,04
	push	eax
	mov	eax,[ebp-14]
	add	eax,04
	push	eax
	call	00411302
	add	esp,0C
	mov	eax,[ebp-14]
	mov	ecx,[eax+18]
	add	ecx,01
	push	ecx
	mov	edx,[ebp-20]
	push	edx
	mov	ecx,[ebp-2C]
	call	00411695
	mov	eax,[ebp-14]
	mov	dword ptr [eax+18],0000000F
	pop	edi
	pop	esi
	pop	ebx
	add	esp,000000F0
	cmp	ebp,esp
	call	00411488
	mov	esp,ebp
	pop	ebp
	ret
004184BA                               CC CC CC CC CC CC           ......

l004184C0:
	push	ebp
	mov	ebp,esp
	sub	esp,000000FC
	push	ebx
	push	esi
	push	edi
	push	ecx
	lea	edi,[ebp-000000FC]
	mov	ecx,0000003F
	mov	eax,CCCCCCCC

l004184DD:
	rep stosd

l004184DF:
	pop	ecx
	mov	[ebp-08],ecx
	mov	ecx,0042C02B
	call	00411460
	mov	ecx,[ebp-08]
	call	00411640
	mov	[ebp-14],eax
	mov	eax,[ebp-14]
	mov	ecx,[ebp+0C]
	cmp	ecx,[eax+18]
	ja	0041854D

l00418503:
	mov	ecx,[ebp-14]
	call	0041123A
	mov	[ebp-20],eax
	mov	eax,[ebp-14]
	mov	ecx,[ebp+0C]
	mov	[eax+14],ecx
	mov	eax,[ebp+0C]
	push	eax
	mov	ecx,[ebp+08]
	push	ecx
	mov	edx,[ebp-20]
	push	edx
	call	00411087
	add	esp,0C
	mov	byte ptr [ebp-000000E9],00
	lea	eax,[ebp-000000E9]
	push	eax
	mov	ecx,[ebp-20]
	add	ecx,[ebp+0C]
	push	ecx
	call	0041154B
	add	esp,08
	mov	eax,[ebp-08]
	jmp	0041856D

l0041854D:
	xor	eax,eax
	mov	[ebp-000000F5],al
	mov	ecx,[ebp+08]
	push	ecx
	movzx	edx,byte ptr [ebp-000000F5]
	push	edx
	mov	eax,[ebp+0C]
	push	eax
	mov	ecx,[ebp-08]
	call	0041141F

l0041856D:
	pop	edi
	pop	esi
	pop	ebx
	add	esp,000000FC
	cmp	ebp,esp
	call	00411488
	mov	esp,ebp
	pop	ebp
	ret	0008
00418583          CC CC CC CC CC CC CC CC CC CC CC CC CC    .............

l00418590:
	push	ebp
	mov	ebp,esp
	sub	esp,000000CC
	push	ebx
	push	esi
	push	edi
	push	ecx
	lea	edi,[ebp-000000CC]
	mov	ecx,00000033
	mov	eax,CCCCCCCC

l004185AD:
	rep stosd

l004185AF:
	pop	ecx
	mov	[ebp-08],ecx
	mov	ecx,0042C02B
	call	00411460
	mov	eax,[ebp-08]
	mov	ecx,[eax+14]
	cmp	ecx,[ebp+08]
	jnc	004185CD

l004185C8:
	call	00411316

l004185CD:
	pop	edi
	pop	esi
	pop	ebx
	add	esp,000000CC
	cmp	ebp,esp
	call	00411488
	mov	esp,ebp
	pop	ebp
	ret	0004
004185E3          CC CC CC CC CC CC CC CC CC CC CC CC CC    .............

l004185F0:
	push	ebp
	mov	ebp,esp
	sub	esp,0000013C
	push	ebx
	push	esi
	push	edi
	push	ecx
	lea	edi,[ebp-0000013C]
	mov	ecx,0000004F
	mov	eax,CCCCCCCC

l0041860D:
	rep stosd

l0041860F:
	pop	ecx
	mov	eax,[00429014]
	xor	eax,ebp
	mov	[ebp-04],eax
	mov	[ebp-0C],ecx
	mov	ecx,0042C02B
	call	00411460
	mov	ecx,[ebp-0C]
	call	00411640
	mov	[ebp-18],eax
	mov	ecx,[ebp+08]
	call	0041128F
	mov	[ebp-24],eax
	mov	eax,[ebp-24]
	mov	ecx,[eax+14]
	mov	[ebp-30],ecx
	mov	ecx,[ebp-24]
	call	0041108C
	mov	[ebp-3C],eax
	cmp	dword ptr [ebp-30],10
	jnc	00418684

l00418657:
	push	10
	mov	eax,[ebp-3C]
	push	eax
	mov	ecx,[ebp-18]
	add	ecx,04
	push	ecx
	call	00411302
	add	esp,0C
	mov	eax,[ebp-18]
	mov	ecx,[ebp-30]
	mov	[eax+14],ecx
	mov	eax,[ebp-18]
	mov	dword ptr [eax+18],0000000F
	jmp	00418728

l00418684:
	mov	ecx,[ebp-0C]
	call	00411483
	mov	[ebp-48],eax
	mov	ecx,[ebp-0C]
	call	004116B3
	mov	[ebp-0000012C],eax
	mov	eax,[ebp-30]
	or	eax,0F
	mov	[ebp-00000138],eax
	lea	ecx,[ebp-0000012C]
	push	ecx
	lea	edx,[ebp-00000138]
	push	edx
	call	004116F9
	add	esp,08
	mov	eax,[eax]
	mov	[ebp-54],eax
	mov	eax,[ebp-54]
	add	eax,01
	push	eax
	mov	ecx,[ebp-48]
	call	004112D5
	mov	[ebp-60],eax
	lea	eax,[ebp-60]
	push	eax
	mov	ecx,[ebp-18]
	add	ecx,04
	push	ecx
	call	004113D9
	add	esp,04
	push	eax
	mov	edx,[ebp-48]
	push	edx
	call	004114DD
	add	esp,0C
	mov	eax,[ebp-30]
	add	eax,01
	push	eax
	mov	ecx,[ebp-3C]
	push	ecx
	mov	edx,[ebp-60]
	push	edx
	call	004115F5
	add	esp,04
	push	eax
	call	00411302
	add	esp,0C
	mov	eax,[ebp-18]
	mov	ecx,[ebp-30]
	mov	[eax+14],ecx
	mov	eax,[ebp-18]
	mov	ecx,[ebp-54]
	mov	[eax+18],ecx

l00418728:
	push	edx
	mov	ecx,ebp
	push	eax
	lea	edx,[0041875C]
	call	004114D3
	pop	eax
	pop	edx
	pop	edi
	pop	esi
	pop	ebx
	mov	ecx,[ebp-04]
	xor	ecx,ebp
	call	004113E3
	add	esp,0000013C
	cmp	ebp,esp
	call	00411488
	mov	esp,ebp
	pop	ebp
	ret	0004
00418759                            0F 1F 00 01 00 00 00          .......
00418760 64 87 41 00 A0 FF FF FF 04 00 00 00 70 87 41 00 d.A.........p.A.
00418770 5F 4E 65 77 5F 61 72 72 61 79 00 CC CC CC CC CC _New_array......
00418780 CC CC CC CC CC CC CC CC CC CC CC CC CC CC CC CC ................
00418790 CC CC CC CC CC CC CC CC CC CC CC CC CC CC CC CC ................
004187A0 CC CC CC CC CC CC CC CC CC CC CC CC CC CC CC CC ................
004187B0 CC CC CC CC CC CC CC CC CC CC CC CC CC CC CC CC ................
004187C0 CC CC CC CC CC CC CC CC CC CC CC CC CC CC CC CC ................
004187D0 CC CC CC CC CC CC CC CC CC CC CC CC CC CC CC CC ................
004187E0 CC CC CC CC CC CC CC CC CC CC CC CC CC CC CC CC ................
004187F0 CC CC CC CC CC CC CC CC CC CC CC CC CC CC CC CC ................
00418800 CC CC CC CC CC CC CC CC CC CC CC CC CC CC CC CC ................
00418810 CC CC CC CC CC CC CC CC CC CC CC CC CC CC CC CC ................

l00418820:
	push	ebp
	mov	ebp,esp
	sub	esp,000000E4
	push	ebx
	push	esi
	push	edi
	push	ecx
	lea	edi,[ebp-000000E4]
	mov	ecx,00000039
	mov	eax,CCCCCCCC

l0041883D:
	rep stosd

l0041883F:
	pop	ecx
	mov	[ebp-08],ecx
	mov	ecx,0042C02B
	call	00411460
	mov	ecx,[ebp-08]
	call	00411640
	mov	[ebp-14],eax
	mov	byte ptr [ebp-000000DD],00
	mov	eax,[ebp-14]
	mov	ecx,[ebp+08]
	mov	[eax+14],ecx
	lea	edx,[ebp-000000DD]
	push	edx
	mov	ecx,[ebp-14]
	call	0041123A
	add	eax,[ebp+08]
	push	eax
	call	0041154B
	add	esp,08
	pop	edi
	pop	esi
	pop	ebx
	add	esp,000000E4
	cmp	ebp,esp
	call	00411488
	mov	esp,ebp
	pop	ebp
	ret	0004
00418899                            CC CC CC CC CC CC CC          .......
004188A0 CC CC CC CC CC CC CC CC CC CC CC CC CC CC CC CC ................
004188B0 CC CC CC CC CC CC CC CC CC CC CC CC CC CC CC CC ................
004188C0 CC CC CC CC CC CC CC CC CC CC CC CC CC CC CC CC ................
004188D0 CC CC CC CC CC CC CC CC CC CC CC CC CC CC CC CC ................
004188E0 CC CC CC CC CC CC CC CC CC CC CC CC CC CC CC CC ................

l004188F0:
	push	ebp
	mov	ebp,esp
	push	FF
	push	004219D0
	mov	eax,fs:[00000000]
	push	eax
	sub	esp,000000D8
	push	ebx
	push	esi
	push	edi
	push	ecx
	lea	edi,[ebp-000000E4]
	mov	ecx,00000036
	mov	eax,CCCCCCCC

l0041891B:
	rep stosd

l0041891D:
	pop	ecx
	mov	eax,[00429014]
	xor	eax,ebp
	push	eax
	lea	eax,[ebp-0C]
	mov	fs:[00000000],eax
	mov	[ebp-14],ecx
	mov	ecx,0042C02B
	call	00411460
	mov	ecx,[ebp-14]
	call	0041128F
	mov	[ebp-20],eax
	mov	eax,[ebp+08]
	push	eax
	call	00411136
	add	esp,04
	push	eax
	mov	ecx,[ebp+08]
	push	ecx
	mov	edx,[ebp-20]
	mov	eax,[edx+14]
	push	eax
	mov	ecx,[ebp-20]
	call	0041108C
	push	eax
	call	00411677
	add	esp,10
	mov	ecx,[ebp-0C]
	mov	fs:[00000000],ecx
	pop	ecx
	pop	edi
	pop	esi
	pop	ebx
	add	esp,000000E4
	cmp	ebp,esp
	call	00411488
	mov	esp,ebp
	pop	ebp
	ret	0004
00418991    CC CC CC CC CC CC CC CC CC CC CC CC CC CC CC  ...............

l004189A0:
	push	ebp
	mov	ebp,esp
	sub	esp,000000DC
	push	ebx
	push	esi
	push	edi
	push	ecx
	lea	edi,[ebp-000000DC]
	mov	ecx,00000037
	mov	eax,CCCCCCCC

l004189BD:
	rep stosd

l004189BF:
	pop	ecx
	mov	eax,[00429014]
	xor	eax,ebp
	mov	[ebp-04],eax
	mov	[ebp-0C],ecx
	mov	ecx,0042C02B
	call	00411460
	mov	ecx,[ebp-0C]
	call	00411483
	push	eax
	lea	ecx,[ebp-15]
	call	00411555
	mov	ecx,[ebp-0C]
	call	004115D7
	mov	ecx,[ebp-0C]
	call	00411758
	mov	eax,[eax]
	push	eax
	lea	ecx,[ebp-15]
	push	ecx
	call	004115C3
	add	esp,08
	mov	ecx,[ebp-0C]
	call	00411758
	mov	eax,[eax]
	push	eax
	lea	ecx,[ebp-15]
	push	ecx
	call	0041134D
	add	esp,08
	mov	ecx,[ebp-0C]
	call	00411758
	mov	dword ptr [eax],00000000
	push	edx
	mov	ecx,ebp
	push	eax
	lea	edx,[00418A5C]
	call	004114D3
	pop	eax
	pop	edx
	pop	edi
	pop	esi
	pop	ebx
	mov	ecx,[ebp-04]
	xor	ecx,ebp
	call	004113E3
	add	esp,000000DC
	cmp	ebp,esp
	call	00411488
	mov	esp,ebp
	pop	ebp
	ret
00418A5B                                  90 01 00 00 00            .....
00418A60 64 8A 41 00 EB FF FF FF 01 00 00 00 70 8A 41 00 d.A.........p.A.
00418A70 5F 50 72 6F 78 79 5F 61 6C 6C 6F 63 61 74 6F 72 _Proxy_allocator
00418A80 00 CC CC CC CC CC CC CC CC CC CC CC CC CC CC CC ................
00418A90 CC CC CC CC CC CC CC CC CC CC CC CC CC CC CC CC ................

l00418AA0:
	push	ebp
	mov	ebp,esp
	push	FF
	push	00421A00
	mov	eax,fs:[00000000]
	push	eax
	sub	esp,000000CC
	push	ebx
	push	esi
	push	edi
	push	ecx
	lea	edi,[ebp-000000D8]
	mov	ecx,00000033
	mov	eax,CCCCCCCC

l00418ACB:
	rep stosd

l00418ACD:
	pop	ecx
	mov	eax,[00429014]
	xor	eax,ebp
	push	eax
	lea	eax,[ebp-0C]
	mov	fs:[00000000],eax
	mov	[ebp-14],ecx
	mov	ecx,0042C02B
	call	00411460
	mov	ecx,[ebp-14]
	call	00411131
	mov	ecx,[ebp-0C]
	mov	fs:[00000000],ecx
	pop	ecx
	pop	edi
	pop	esi
	pop	ebx
	add	esp,000000D8
	cmp	ebp,esp
	call	00411488
	mov	esp,ebp
	pop	ebp
	ret
00418B13          CC CC CC CC CC CC CC CC CC CC CC CC CC    .............
00418B20 CC CC CC CC CC CC CC CC CC CC CC CC CC CC CC CC ................

l00418B30:
	push	ebp
	mov	ebp,esp
	push	FF
	push	00421A30
	mov	eax,fs:[00000000]
	push	eax
	sub	esp,000000CC
	push	ebx
	push	esi
	push	edi
	push	ecx
	lea	edi,[ebp-000000D8]
	mov	ecx,00000033
	mov	eax,CCCCCCCC

l00418B5B:
	rep stosd

l00418B5D:
	pop	ecx
	mov	eax,[00429014]
	xor	eax,ebp
	push	eax
	lea	eax,[ebp-0C]
	mov	fs:[00000000],eax
	mov	[ebp-14],ecx
	mov	ecx,0042C02B
	call	00411460
	mov	ecx,[ebp-14]
	call	0041162C
	mov	ecx,[ebp-0C]
	mov	fs:[00000000],ecx
	pop	ecx
	pop	edi
	pop	esi
	pop	ebx
	add	esp,000000D8
	cmp	ebp,esp
	call	00411488
	mov	esp,ebp
	pop	ebp
	ret
00418BA3          CC CC CC CC CC CC CC CC CC CC CC CC CC    .............
00418BB0 CC CC CC CC CC CC CC CC CC CC CC CC CC CC CC CC ................

l00418BC0:
	push	ebp
	mov	ebp,esp
	push	FF
	push	00421A60
	mov	eax,fs:[00000000]
	push	eax
	sub	esp,000000CC
	push	ebx
	push	esi
	push	edi
	push	ecx
	lea	edi,[ebp-000000D8]
	mov	ecx,00000033
	mov	eax,CCCCCCCC

l00418BEB:
	rep stosd

l00418BED:
	pop	ecx
	mov	eax,[00429014]
	xor	eax,ebp
	push	eax
	lea	eax,[ebp-0C]
	mov	fs:[00000000],eax
	mov	[ebp-14],ecx
	mov	ecx,0042C018
	call	00411460
	mov	eax,[ebp-14]
	mov	ecx,[ebp-0C]
	mov	fs:[00000000],ecx
	pop	ecx
	pop	edi
	pop	esi
	pop	ebx
	add	esp,000000D8
	cmp	ebp,esp
	call	00411488
	mov	esp,ebp
	pop	ebp
	ret
00418C2E                                           CC CC               ..
00418C30 CC CC CC CC CC CC CC CC CC CC CC CC CC CC CC CC ................
00418C40 CC CC CC CC CC CC CC CC CC CC CC CC CC CC CC CC ................

l00418C50:
	push	ebp
	mov	ebp,esp
	push	FF
	push	00421A90
	mov	eax,fs:[00000000]
	push	eax
	sub	esp,000000CC
	push	ebx
	push	esi
	push	edi
	push	ecx
	lea	edi,[ebp-000000D8]
	mov	ecx,00000033
	mov	eax,CCCCCCCC

l00418C7B:
	rep stosd

l00418C7D:
	pop	ecx
	mov	eax,[00429014]
	xor	eax,ebp
	push	eax
	lea	eax,[ebp-0C]
	mov	fs:[00000000],eax
	mov	[ebp-14],ecx
	mov	ecx,0042C018
	call	00411460
	mov	eax,[ebp-14]
	mov	ecx,[ebp-0C]
	mov	fs:[00000000],ecx
	pop	ecx
	pop	edi
	pop	esi
	pop	ebx
	add	esp,000000D8
	cmp	ebp,esp
	call	00411488
	mov	esp,ebp
	pop	ebp
	ret
00418CBE                                           CC CC               ..
00418CC0 CC CC CC CC CC CC CC CC CC CC CC CC CC CC CC CC ................
00418CD0 CC CC CC CC CC CC CC CC CC CC CC CC CC CC CC CC ................

l00418CE0:
	push	ebp
	mov	ebp,esp
	push	FF
	push	00421AC0
	mov	eax,fs:[00000000]
	push	eax
	sub	esp,000000CC
	push	ebx
	push	esi
	push	edi
	push	ecx
	lea	edi,[ebp-000000D8]
	mov	ecx,00000033
	mov	eax,CCCCCCCC

l00418D0B:
	rep stosd

l00418D0D:
	pop	ecx
	mov	eax,[00429014]
	xor	eax,ebp
	push	eax
	lea	eax,[ebp-0C]
	mov	fs:[00000000],eax
	mov	[ebp-14],ecx
	mov	ecx,0042C018
	call	00411460
	mov	eax,[ebp-14]
	mov	ecx,[ebp-0C]
	mov	fs:[00000000],ecx
	pop	ecx
	pop	edi
	pop	esi
	pop	ebx
	add	esp,000000D8
	cmp	ebp,esp
	call	00411488
	mov	esp,ebp
	pop	ebp
	ret
00418D4E                                           CC CC               ..
00418D50 CC CC CC CC CC CC CC CC CC CC CC CC CC CC CC CC ................
00418D60 CC CC CC CC CC CC CC CC CC CC CC CC CC CC CC CC ................

l00418D70:
	push	ebp
	mov	ebp,esp
	push	FF
	push	00421AF0
	mov	eax,fs:[00000000]
	push	eax
	sub	esp,000000CC
	push	ebx
	push	esi
	push	edi
	push	ecx
	lea	edi,[ebp-000000D8]
	mov	ecx,00000033
	mov	eax,CCCCCCCC

l00418D9B:
	rep stosd

l00418D9D:
	pop	ecx
	mov	eax,[00429014]
	xor	eax,ebp
	push	eax
	lea	eax,[ebp-0C]
	mov	fs:[00000000],eax
	mov	[ebp-14],ecx
	mov	ecx,0042C018
	call	00411460
	mov	eax,[ebp-14]
	mov	ecx,[ebp-0C]
	mov	fs:[00000000],ecx
	pop	ecx
	pop	edi
	pop	esi
	pop	ebx
	add	esp,000000D8
	cmp	ebp,esp
	call	00411488
	mov	esp,ebp
	pop	ebp
	ret
00418DDE                                           CC CC               ..
00418DE0 CC CC CC CC CC CC CC CC CC CC CC CC CC CC CC CC ................
00418DF0 CC CC CC CC CC CC CC CC CC CC CC CC CC CC CC CC ................

l00418E00:
	push	ebp
	mov	ebp,esp
	push	FF
	push	00421B20
	mov	eax,fs:[00000000]
	push	eax
	sub	esp,000000CC
	push	ebx
	push	esi
	push	edi
	push	ecx
	lea	edi,[ebp-000000D8]
	mov	ecx,00000033
	mov	eax,CCCCCCCC

l00418E2B:
	rep stosd

l00418E2D:
	pop	ecx
	mov	eax,[00429014]
	xor	eax,ebp
	push	eax
	lea	eax,[ebp-0C]
	mov	fs:[00000000],eax
	mov	[ebp-14],ecx
	mov	ecx,0042C02B
	call	00411460
	mov	ecx,[ebp-14]
	call	004113AC
	mov	ecx,[ebp-0C]
	mov	fs:[00000000],ecx
	pop	ecx
	pop	edi
	pop	esi
	pop	ebx
	add	esp,000000D8
	cmp	ebp,esp
	call	00411488
	mov	esp,ebp
	pop	ebp
	ret
00418E73          CC CC CC CC CC CC CC CC CC CC CC CC CC    .............
00418E80 CC CC CC CC CC CC CC CC CC CC CC CC CC CC CC CC ................

l00418E90:
	push	ebp
	mov	ebp,esp
	push	FF
	push	00421B50
	mov	eax,fs:[00000000]
	push	eax
	sub	esp,000000CC
	push	ebx
	push	esi
	push	edi
	push	ecx
	lea	edi,[ebp-000000D8]
	mov	ecx,00000033
	mov	eax,CCCCCCCC

l00418EBB:
	rep stosd

l00418EBD:
	pop	ecx
	mov	eax,[00429014]
	xor	eax,ebp
	push	eax
	lea	eax,[ebp-0C]
	mov	fs:[00000000],eax
	mov	[ebp-14],ecx
	mov	ecx,0042C02B
	call	00411460
	mov	ecx,[ebp-14]
	call	004111E0
	mov	ecx,[ebp-0C]
	mov	fs:[00000000],ecx
	pop	ecx
	pop	edi
	pop	esi
	pop	ebx
	add	esp,000000D8
	cmp	ebp,esp
	call	00411488
	mov	esp,ebp
	pop	ebp
	ret
00418F03          CC CC CC CC CC CC CC CC CC CC CC CC CC    .............

l00418F10:
	push	ebp
	mov	ebp,esp
	sub	esp,000000D0
	push	ebx
	push	esi
	push	edi
	push	ecx
	lea	edi,[ebp-000000D0]
	mov	ecx,00000034
	mov	eax,CCCCCCCC

l00418F2D:
	rep stosd

l00418F2F:
	pop	ecx
	mov	[ebp-08],ecx
	mov	ecx,0042C02B
	call	00411460
	mov	eax,[ebp-08]
	cmp	dword ptr [eax+18],10
	jc	00418F52

l00418F46:
	mov	dword ptr [ebp-000000D0],00000001
	jmp	00418F5C

l00418F52:
	mov	dword ptr [ebp-000000D0],00000000

l00418F5C:
	mov	al,[ebp-000000D0]
	pop	edi
	pop	esi
	pop	ebx
	add	esp,000000D0
	cmp	ebp,esp
	call	00411488
	mov	esp,ebp
	pop	ebp
	ret
00418F76                   CC CC CC CC CC CC CC CC CC CC       ..........

l00418F80:
	push	ebp
	mov	ebp,esp
	push	FF
	push	00421BB0
	mov	eax,fs:[00000000]
	push	eax
	sub	esp,000000E8
	push	ebx
	push	esi
	push	edi
	push	ecx
	lea	edi,[ebp-000000F4]
	mov	ecx,0000003A
	mov	eax,CCCCCCCC

l00418FAB:
	rep stosd

l00418FAD:
	pop	ecx
	mov	eax,[00429014]
	xor	eax,ebp
	mov	[ebp-10],eax
	push	eax
	lea	eax,[ebp-0C]
	mov	fs:[00000000],eax
	mov	[ebp-18],ecx
	mov	ecx,0042C018
	call	00411460
	mov	eax,[ebp-18]
	cmp	dword ptr [eax],00
	jz	00419038

l00418FD7:
	mov	esi,esp
	push	03
	lea	ecx,[ebp-24]
	call	dword ptr [0042A0FC]
	cmp	esi,esp
	call	00411488
	mov	eax,[ebp-18]
	mov	ecx,[eax]
	add	ecx,04
	mov	[ebp-30],ecx
	jmp	00419005

l00418FF8:
	mov	eax,[ebp-30]
	mov	ecx,[eax]
	mov	edx,[ebp-30]
	mov	eax,[ecx+04]
	mov	[edx],eax

l00419005:
	mov	eax,[ebp-30]
	cmp	dword ptr [eax],00
	jz	0041901A

l0041900D:
	mov	eax,[ebp-30]
	mov	ecx,[eax]
	mov	dword ptr [ecx],00000000
	jmp	00418FF8

l0041901A:
	mov	eax,[ebp-18]
	mov	ecx,[eax]
	mov	dword ptr [ecx+04],00000000
	mov	esi,esp
	lea	ecx,[ebp-24]
	call	dword ptr [0042A0F4]
	cmp	esi,esp
	call	00411488

l00419038:
	push	edx
	mov	ecx,ebp
	push	eax
	lea	edx,[00419074]
	call	004114D3
	pop	eax
	pop	edx
	mov	ecx,[ebp-0C]
	mov	fs:[00000000],ecx
	pop	ecx
	pop	edi
	pop	esi
	pop	ebx
	mov	ecx,[ebp-10]
	xor	ecx,ebp
	call	004113E3
	add	esp,000000F4
	cmp	ebp,esp
	call	00411488
	mov	esp,ebp
	pop	ebp
	ret
00419072       66 90 01 00 00 00 7C 90 41 00 DC FF FF FF   f.....|.A.....
00419080 04 00 00 00 88 90 41 00 5F 4C 6F 63 6B 00 CC CC ......A._Lock...

l00419090:
	push	ebp
	mov	ebp,esp
	push	FF
	push	00421B80
	mov	eax,fs:[00000000]
	push	eax
	sub	esp,000000CC
	push	ebx
	push	esi
	push	edi
	push	ecx
	lea	edi,[ebp-000000D8]
	mov	ecx,00000033
	mov	eax,CCCCCCCC

l004190BB:
	rep stosd

l004190BD:
	pop	ecx
	mov	eax,[00429014]
	xor	eax,ebp
	push	eax
	lea	eax,[ebp-0C]
	mov	fs:[00000000],eax
	mov	[ebp-14],ecx
	mov	ecx,0042C02B
	call	00411460
	mov	ecx,[ebp-14]
	call	00411640
	mov	ecx,[ebp-0C]
	mov	fs:[00000000],ecx
	pop	ecx
	pop	edi
	pop	esi
	pop	ebx
	add	esp,000000D8
	cmp	ebp,esp
	call	00411488
	mov	esp,ebp
	pop	ebp
	ret
00419103          CC CC CC CC CC CC CC CC CC CC CC CC CC    .............
00419110 CC CC CC CC CC CC CC CC CC CC CC CC CC CC CC CC ................

l00419120:
	push	ebp
	mov	ebp,esp
	sub	esp,000000D8
	push	ebx
	push	esi
	push	edi
	push	ecx
	lea	edi,[ebp-000000D8]
	mov	ecx,00000036
	mov	eax,CCCCCCCC

l0041913D:
	rep stosd

l0041913F:
	pop	ecx
	mov	[ebp-08],ecx
	mov	ecx,0042C02B
	call	00411460
	mov	eax,[ebp-08]
	add	eax,04
	mov	[ebp-14],eax
	mov	ecx,[ebp-08]
	call	004115A5
	movzx	eax,al
	test	eax,eax
	jz	00419177

l00419165:
	mov	eax,[ebp-08]
	mov	ecx,[eax+04]
	push	ecx
	call	004115F5
	add	esp,04
	mov	[ebp-14],eax

l00419177:
	mov	eax,[ebp-14]
	pop	edi
	pop	esi
	pop	ebx
	add	esp,000000D8
	cmp	ebp,esp
	call	00411488
	mov	esp,ebp
	pop	ebp
	ret
0041918E                                           CC CC               ..
00419190 CC CC CC CC CC CC CC CC CC CC CC CC CC CC CC CC ................
004191A0 CC CC CC CC CC CC CC CC CC CC CC CC CC CC CC CC ................

l004191B0:
	push	ebp
	mov	ebp,esp
	sub	esp,000000D8
	push	ebx
	push	esi
	push	edi
	push	ecx
	lea	edi,[ebp-000000D8]
	mov	ecx,00000036
	mov	eax,CCCCCCCC

l004191CD:
	rep stosd

l004191CF:
	pop	ecx
	mov	[ebp-08],ecx
	mov	ecx,0042C02B
	call	00411460
	mov	eax,[ebp-08]
	add	eax,04
	mov	[ebp-14],eax
	mov	ecx,[ebp-08]
	call	004115A5
	movzx	eax,al
	test	eax,eax
	jz	00419207

l004191F5:
	mov	eax,[ebp-08]
	mov	ecx,[eax+04]
	push	ecx
	call	004115F5
	add	esp,04
	mov	[ebp-14],eax

l00419207:
	mov	eax,[ebp-14]
	pop	edi
	pop	esi
	pop	ebx
	add	esp,000000D8
	cmp	ebp,esp
	call	00411488
	mov	esp,ebp
	pop	ebp
	ret
0041921E                                           CC CC               ..

l00419220:
	push	ebp
	mov	ebp,esp
	sub	esp,000000CC
	push	ebx
	push	esi
	push	edi
	push	ecx
	lea	edi,[ebp-000000CC]
	mov	ecx,00000033
	mov	eax,CCCCCCCC

l0041923D:
	rep stosd

l0041923F:
	pop	ecx
	mov	[ebp-08],ecx
	mov	ecx,0042C02B
	call	00411460
	mov	ecx,[ebp-08]
	call	00411640
	mov	ecx,eax
	call	00411479
	pop	edi
	pop	esi
	pop	ebx
	add	esp,000000CC
	cmp	ebp,esp
	call	00411488
	mov	esp,ebp
	pop	ebp
	ret

l00419270:
	push	ebp
	mov	ebp,esp
	sub	esp,000000FC
	push	ebx
	push	esi
	push	edi
	push	ecx
	lea	edi,[ebp-000000FC]
	mov	ecx,0000003F
	mov	eax,CCCCCCCC

l0041928D:
	rep stosd

l0041928F:
	pop	ecx
	mov	[ebp-08],ecx
	mov	ecx,0042C02B
	call	00411460
	mov	ecx,[ebp-08]
	call	004115D7
	mov	ecx,[ebp-08]
	call	00411640
	mov	[ebp-14],eax
	mov	ecx,[ebp-14]
	call	004115A5
	movzx	eax,al
	test	eax,eax
	jz	00419305

l004192BF:
	mov	eax,[ebp-14]
	mov	ecx,[eax+04]
	mov	[ebp-20],ecx
	mov	ecx,[ebp-08]
	call	00411483
	mov	[ebp-2C],eax
	mov	eax,[ebp-14]
	add	eax,04
	push	eax
	call	004113D9
	add	esp,04
	push	eax
	mov	ecx,[ebp-2C]
	push	ecx
	call	004110AF
	add	esp,08
	mov	eax,[ebp-14]
	mov	ecx,[eax+18]
	add	ecx,01
	push	ecx
	mov	edx,[ebp-20]
	push	edx
	mov	ecx,[ebp-2C]
	call	00411695

l00419305:
	mov	eax,[ebp-14]
	mov	dword ptr [eax+14],00000000
	mov	eax,[ebp-14]
	mov	dword ptr [eax+18],0000000F
	mov	byte ptr [ebp-000000F5],00
	lea	eax,[ebp-000000F5]
	push	eax
	mov	ecx,00000001
	imul	edx,ecx,00
	mov	eax,[ebp-14]
	lea	ecx,[eax+edx+04]
	push	ecx
	call	0041154B
	add	esp,08
	pop	edi
	pop	esi
	pop	ebx
	add	esp,000000FC
	cmp	ebp,esp
	call	00411488
	mov	esp,ebp
	pop	ebp
	ret
00419353          CC CC CC CC CC CC CC CC CC CC CC CC CC    .............
00419360 CC CC CC CC CC CC CC CC CC CC CC CC CC CC CC CC ................
00419370 CC CC CC CC CC CC CC CC CC CC CC CC CC CC CC CC ................
00419380 CC CC CC CC CC CC CC CC CC CC CC CC CC CC CC CC ................
00419390 CC CC CC CC CC CC CC CC CC CC CC CC CC CC CC CC ................
004193A0 CC CC CC CC CC CC CC CC CC CC CC CC CC CC CC CC ................
004193B0 CC CC CC CC CC CC CC CC CC CC CC CC CC CC CC CC ................
004193C0 CC CC CC CC CC CC CC CC CC CC CC CC CC CC CC CC ................
004193D0 CC CC CC CC CC CC CC CC CC CC CC CC CC CC CC CC ................
004193E0 CC CC CC CC CC CC CC CC CC CC CC CC CC CC CC CC ................
004193F0 CC CC CC CC CC CC CC CC CC CC CC CC CC CC CC CC ................

l00419400:
	push	ebp
	mov	ebp,esp
	sub	esp,000000CC
	push	ebx
	push	esi
	push	edi
	push	ecx
	lea	edi,[ebp-000000CC]
	mov	ecx,00000033
	mov	eax,CCCCCCCC

l0041941D:
	rep stosd

l0041941F:
	pop	ecx
	mov	[ebp-08],ecx
	mov	ecx,0042C02B
	call	00411460
	mov	ecx,[ebp+08]
	call	00411640
	push	eax
	mov	ecx,[ebp-08]
	call	00411640
	mov	ecx,eax
	call	0041147E
	pop	edi
	pop	esi
	pop	ebx
	add	esp,000000CC
	cmp	ebp,esp
	call	00411488
	mov	esp,ebp
	pop	ebp
	ret	0004
0041945B                                  CC CC CC CC CC            .....

l00419460:
	push	ebp
	mov	ebp,esp
	sub	esp,00000108
	push	ebx
	push	esi
	push	edi
	push	ecx
	lea	edi,[ebp-00000108]
	mov	ecx,00000042
	mov	eax,CCCCCCCC

l0041947D:
	rep stosd

l0041947F:
	pop	ecx
	mov	[ebp-08],ecx
	mov	ecx,0042C02B
	call	00411460
	mov	ecx,[ebp-08]
	call	00411640
	mov	[ebp-14],eax
	mov	eax,[ebp-14]
	mov	ecx,[eax+14]
	mov	[ebp-20],ecx
	mov	eax,[ebp-14]
	mov	ecx,[eax+18]
	sub	ecx,[ebp-20]
	cmp	[ebp+0C],ecx
	ja	00419502

l004194AF:
	mov	eax,[ebp-20]
	add	eax,[ebp+0C]
	mov	ecx,[ebp-14]
	mov	[ecx+14],eax
	mov	ecx,[ebp-14]
	call	0041123A
	mov	[ebp-2C],eax
	mov	eax,[ebp+0C]
	push	eax
	mov	ecx,[ebp+08]
	push	ecx
	mov	edx,[ebp-2C]
	add	edx,[ebp-20]
	push	edx
	call	00411087
	add	esp,0C
	mov	byte ptr [ebp-000000F5],00
	lea	eax,[ebp-000000F5]
	push	eax
	mov	ecx,[ebp-20]
	add	ecx,[ebp+0C]
	add	ecx,[ebp-2C]
	push	ecx
	call	0041154B
	add	esp,08
	mov	eax,[ebp-08]
	jmp	00419526

l00419502:
	xor	eax,eax
	mov	[ebp-00000101],al
	mov	ecx,[ebp+0C]
	push	ecx
	mov	edx,[ebp+08]
	push	edx
	movzx	eax,byte ptr [ebp-00000101]
	push	eax
	mov	ecx,[ebp+0C]
	push	ecx
	mov	ecx,[ebp-08]
	call	00411190

l00419526:
	pop	edi
	pop	esi
	pop	ebx
	add	esp,00000108
	cmp	ebp,esp
	call	00411488
	mov	esp,ebp
	pop	ebp
	ret	0008
0041953C                                     CC CC CC CC             ....
00419540 CC CC CC CC CC CC CC CC CC CC CC CC CC CC CC CC ................

l00419550:
	push	ebp
	mov	ebp,esp
	push	FF
	push	00421BF0
	mov	eax,fs:[00000000]
	push	eax
	sub	esp,000000E8
	push	ebx
	push	esi
	push	edi
	push	ecx
	lea	edi,[ebp-000000F4]
	mov	ecx,0000003A
	mov	eax,CCCCCCCC

l0041957B:
	rep stosd

l0041957D:
	pop	ecx
	mov	eax,[00429014]
	xor	eax,ebp
	mov	[ebp-10],eax
	push	eax
	lea	eax,[ebp-0C]
	mov	fs:[00000000],eax
	mov	[ebp-18],ecx
	mov	ecx,0042C018
	call	00411460
	mov	esi,esp
	push	03
	lea	ecx,[ebp-24]
	call	dword ptr [0042A0FC]
	cmp	esi,esp
	call	00411488
	mov	eax,[ebp-18]
	mov	ecx,[eax]
	mov	[ebp-30],ecx
	mov	eax,[ebp-18]
	mov	ecx,[ebp+08]
	mov	edx,[ecx]
	mov	[eax],edx
	mov	eax,[ebp+08]
	mov	ecx,[ebp-30]
	mov	[eax],ecx
	mov	eax,[ebp-18]
	cmp	dword ptr [eax],00
	jz	004195DF

l004195D5:
	mov	eax,[ebp-18]
	mov	ecx,[eax]
	mov	edx,[ebp-18]
	mov	[ecx],edx

l004195DF:
	mov	eax,[ebp+08]
	cmp	dword ptr [eax],00
	jz	004195F1

l004195E7:
	mov	eax,[ebp+08]
	mov	ecx,[eax]
	mov	edx,[ebp+08]
	mov	[ecx],edx

l004195F1:
	mov	esi,esp
	lea	ecx,[ebp-24]
	call	dword ptr [0042A0F4]
	cmp	esi,esp
	call	00411488
	push	edx
	mov	ecx,ebp
	push	eax
	lea	edx,[00419640]
	call	004114D3
	pop	eax
	pop	edx
	mov	ecx,[ebp-0C]
	mov	fs:[00000000],ecx
	pop	ecx
	pop	edi
	pop	esi
	pop	ebx
	mov	ecx,[ebp-10]
	xor	ecx,ebp
	call	004113E3
	add	esp,000000F4
	cmp	ebp,esp
	call	00411488
	mov	esp,ebp
	pop	ebp
	ret	0004
0041963F                                              90                .
00419640 01 00 00 00 48 96 41 00 DC FF FF FF 04 00 00 00 ....H.A.........
00419650 54 96 41 00 5F 4C 6F 63 6B 00 CC CC CC CC CC CC T.A._Lock.......

l00419660:
	push	ebp
	mov	ebp,esp
	push	FF
	push	00421E80
	mov	eax,fs:[00000000]
	push	eax
	sub	esp,0000010C
	push	ebx
	push	esi
	push	edi
	push	ecx
	lea	edi,[ebp-00000118]
	mov	ecx,00000043
	mov	eax,CCCCCCCC

l0041968B:
	rep stosd

l0041968D:
	pop	ecx
	mov	eax,[00429014]
	xor	eax,ebp
	mov	[ebp-10],eax
	push	eax
	lea	eax,[ebp-0C]
	mov	fs:[00000000],eax
	mov	[ebp-18],ecx
	mov	ecx,0042C02B
	call	00411460
	mov	ecx,[ebp-18]
	call	004114E2
	push	eax
	call	004111CC
	add	esp,04
	mov	[ebp-24],eax
	mov	dword ptr [ebp-000000FC],00000010
	lea	eax,[ebp-000000FC]
	push	eax
	lea	ecx,[ebp-24]
	push	ecx
	call	00411659
	add	esp,08
	mov	edx,[eax]
	mov	[ebp-30],edx
	mov	eax,[ebp-30]
	sub	eax,01
	mov	[ebp-00000108],eax
	call	00411663
	mov	[ebp-00000114],eax
	lea	ecx,[ebp-00000108]
	push	ecx
	lea	edx,[ebp-00000114]
	push	edx
	call	004116F9
	add	esp,08
	mov	eax,[eax]
	push	edx
	mov	ecx,ebp
	push	eax
	lea	edx,[00419750]
	call	004114D3
	pop	eax
	pop	edx
	mov	ecx,[ebp-0C]
	mov	fs:[00000000],ecx
	pop	ecx
	pop	edi
	pop	esi
	pop	ebx
	mov	ecx,[ebp-10]
	xor	ecx,ebp
	call	004113E3
	add	esp,00000118
	cmp	ebp,esp
	call	00411488
	mov	esp,ebp
	pop	ebp
	ret
0041974E                                           66 90               f.
00419750 01 00 00 00 58 97 41 00 DC FF FF FF 04 00 00 00 ....X.A.........
00419760 64 97 41 00 5F 41 6C 6C 6F 63 5F 6D 61 78 00 CC d.A._Alloc_max..
00419770 CC CC CC CC CC CC CC CC CC CC CC CC CC CC CC CC ................

l00419780:
	push	ebp
	mov	ebp,esp
	sub	esp,000000C0
	push	ebx
	push	esi
	push	edi
	lea	edi,[ebp-000000C0]
	mov	ecx,00000030
	mov	eax,CCCCCCCC

l0041979C:
	rep stosd

l0041979E:
	mov	ecx,0042C02B
	call	00411460
	push	004264C0
	call	0041158C
	pop	edi
	pop	esi
	pop	ebx
	add	esp,000000C0
	cmp	ebp,esp
	call	00411488
	mov	esp,ebp
	pop	ebp
	ret
004197C6                   CC CC CC CC CC CC CC CC CC CC       ..........
004197D0 CC CC CC CC CC CC CC CC CC CC CC CC CC CC CC CC ................

l004197E0:
	push	ebp
	mov	ebp,esp
	sub	esp,000000C0
	push	ebx
	push	esi
	push	edi
	lea	edi,[ebp-000000C0]
	mov	ecx,00000030
	mov	eax,CCCCCCCC

l004197FC:
	rep stosd

l004197FE:
	mov	ecx,0042C02B
	call	00411460
	push	004264A4
	call	00411307
	pop	edi
	pop	esi
	pop	ebx
	add	esp,000000C0
	cmp	ebp,esp
	call	00411488
	mov	esp,ebp
	pop	ebp
	ret
00419826                   CC CC CC CC CC CC CC CC CC CC       ..........
00419830 55 8B EC 81 EC C0 00 00 00 53 56 57 8D BD 40 FF U........SVW..@.
00419840 FF FF B9 30 00 00 00 B8 CC CC CC CC F3 AB B9 2A ...0...........*
00419850 C0 42 00 E8 08 7C FF FF 5F 5E 5B 81 C4 C0 00 00 .B...|.._^[.....
00419860 00 3B EC E8 20 7C FF FF 8B E5 5D C3 CC CC CC CC .;.. |....].....
00419870 CC CC CC CC CC CC CC CC CC CC CC CC CC CC CC CC ................
00419880 55 8B EC 81 EC C0 00 00 00 53 56 57 8D BD 40 FF U........SVW..@.
00419890 FF FF B9 30 00 00 00 B8 CC CC CC CC F3 AB B9 2A ...0...........*
004198A0 C0 42 00 E8 B8 7B FF FF 5F 5E 5B 81 C4 C0 00 00 .B...{.._^[.....
004198B0 00 3B EC E8 D0 7B FF FF 8B E5 5D C3 CC CC CC CC .;...{....].....
004198C0 CC CC CC CC CC CC CC CC CC CC CC CC CC CC CC CC ................
004198D0 CC CC CC CC CC CC CC CC CC CC CC CC CC CC CC CC ................
004198E0 CC CC CC CC CC CC CC CC CC CC CC CC CC CC CC CC ................

l004198F0:
	push	ebp
	mov	ebp,esp
	sub	esp,000000CC
	push	ebx
	push	esi
	push	edi
	push	ecx
	lea	edi,[ebp-000000CC]
	mov	ecx,00000033
	mov	eax,CCCCCCCC

l0041990D:
	rep stosd

l0041990F:
	pop	ecx
	mov	[ebp-08],ecx
	mov	ecx,0042C01A
	call	00411460
	mov	eax,[ebp+08]
	push	eax
	call	0041157D
	add	esp,04
	push	eax
	call	004114EC
	add	esp,04
	pop	edi
	pop	esi
	pop	ebx
	add	esp,000000CC
	cmp	ebp,esp
	call	00411488
	mov	esp,ebp
	pop	ebp
	ret	0004
00419948                         CC CC CC CC CC CC CC CC         ........
00419950 CC CC CC CC CC CC CC CC CC CC CC CC CC CC CC CC ................

l00419960:
	push	ebp
	mov	ebp,esp
	sub	esp,000000CC
	push	ebx
	push	esi
	push	edi
	push	ecx
	lea	edi,[ebp-000000CC]
	mov	ecx,00000033
	mov	eax,CCCCCCCC

l0041997D:
	rep stosd

l0041997F:
	pop	ecx
	mov	[ebp-08],ecx
	mov	ecx,0042C01A
	call	00411460
	mov	eax,[ebp+08]
	push	eax
	call	00411320
	add	esp,04
	push	eax
	call	004114EC
	add	esp,04
	pop	edi
	pop	esi
	pop	ebx
	add	esp,000000CC
	cmp	ebp,esp
	call	00411488
	mov	esp,ebp
	pop	ebp
	ret	0004
004199B8                         CC CC CC CC CC CC CC CC         ........
004199C0 CC CC CC CC CC CC CC CC CC CC CC CC CC CC CC CC ................
004199D0 CC CC CC CC CC CC CC CC CC CC CC CC CC CC CC CC ................

l004199E0:
	push	ebp
	mov	ebp,esp
	sub	esp,000000D8
	push	ebx
	push	esi
	push	edi
	push	ecx
	lea	edi,[ebp-000000D8]
	mov	ecx,00000036
	mov	eax,CCCCCCCC

l004199FD:
	rep stosd

l004199FF:
	pop	ecx
	mov	[ebp-08],ecx
	mov	ecx,0042C02B
	call	00411460
	mov	ecx,[ebp+08]
	call	0041128F
	mov	[ebp-14],eax
	mov	eax,[ebp-14]
	mov	ecx,[eax+14]
	push	ecx
	mov	ecx,[ebp-14]
	call	0041108C
	push	eax
	mov	ecx,[ebp-08]
	call	00411717
	pop	edi
	pop	esi
	pop	ebx
	add	esp,000000D8
	cmp	ebp,esp
	call	00411488
	mov	esp,ebp
	pop	ebp
	ret	0004
00419A46                   CC CC CC CC CC CC CC CC CC CC       ..........

l00419A50:
	push	ebp
	mov	ebp,esp
	sub	esp,000000F0
	push	ebx
	push	esi
	push	edi
	push	ecx
	lea	edi,[ebp-000000F0]
	mov	ecx,0000003C
	mov	eax,CCCCCCCC

l00419A6D:
	rep stosd

l00419A6F:
	pop	ecx
	mov	[ebp-08],ecx
	mov	ecx,0042C02B
	call	00411460
	mov	ecx,[ebp-08]
	call	00411640
	mov	[ebp-14],eax
	mov	eax,[ebp-14]
	mov	ecx,[eax+14]
	cmp	ecx,[ebp+08]
	jbe	00419A95

l00419A93:
	jmp	00419AFD

l00419A95:
	mov	eax,[ebp-14]
	mov	ecx,[eax+18]
	cmp	ecx,[ebp+08]
	jnz	00419AA2

l00419AA0:
	jmp	00419AFD

l00419AA2:
	mov	eax,[ebp-14]
	mov	ecx,[eax+18]
	cmp	ecx,[ebp+08]
	jnc	00419AE0

l00419AAD:
	mov	eax,[ebp-14]
	mov	ecx,[eax+14]
	mov	[ebp-20],ecx
	xor	eax,eax
	mov	[ebp-000000E9],al
	movzx	ecx,byte ptr [ebp-000000E9]
	push	ecx
	mov	edx,[ebp+08]
	sub	edx,[ebp-20]
	push	edx
	mov	ecx,[ebp-08]
	call	00411226
	mov	eax,[ebp-14]
	mov	ecx,[ebp-20]
	mov	[eax+14],ecx
	jmp	00419AFD

l00419AE0:
	cmp	dword ptr [ebp+08],10
	jnc	00419AFD

l00419AE6:
	mov	ecx,[ebp-14]
	call	004115A5
	movzx	eax,al
	test	eax,eax
	jz	00419AFD

l00419AF5:
	mov	ecx,[ebp-08]
	call	004114E7

l00419AFD:
	pop	edi
	pop	esi
	pop	ebx
	add	esp,000000F0
	cmp	ebp,esp
	call	00411488
	mov	esp,ebp
	pop	ebp
	ret	0004
00419B13          CC CC CC CC CC CC CC CC CC CC CC CC CC    .............
00419B20 CC CC CC CC CC CC CC CC CC CC CC CC CC CC CC CC ................
00419B30 CC CC CC CC CC CC CC CC CC CC CC CC CC CC CC CC ................
00419B40 CC CC CC CC CC CC CC CC CC CC CC CC CC CC CC CC ................
00419B50 CC CC CC CC CC CC CC CC CC CC CC CC CC CC CC CC ................
00419B60 CC CC CC CC CC CC CC CC CC CC CC CC CC CC CC CC ................
00419B70 CC CC CC CC CC CC CC CC CC CC CC CC CC CC CC CC ................

l00419B80:
	push	ebp
	mov	ebp,esp
	sub	esp,000000CC
	push	ebx
	push	esi
	push	edi
	push	ecx
	lea	edi,[ebp-000000CC]
	mov	ecx,00000033
	mov	eax,CCCCCCCC

l00419B9D:
	rep stosd

l00419B9F:
	pop	ecx
	mov	[ebp-08],ecx
	mov	ecx,0042C02B
	call	00411460
	mov	eax,[ebp+08]
	push	eax
	call	00411136
	add	esp,04
	push	eax
	call	00411294
	add	esp,04
	push	eax
	mov	ecx,[ebp+08]
	push	ecx
	mov	ecx,[ebp-08]
	call	00411627
	pop	edi
	pop	esi
	pop	ebx
	add	esp,000000CC
	cmp	ebp,esp
	call	00411488
	mov	esp,ebp
	pop	ebp
	ret	0004
00419BE5                CC CC CC CC CC CC CC CC CC CC CC      ...........
00419BF0 CC CC CC CC CC CC CC CC CC CC CC CC CC CC CC CC ................
00419C00 CC CC CC CC CC CC CC CC CC CC CC CC CC CC CC CC ................
00419C10 CC CC CC CC CC CC CC CC CC CC CC CC CC CC CC CC ................
00419C20 CC CC CC CC CC CC CC CC CC CC CC CC CC CC CC CC ................
00419C30 CC CC CC CC CC CC CC CC CC CC CC CC CC CC CC CC ................
00419C40 CC CC CC CC CC CC CC CC CC CC CC CC CC CC CC CC ................
00419C50 CC CC CC CC CC CC CC CC CC CC CC CC CC CC CC CC ................
00419C60 CC CC CC CC CC CC CC CC CC CC CC CC CC CC CC CC ................
00419C70 CC CC CC CC CC CC CC CC CC CC CC CC CC CC CC CC ................
00419C80 CC CC CC CC CC CC CC CC CC CC CC CC CC CC CC CC ................
00419C90 CC CC CC CC CC CC CC CC CC CC CC CC CC CC CC CC ................
00419CA0 CC CC CC CC CC CC CC CC CC CC CC CC CC CC CC CC ................
00419CB0 CC CC CC CC CC CC CC CC CC CC CC CC CC CC CC CC ................
00419CC0 CC CC CC CC CC CC CC CC CC CC CC CC CC CC CC CC ................
00419CD0 CC CC CC CC CC CC CC CC CC CC CC CC CC CC CC CC ................
00419CE0 CC CC CC CC CC CC CC CC CC CC CC CC CC CC CC CC ................
00419CF0 CC CC CC CC CC CC CC CC CC CC CC CC CC CC CC CC ................
00419D00 CC CC CC CC CC CC CC CC CC CC CC CC CC CC CC CC ................

l00419D10:
	push	ebp
	mov	ebp,esp
	push	FF
	push	00421C30
	mov	eax,fs:[00000000]
	push	eax
	sub	esp,000000C0
	push	ebx
	push	esi
	push	edi
	lea	edi,[ebp-000000CC]
	mov	ecx,00000030
	mov	eax,CCCCCCCC

l00419D3A:
	rep stosd

l00419D3C:
	mov	eax,[00429014]
	xor	eax,ebp
	push	eax
	lea	eax,[ebp-0C]
	mov	fs:[00000000],eax
	mov	ecx,0042C017
	call	00411460
	mov	eax,[ebp+08]
	mov	ecx,[ebp+0C]
	mov	dl,[ecx]
	mov	[eax],dl
	mov	ecx,[ebp-0C]
	mov	fs:[00000000],ecx
	pop	ecx
	pop	edi
	pop	esi
	pop	ebx
	add	esp,000000CC
	cmp	ebp,esp
	call	00411488
	mov	esp,ebp
	pop	ebp
	ret
00419D80 CC CC CC CC CC CC CC CC CC CC CC CC CC CC CC CC ................
00419D90 CC CC CC CC CC CC CC CC CC CC CC CC CC CC CC CC ................
00419DA0 CC CC CC CC CC CC CC CC CC CC CC CC CC CC CC CC ................
00419DB0 CC CC CC CC CC CC CC CC CC CC CC CC CC CC CC CC ................
00419DC0 CC CC CC CC CC CC CC CC CC CC CC CC CC CC CC CC ................
00419DD0 CC CC CC CC CC CC CC CC CC CC CC CC CC CC CC CC ................
00419DE0 CC CC CC CC CC CC CC CC CC CC CC CC CC CC CC CC ................
00419DF0 CC CC CC CC CC CC CC CC CC CC CC CC CC CC CC CC ................
00419E00 CC CC CC CC CC CC CC CC CC CC CC CC CC CC CC CC ................
00419E10 CC CC CC CC CC CC CC CC CC CC CC CC CC CC CC CC ................
00419E20 CC CC CC CC CC CC CC CC CC CC CC CC CC CC CC CC ................
00419E30 CC CC CC CC CC CC CC CC CC CC CC CC CC CC CC CC ................
00419E40 CC CC CC CC CC CC CC CC CC CC CC CC CC CC CC CC ................
00419E50 CC CC CC CC CC CC CC CC CC CC CC CC CC CC CC CC ................
00419E60 CC CC CC CC CC CC CC CC CC CC CC CC CC CC CC CC ................
00419E70 CC CC CC CC CC CC CC CC CC CC CC CC CC CC CC CC ................
00419E80 CC CC CC CC CC CC CC CC CC CC CC CC CC CC CC CC ................
00419E90 CC CC CC CC CC CC CC CC CC CC CC CC CC CC CC CC ................
00419EA0 CC CC CC CC CC CC CC CC CC CC CC CC CC CC CC CC ................
00419EB0 CC CC CC CC CC CC CC CC CC CC CC CC CC CC CC CC ................
00419EC0 CC CC CC CC CC CC CC CC CC CC CC CC CC CC CC CC ................
00419ED0 CC CC CC CC CC CC CC CC CC CC CC CC CC CC CC CC ................
00419EE0 CC CC CC CC CC CC CC CC CC CC CC CC CC CC CC CC ................
00419EF0 CC CC CC CC CC CC CC CC CC CC CC CC CC CC CC CC ................
00419F00 CC CC CC CC CC CC CC CC CC CC CC CC CC CC CC CC ................

;; fn00419F10: 00419F10
;;   Called from:
;;     0041B515 (in fn0041B400)
fn00419F10 proc
	push	ebp
	mov	ebp,esp
	sub	esp,000000D8
	push	ebx
	push	esi
	push	edi
	lea	edi,[ebp-000000D8]
	mov	ecx,00000036
	mov	eax,CCCCCCCC

l00419F2C:
	rep stosd

l00419F2E:
	mov	ecx,0042C02A
	call	00411460
	mov	dword ptr [ebp-08],00000000
	jmp	00419F4A

l00419F41:
	mov	eax,[ebp-08]
	add	eax,01
	mov	[ebp-08],eax

l00419F4A:
	mov	ecx,004292FC
	call	0041114A
	cmp	[ebp-08],eax
	jnc	00419FCE

l00419F59:
	mov	eax,[ebp-08]
	push	eax
	mov	ecx,004292FC
	call	004114C4
	mov	cl,[eax]
	movzx	edx,cl
	push	edx
	call	0041FE70
	add	esp,04
	mov	esi,esp
	push	004114CE
	push	004292E0
	push	004260EC
	mov	eax,[ebp-08]
	push	eax
	mov	ecx,004292FC
	call	004114C4
	mov	cl,[eax]
	movzx	edx,cl
	push	edx
	mov	eax,[0042A09C]
	push	eax
	call	004111C7
	add	esp,08
	push	eax
	call	0041138E
	add	esp,08
	push	eax
	call	004113C0
	add	esp,08
	mov	ecx,eax
	call	dword ptr [0042A0A8]
	cmp	esi,esp
	call	00411488
	jmp	00419F41

l00419FCE:
	mov	esi,esp
	push	004114CE
	push	004260E0
	mov	edi,esp
	push	004114CE
	mov	ecx,[0042A09C]
	call	dword ptr [0042A0A8]
	cmp	edi,esp
	call	00411488
	push	eax
	call	0041138E
	add	esp,08
	mov	ecx,eax
	call	dword ptr [0042A0A8]
	cmp	esi,esp
	call	00411488
	mov	dword ptr [ebp-14],00000000
	jmp	0041A01E

l0041A015:
	mov	eax,[ebp-14]
	add	eax,01
	mov	[ebp-14],eax

l0041A01E:
	mov	ecx,004292FC
	call	0041114A
	cmp	[ebp-14],eax
	jnc	0041A05E

l0041A02D:
	mov	eax,[ebp-14]
	push	eax
	mov	ecx,004292FC
	call	004114C4
	mov	cl,[eax]
	movzx	edx,cl
	push	edx
	call	0041FE70
	add	esp,04
	push	004292E0
	mov	eax,[0042A09C]
	push	eax
	call	004113C0
	add	esp,08
	jmp	0041A015

l0041A05E:
	mov	esi,esp
	push	004114CE
	mov	edi,esp
	push	004114CE
	mov	ecx,[0042A09C]
	call	dword ptr [0042A0A8]
	cmp	edi,esp
	call	00411488
	mov	ecx,eax
	call	dword ptr [0042A0A8]
	cmp	esi,esp
	call	00411488
	pop	edi
	pop	esi
	pop	ebx
	add	esp,000000D8
	cmp	ebp,esp
	call	00411488
	mov	esp,ebp
	pop	ebp
	ret
0041A0A2       CC CC CC CC CC CC CC CC CC CC CC CC CC CC   ..............
0041A0B0 CC CC CC CC CC CC CC CC CC CC CC CC CC CC CC CC ................
0041A0C0 CC CC CC CC CC CC CC CC CC CC CC CC CC CC CC CC ................
0041A0D0 CC CC CC CC CC CC CC CC CC CC CC CC CC CC CC CC ................
0041A0E0 CC CC CC CC CC CC CC CC CC CC CC CC CC CC CC CC ................
0041A0F0 CC CC CC CC CC CC CC CC CC CC CC CC CC CC CC CC ................
0041A100 CC CC CC CC CC CC CC CC CC CC CC CC CC CC CC CC ................
0041A110 CC CC CC CC CC CC CC CC CC CC CC CC CC CC CC CC ................
0041A120 CC CC CC CC CC CC CC CC CC CC CC CC CC CC CC CC ................
0041A130 CC CC CC CC CC CC CC CC CC CC CC CC CC CC CC CC ................
0041A140 CC CC CC CC CC CC CC CC CC CC CC CC CC CC CC CC ................
0041A150 CC CC CC CC CC CC CC CC CC CC CC CC CC CC CC CC ................
0041A160 CC CC CC CC CC CC CC CC CC CC CC CC CC CC CC CC ................
0041A170 CC CC CC CC CC CC CC CC CC CC CC CC CC CC CC CC ................
0041A180 CC CC CC CC CC CC CC CC CC CC CC CC CC CC CC CC ................
0041A190 CC CC CC CC CC CC CC CC CC CC CC CC CC CC CC CC ................
0041A1A0 CC CC CC CC CC CC CC CC CC CC CC CC CC CC CC CC ................
0041A1B0 CC CC CC CC CC CC CC CC CC CC CC CC CC CC CC CC ................
0041A1C0 CC CC CC CC CC CC CC CC CC CC CC CC CC CC CC CC ................
0041A1D0 CC CC CC CC CC CC CC CC CC CC CC CC CC CC CC CC ................
0041A1E0 CC CC CC CC CC CC CC CC CC CC CC CC CC CC CC CC ................
0041A1F0 CC CC CC CC CC CC CC CC CC CC CC CC CC CC CC CC ................
0041A200 CC CC CC CC CC CC CC CC CC CC CC CC CC CC CC CC ................
0041A210 CC CC CC CC CC CC CC CC CC CC CC CC CC CC CC CC ................
0041A220 CC CC CC CC CC CC CC CC CC CC CC CC CC CC CC CC ................
0041A230 CC CC CC CC CC CC CC CC CC CC CC CC CC CC CC CC ................
0041A240 CC CC CC CC CC CC CC CC CC CC CC CC CC CC CC CC ................
0041A250 CC CC CC CC CC CC CC CC CC CC CC CC CC CC CC CC ................
0041A260 CC CC CC CC CC CC CC CC CC CC CC CC CC CC CC CC ................
0041A270 CC CC CC CC CC CC CC CC CC CC CC CC CC CC CC CC ................
0041A280 CC CC CC CC CC CC CC CC CC CC CC CC CC CC CC CC ................
0041A290 CC CC CC CC CC CC CC CC CC CC CC CC CC CC CC CC ................
0041A2A0 CC CC CC CC CC CC CC CC CC CC CC CC CC CC CC CC ................
0041A2B0 CC CC CC CC CC CC CC CC CC CC CC CC CC CC CC CC ................
0041A2C0 CC CC CC CC CC CC CC CC CC CC CC CC CC CC CC CC ................
0041A2D0 CC CC CC CC CC CC CC CC CC CC CC CC CC CC CC CC ................
0041A2E0 CC CC CC CC CC CC CC CC CC CC CC CC CC CC CC CC ................
0041A2F0 CC CC CC CC CC CC CC CC CC CC CC CC CC CC CC CC ................
0041A300 CC CC CC CC CC CC CC CC CC CC CC CC CC CC CC CC ................
0041A310 CC CC CC CC CC CC CC CC CC CC CC CC CC CC CC CC ................
0041A320 CC CC CC CC CC CC CC CC CC CC CC CC CC CC CC CC ................
0041A330 CC CC CC CC CC CC CC CC CC CC CC CC CC CC CC CC ................
0041A340 CC CC CC CC CC CC CC CC CC CC CC CC CC CC CC CC ................
0041A350 CC CC CC CC CC CC CC CC CC CC CC CC CC CC CC CC ................
0041A360 CC CC CC CC CC CC CC CC CC CC CC CC CC CC CC CC ................
0041A370 CC CC CC CC CC CC CC CC CC CC CC CC CC CC CC CC ................
0041A380 CC CC CC CC CC CC CC CC CC CC CC CC CC CC CC CC ................
0041A390 CC CC CC CC CC CC CC CC CC CC CC CC CC CC CC CC ................
0041A3A0 CC CC CC CC CC CC CC CC CC CC CC CC CC CC CC CC ................
0041A3B0 CC CC CC CC CC CC CC CC CC CC CC CC CC CC CC CC ................
0041A3C0 CC CC CC CC CC CC CC CC CC CC CC CC CC CC CC CC ................
0041A3D0 CC CC CC CC CC CC CC CC CC CC CC CC CC CC CC CC ................
0041A3E0 CC CC CC CC CC CC CC CC CC CC CC CC CC CC CC CC ................
0041A3F0 CC CC CC CC CC CC CC CC CC CC CC CC CC CC CC CC ................
0041A400 CC CC CC CC CC CC CC CC CC CC CC CC CC CC CC CC ................
0041A410 CC CC CC CC CC CC CC CC CC CC CC CC CC CC CC CC ................
0041A420 CC CC CC CC CC CC CC CC CC CC CC CC CC CC CC CC ................
0041A430 CC CC CC CC CC CC CC CC CC CC CC CC CC CC CC CC ................
0041A440 CC CC CC CC CC CC CC CC CC CC CC CC CC CC CC CC ................
0041A450 CC CC CC CC CC CC CC CC CC CC CC CC CC CC CC CC ................
0041A460 CC CC CC CC CC CC CC CC CC CC CC CC CC CC CC CC ................
0041A470 CC CC CC CC CC CC CC CC CC CC CC CC CC CC CC CC ................
0041A480 CC CC CC CC CC CC CC CC CC CC CC CC CC CC CC CC ................
0041A490 CC CC CC CC CC CC CC CC CC CC CC CC CC CC CC CC ................
0041A4A0 CC CC CC CC CC CC CC CC CC CC CC CC CC CC CC CC ................
0041A4B0 CC CC CC CC CC CC CC CC CC CC CC CC CC CC CC CC ................
0041A4C0 CC CC CC CC CC CC CC CC CC CC CC CC CC CC CC CC ................
0041A4D0 CC CC CC CC CC CC CC CC CC CC CC CC CC CC CC CC ................
0041A4E0 CC CC CC CC CC CC CC CC CC CC CC CC CC CC CC CC ................
0041A4F0 CC CC CC CC CC CC CC CC CC CC CC CC CC CC CC CC ................
0041A500 CC CC CC CC CC CC CC CC CC CC CC CC CC CC CC CC ................

l0041A510:
	push	ebp
	mov	ebp,esp
	push	FF
	push	00421C90
	mov	eax,fs:[00000000]
	push	eax
	sub	esp,000000C0
	push	ebx
	push	esi
	push	edi
	lea	edi,[ebp-000000CC]
	mov	ecx,00000030
	mov	eax,CCCCCCCC

l0041A53A:
	rep stosd

l0041A53C:
	mov	eax,[00429014]
	xor	eax,ebp
	push	eax
	lea	eax,[ebp-0C]
	mov	fs:[00000000],eax
	mov	ecx,0042C017
	call	00411460
	mov	eax,[ebp+10]
	push	eax
	mov	ecx,[ebp+0C]
	push	ecx
	mov	edx,[ebp+08]
	push	edx
	call	00411019
	add	esp,0C
	mov	ecx,[ebp-0C]
	mov	fs:[00000000],ecx
	pop	ecx
	pop	edi
	pop	esi
	pop	ebx
	add	esp,000000CC
	cmp	ebp,esp
	call	00411488
	mov	esp,ebp
	pop	ebp
	ret
0041A58A                               CC CC CC CC CC CC           ......
0041A590 CC CC CC CC CC CC CC CC CC CC CC CC CC CC CC CC ................
0041A5A0 CC CC CC CC CC CC CC CC CC CC CC CC CC CC CC CC ................

l0041A5B0:
	push	ebp
	mov	ebp,esp
	push	FF
	push	00421CC0
	mov	eax,fs:[00000000]
	push	eax
	sub	esp,000000C0
	push	ebx
	push	esi
	push	edi
	lea	edi,[ebp-000000CC]
	mov	ecx,00000030
	mov	eax,CCCCCCCC

l0041A5DA:
	rep stosd

l0041A5DC:
	mov	eax,[00429014]
	xor	eax,ebp
	push	eax
	lea	eax,[ebp-0C]
	mov	fs:[00000000],eax
	mov	ecx,0042C017
	call	00411460
	mov	eax,[ebp+10]
	push	eax
	mov	ecx,[ebp+0C]
	push	ecx
	mov	edx,[ebp+08]
	push	edx
	call	00411523
	add	esp,0C
	mov	ecx,[ebp-0C]
	mov	fs:[00000000],ecx
	pop	ecx
	pop	edi
	pop	esi
	pop	ebx
	add	esp,000000CC
	cmp	ebp,esp
	call	00411488
	mov	esp,ebp
	pop	ebp
	ret
0041A62A                               CC CC CC CC CC CC           ......
0041A630 CC CC CC CC CC CC CC CC CC CC CC CC CC CC CC CC ................
0041A640 CC CC CC CC CC CC CC CC CC CC CC CC CC CC CC CC ................
0041A650 CC CC CC CC CC CC CC CC CC CC CC CC CC CC CC CC ................
0041A660 CC CC CC CC CC CC CC CC CC CC CC CC CC CC CC CC ................
0041A670 CC CC CC CC CC CC CC CC CC CC CC CC CC CC CC CC ................
0041A680 CC CC CC CC CC CC CC CC CC CC CC CC CC CC CC CC ................
0041A690 CC CC CC CC CC CC CC CC CC CC CC CC CC CC CC CC ................
0041A6A0 CC CC CC CC CC CC CC CC CC CC CC CC CC CC CC CC ................
0041A6B0 CC CC CC CC CC CC CC CC CC CC CC CC CC CC CC CC ................

l0041A6C0:
	push	ebp
	mov	ebp,esp
	sub	esp,000000C0
	push	ebx
	push	esi
	push	edi
	lea	edi,[ebp-000000C0]
	mov	ecx,00000030
	mov	eax,CCCCCCCC

l0041A6DC:
	rep stosd

l0041A6DE:
	mov	ecx,0042C01A
	call	00411460
	mov	eax,[ebp+10]
	shl	eax,03
	push	eax
	mov	ecx,[ebp+0C]
	push	ecx
	call	00411613
	add	esp,08
	pop	edi
	pop	esi
	pop	ebx
	add	esp,000000C0
	cmp	ebp,esp
	call	00411488
	mov	esp,ebp
	pop	ebp
	ret
0041A70F                                              CC                .
0041A710 CC CC CC CC CC CC CC CC CC CC CC CC CC CC CC CC ................
0041A720 CC CC CC CC CC CC CC CC CC CC CC CC CC CC CC CC ................

l0041A730:
	push	ebp
	mov	ebp,esp
	sub	esp,000000CC
	push	ebx
	push	esi
	push	edi
	push	ecx
	lea	edi,[ebp-000000CC]
	mov	ecx,00000033
	mov	eax,CCCCCCCC

l0041A74D:
	rep stosd

l0041A74F:
	pop	ecx
	mov	[ebp-08],ecx
	mov	ecx,0042C01A
	call	00411460
	mov	eax,[ebp+0C]
	push	eax
	mov	ecx,[ebp+08]
	push	ecx
	call	00411613
	add	esp,08
	pop	edi
	pop	esi
	pop	ebx
	add	esp,000000CC
	cmp	ebp,esp
	call	00411488
	mov	esp,ebp
	pop	ebp
	ret	0008
0041A783          CC CC CC CC CC CC CC CC CC CC CC CC CC    .............

;; fn0041A790: 0041A790
;;   Called from:
;;     004141B8 (in fn00411587)
;;     0041A8B5 (in fn0041A790)
;;     0041A8BF (in fn0041A790)
fn0041A790 proc
	push	ebp
	mov	ebp,esp
	push	FF
	push	00421D28
	mov	eax,fs:[00000000]
	push	eax
	sub	esp,000000E8
	push	ebx
	push	esi
	push	edi
	lea	edi,[ebp-000000F4]
	mov	ecx,0000003A
	mov	eax,CCCCCCCC

l0041A7BA:
	rep stosd

l0041A7BC:
	mov	eax,[00429014]
	xor	eax,ebp
	mov	[ebp-10],eax
	push	eax
	lea	eax,[ebp-0C]
	mov	fs:[00000000],eax
	mov	ecx,0042C02A
	call	00411460
	mov	esi,esp
	push	004114CE
	push	00426158
	mov	edi,esp
	push	004114CE
	push	00426178
	mov	ebx,esp
	push	004114CE
	push	0042619C
	mov	eax,[0042A09C]
	push	eax
	call	0041138E
	add	esp,08
	mov	ecx,eax
	call	dword ptr [0042A0A8]
	cmp	ebx,esp
	call	00411488
	push	eax
	call	0041138E
	add	esp,08
	mov	ecx,eax
	call	dword ptr [0042A0A8]
	cmp	edi,esp
	call	00411488
	push	eax
	call	0041138E
	add	esp,08
	mov	ecx,eax
	call	dword ptr [0042A0A8]
	cmp	esi,esp
	call	00411488
	lea	ecx,[ebp-30]
	call	0041111D
	mov	dword ptr [ebp-04],00000000
	lea	eax,[ebp-30]
	push	eax
	mov	ecx,[0042A0F8]
	push	ecx
	call	00411186
	add	esp,08
	push	004261BC
	lea	eax,[ebp-30]
	push	eax
	call	004110F5
	add	esp,08
	movzx	ecx,al
	test	ecx,ecx
	jz	0041A891

l0041A885:
	mov	dword ptr [00429004],00000000
	jmp	0041A8BA

l0041A891:
	push	004261C4
	lea	eax,[ebp-30]
	push	eax
	call	004110F5
	add	esp,08
	movzx	ecx,al
	test	ecx,ecx
	jz	0041A8B5

l0041A8A9:
	mov	dword ptr [00429004],00000001
	jmp	0041A8BA

l0041A8B5:
	call	0041A790

l0041A8BA:
	call	0041B400
	call	0041A790
	mov	dword ptr [ebp-04],FFFFFFFF
	lea	ecx,[ebp-30]
	call	00411406
	push	edx
	mov	ecx,ebp
	push	eax
	lea	edx,[0041A910]
	call	004114D3
	pop	eax
	pop	edx
	mov	ecx,[ebp-0C]
	mov	fs:[00000000],ecx
	pop	ecx
	pop	edi
	pop	esi
	pop	ebx
	mov	ecx,[ebp-10]
	xor	ecx,ebp
	call	004113E3
	add	esp,000000F4
	cmp	ebp,esp
	call	00411488
	mov	esp,ebp
	pop	ebp
	ret
0041A90D                                        0F 1F 00              ...
0041A910 01 00 00 00 18 A9 41 00 D0 FF FF FF 1C 00 00 00 ......A.........
0041A920 24 A9 41 00 69 6E 6E 00 CC CC CC CC CC CC CC CC $.A.inn.........
0041A930 CC CC CC CC CC CC CC CC CC CC CC CC CC CC CC CC ................
0041A940 CC CC CC CC CC CC CC CC CC CC CC CC CC CC CC CC ................
0041A950 CC CC CC CC CC CC CC CC CC CC CC CC CC CC CC CC ................
0041A960 CC CC CC CC CC CC CC CC CC CC CC CC CC CC CC CC ................
0041A970 CC CC CC CC CC CC CC CC CC CC CC CC CC CC CC CC ................
0041A980 CC CC CC CC CC CC CC CC CC CC CC CC CC CC CC CC ................
0041A990 CC CC CC CC CC CC CC CC CC CC CC CC CC CC CC CC ................
0041A9A0 CC CC CC CC CC CC CC CC CC CC CC CC CC CC CC CC ................
0041A9B0 CC CC CC CC CC CC CC CC CC CC CC CC CC CC CC CC ................

;; fn0041A9C0: 0041A9C0
;;   Called from:
;;     00411235 (in fn00411235)
fn0041A9C0 proc
	push	ebp
	mov	ebp,esp
	push	FF
	push	00421D60
	mov	eax,fs:[00000000]
	push	eax
	sub	esp,000000C0
	push	ebx
	push	esi
	push	edi
	lea	edi,[ebp-000000CC]
	mov	ecx,00000030
	mov	eax,CCCCCCCC

l0041A9EA:
	rep stosd

l0041A9EC:
	mov	eax,[00429014]
	xor	eax,ebp
	push	eax
	lea	eax,[ebp-0C]
	mov	fs:[00000000],eax
	mov	ecx,0042C017
	call	00411460
	or	eax,FF
	mov	ecx,[ebp-0C]
	mov	fs:[00000000],ecx
	pop	ecx
	pop	edi
	pop	esi
	pop	ebx
	add	esp,000000CC
	cmp	ebp,esp
	call	00411488
	mov	esp,ebp
	pop	ebp
	ret
0041AA29                            CC CC CC CC CC CC CC          .......
0041AA30 CC CC CC CC CC CC CC CC CC CC CC CC CC CC CC CC ................
0041AA40 CC CC CC CC CC CC CC CC CC CC CC CC CC CC CC CC ................
0041AA50 CC CC CC CC CC CC CC CC CC CC CC CC CC CC CC CC ................
0041AA60 CC CC CC CC CC CC CC CC CC CC CC CC CC CC CC CC ................
0041AA70 CC CC CC CC CC CC CC CC CC CC CC CC CC CC CC CC ................

l0041AA80:
	push	ebp
	mov	ebp,esp
	push	FF
	push	00421D90
	mov	eax,fs:[00000000]
	push	eax
	sub	esp,000000C4
	push	ebx
	push	esi
	push	edi
	lea	edi,[ebp-000000D0]
	mov	ecx,00000031
	mov	eax,CCCCCCCC

l0041AAAA:
	rep stosd

l0041AAAC:
	mov	eax,[00429014]
	xor	eax,ebp
	push	eax
	lea	eax,[ebp-0C]
	mov	fs:[00000000],eax
	mov	ecx,0042C017
	call	00411460
	mov	eax,[ebp+08]
	mov	ecx,[ebp+0C]
	mov	edx,[eax]
	cmp	edx,[ecx]
	jnz	0041AADF

l0041AAD3:
	mov	dword ptr [ebp-000000D0],00000001
	jmp	0041AAE9

l0041AADF:
	mov	dword ptr [ebp-000000D0],00000000

l0041AAE9:
	mov	al,[ebp-000000D0]
	mov	ecx,[ebp-0C]
	mov	fs:[00000000],ecx
	pop	ecx
	pop	edi
	pop	esi
	pop	ebx
	add	esp,000000D0
	cmp	ebp,esp
	call	00411488
	mov	esp,ebp
	pop	ebp
	ret
0041AB0E                                           CC CC               ..

l0041AB10:
	push	ebp
	mov	ebp,esp
	sub	esp,000000D8
	push	ebx
	push	esi
	push	edi
	push	ecx
	lea	edi,[ebp-000000D8]
	mov	ecx,00000036
	mov	eax,CCCCCCCC

l0041AB2D:
	rep stosd

l0041AB2F:
	pop	ecx
	mov	[ebp-08],ecx
	mov	ecx,0042C02B
	call	00411460
	mov	ecx,[ebp-08]
	call	00411640
	mov	[ebp-14],eax
	mov	eax,[ebp+08]
	push	eax
	mov	ecx,[ebp-14]
	call	004111A9
	mov	eax,[ebp+08]
	push	eax
	mov	ecx,[ebp-08]
	call	004110E1
	mov	eax,[ebp-08]
	pop	edi
	pop	esi
	pop	ebx
	add	esp,000000D8
	cmp	ebp,esp
	call	00411488
	mov	esp,ebp
	pop	ebp
	ret	0004
0041AB79                            CC CC CC CC CC CC CC          .......
0041AB80 CC CC CC CC CC CC CC CC CC CC CC CC CC CC CC CC ................
0041AB90 CC CC CC CC CC CC CC CC CC CC CC CC CC CC CC CC ................
0041ABA0 CC CC CC CC CC CC CC CC CC CC CC CC CC CC CC CC ................

l0041ABB0:
	push	ebp
	mov	ebp,esp
	push	FF
	push	00421DC0
	mov	eax,fs:[00000000]
	push	eax
	sub	esp,000000CC
	push	ebx
	push	esi
	push	edi
	push	ecx
	lea	edi,[ebp-000000D8]
	mov	ecx,00000033
	mov	eax,CCCCCCCC

l0041ABDB:
	rep stosd

l0041ABDD:
	pop	ecx
	mov	eax,[00429014]
	xor	eax,ebp
	push	eax
	lea	eax,[ebp-0C]
	mov	fs:[00000000],eax
	mov	[ebp-14],ecx
	mov	ecx,0042C02B
	call	00411460
	mov	ecx,[ebp-14]
	call	0041128F
	mov	eax,[eax+14]
	mov	ecx,[ebp-0C]
	mov	fs:[00000000],ecx
	pop	ecx
	pop	edi
	pop	esi
	pop	ebx
	add	esp,000000D8
	cmp	ebp,esp
	call	00411488
	mov	esp,ebp
	pop	ebp
	ret
0041AC26                   CC CC CC CC CC CC CC CC CC CC       ..........
0041AC30 CC CC CC CC CC CC CC CC CC CC CC CC CC CC CC CC ................

;; fn0041AC40: 0041AC40
;;   Called from:
;;     00411136 (in fn00411136)
fn0041AC40 proc
	push	ebp
	mov	ebp,esp
	push	FF
	push	00421DF0
	mov	eax,fs:[00000000]
	push	eax
	sub	esp,000000C0
	push	ebx
	push	esi
	push	edi
	lea	edi,[ebp-000000CC]
	mov	ecx,00000030
	mov	eax,CCCCCCCC

l0041AC6A:
	rep stosd

l0041AC6C:
	mov	eax,[00429014]
	xor	eax,ebp
	push	eax
	lea	eax,[ebp-0C]
	mov	fs:[00000000],eax
	mov	ecx,0042C017
	call	00411460
	mov	eax,[ebp+08]
	push	eax
	call	004110C3
	add	esp,04
	mov	ecx,[ebp-0C]
	mov	fs:[00000000],ecx
	pop	ecx
	pop	edi
	pop	esi
	pop	ebx
	add	esp,000000CC
	cmp	ebp,esp
	call	00411488
	mov	esp,ebp
	pop	ebp
	ret
0041ACB2       CC CC CC CC CC CC CC CC CC CC CC CC CC CC   ..............
0041ACC0 CC CC CC CC CC CC CC CC CC CC CC CC CC CC CC CC ................

l0041ACD0:
	push	ebp
	mov	ebp,esp
	push	FF
	push	00421E20
	mov	eax,fs:[00000000]
	push	eax
	sub	esp,000000C0
	push	ebx
	push	esi
	push	edi
	lea	edi,[ebp-000000CC]
	mov	ecx,00000030
	mov	eax,CCCCCCCC

l0041ACFA:
	rep stosd

l0041ACFC:
	mov	eax,[00429014]
	xor	eax,ebp
	push	eax
	lea	eax,[ebp-0C]
	mov	fs:[00000000],eax
	mov	ecx,0042C016
	call	00411460
	mov	eax,7FFFFFFF
	mov	ecx,[ebp-0C]
	mov	fs:[00000000],ecx
	pop	ecx
	pop	edi
	pop	esi
	pop	ebx
	add	esp,000000CC
	cmp	ebp,esp
	call	00411488
	mov	esp,ebp
	pop	ebp
	ret
0041AD3B                                  CC CC CC CC CC            .....
0041AD40 CC CC CC CC CC CC CC CC CC CC CC CC CC CC CC CC ................
0041AD50 CC CC CC CC CC CC CC CC CC CC CC CC CC CC CC CC ................

l0041AD60:
	push	ebp
	mov	ebp,esp
	push	FF
	push	00421E50
	mov	eax,fs:[00000000]
	push	eax
	sub	esp,000000C0
	push	ebx
	push	esi
	push	edi
	lea	edi,[ebp-000000CC]
	mov	ecx,00000030
	mov	eax,CCCCCCCC

l0041AD8A:
	rep stosd

l0041AD8C:
	mov	eax,[00429014]
	xor	eax,ebp
	push	eax
	lea	eax,[ebp-0C]
	mov	fs:[00000000],eax
	mov	ecx,0042C01A
	call	00411460
	or	eax,FF
	mov	ecx,[ebp-0C]
	mov	fs:[00000000],ecx
	pop	ecx
	pop	edi
	pop	esi
	pop	ebx
	add	esp,000000CC
	cmp	ebp,esp
	call	00411488
	mov	esp,ebp
	pop	ebp
	ret
0041ADC9                            CC CC CC CC CC CC CC          .......
0041ADD0 CC CC CC CC CC CC CC CC CC CC CC CC CC CC CC CC ................
0041ADE0 CC CC CC CC CC CC CC CC CC CC CC CC CC CC CC CC ................
0041ADF0 CC CC CC CC CC CC CC CC CC CC CC CC CC CC CC CC ................
0041AE00 CC CC CC CC CC CC CC CC CC CC CC CC CC CC CC CC ................
0041AE10 CC CC CC CC CC CC CC CC CC CC CC CC CC CC CC CC ................
0041AE20 CC CC CC CC CC CC CC CC CC CC CC CC CC CC CC CC ................
0041AE30 CC CC CC CC CC CC CC CC CC CC CC CC CC CC CC CC ................
0041AE40 CC CC CC CC CC CC CC CC CC CC CC CC CC CC CC CC ................
0041AE50 CC CC CC CC CC CC CC CC CC CC CC CC CC CC CC CC ................
0041AE60 CC CC CC CC CC CC CC CC CC CC CC CC CC CC CC CC ................
0041AE70 CC CC CC CC CC CC CC CC CC CC CC CC CC CC CC CC ................
0041AE80 CC CC CC CC CC CC CC CC CC CC CC CC CC CC CC CC ................
0041AE90 CC CC CC CC CC CC CC CC CC CC CC CC CC CC CC CC ................
0041AEA0 CC CC CC CC CC CC CC CC CC CC CC CC CC CC CC CC ................
0041AEB0 CC CC CC CC CC CC CC CC CC CC CC CC CC CC CC CC ................
0041AEC0 CC CC CC CC CC CC CC CC CC CC CC CC CC CC CC CC ................
0041AED0 CC CC CC CC CC CC CC CC CC CC CC CC CC CC CC CC ................
0041AEE0 CC CC CC CC CC CC CC CC CC CC CC CC CC CC CC CC ................
0041AEF0 CC CC CC CC CC CC CC CC CC CC CC CC CC CC CC CC ................
0041AF00 CC CC CC CC CC CC CC CC CC CC CC CC CC CC CC CC ................
0041AF10 CC CC CC CC CC CC CC CC CC CC CC CC CC CC CC CC ................
0041AF20 CC CC CC CC CC CC CC CC CC CC CC CC CC CC CC CC ................
0041AF30 CC CC CC CC CC CC CC CC CC CC CC CC CC CC CC CC ................
0041AF40 CC CC CC CC CC CC CC CC CC CC CC CC CC CC CC CC ................
0041AF50 CC CC CC CC CC CC CC CC CC CC CC CC CC CC CC CC ................

l0041AF60:
	push	ebp
	mov	ebp,esp
	push	FF
	push	00421EC0
	mov	eax,fs:[00000000]
	push	eax
	sub	esp,000000C0
	push	ebx
	push	esi
	push	edi
	lea	edi,[ebp-000000CC]
	mov	ecx,00000030
	mov	eax,CCCCCCCC

l0041AF8A:
	rep stosd

l0041AF8C:
	mov	eax,[00429014]
	xor	eax,ebp
	push	eax
	lea	eax,[ebp-0C]
	mov	fs:[00000000],eax
	mov	ecx,0042C017
	call	00411460
	mov	eax,[ebp+10]
	push	eax
	mov	ecx,[ebp+0C]
	push	ecx
	mov	edx,[ebp+08]
	push	edx
	call	00411730
	add	esp,0C
	mov	ecx,[ebp-0C]
	mov	fs:[00000000],ecx
	pop	ecx
	pop	edi
	pop	esi
	pop	ebx
	add	esp,000000CC
	cmp	ebp,esp
	call	00411488
	mov	esp,ebp
	pop	ebp
	ret
0041AFDA                               CC CC CC CC CC CC           ......
0041AFE0 CC CC CC CC CC CC CC CC CC CC CC CC CC CC CC CC ................
0041AFF0 CC CC CC CC CC CC CC CC CC CC CC CC CC CC CC CC ................
0041B000 CC CC CC CC CC CC CC CC CC CC CC CC CC CC CC CC ................
0041B010 CC CC CC CC CC CC CC CC CC CC CC CC CC CC CC CC ................
0041B020 CC CC CC CC CC CC CC CC CC CC CC CC CC CC CC CC ................
0041B030 CC CC CC CC CC CC CC CC CC CC CC CC CC CC CC CC ................
0041B040 CC CC CC CC CC CC CC CC CC CC CC CC CC CC CC CC ................
0041B050 CC CC CC CC CC CC CC CC CC CC CC CC CC CC CC CC ................
0041B060 CC CC CC CC CC CC CC CC CC CC CC CC CC CC CC CC ................

l0041B070:
	push	ebp
	mov	ebp,esp
	sub	esp,00000108
	push	ebx
	push	esi
	push	edi
	push	ecx
	lea	edi,[ebp-00000108]
	mov	ecx,00000042
	mov	eax,CCCCCCCC

l0041B08D:
	rep stosd

l0041B08F:
	pop	ecx
	mov	[ebp-08],ecx
	mov	ecx,0042C02B
	call	00411460
	mov	ecx,[ebp-08]
	call	00411640
	mov	[ebp-14],eax
	mov	eax,[ebp-14]
	mov	ecx,[eax+14]
	mov	[ebp-20],ecx
	mov	eax,[ebp-14]
	mov	ecx,[ebp-20]
	cmp	ecx,[eax+18]
	jnc	0041B109

l0041B0BC:
	mov	eax,[ebp-20]
	add	eax,01
	mov	ecx,[ebp-14]
	mov	[ecx+14],eax
	mov	ecx,[ebp-14]
	call	0041123A
	mov	[ebp-2C],eax
	lea	eax,[ebp+08]
	push	eax
	mov	ecx,[ebp-2C]
	add	ecx,[ebp-20]
	push	ecx
	call	0041154B
	add	esp,08
	mov	byte ptr [ebp-000000F5],00
	lea	eax,[ebp-000000F5]
	push	eax
	mov	ecx,[ebp-20]
	mov	edx,[ebp-2C]
	lea	eax,[edx+ecx+01]
	push	eax
	call	0041154B
	add	esp,08
	jmp	0041B128

l0041B109:
	xor	eax,eax
	mov	[ebp-00000101],al
	movzx	ecx,byte ptr [ebp+08]
	push	ecx
	movzx	edx,byte ptr [ebp-00000101]
	push	edx
	push	01
	mov	ecx,[ebp-08]
	call	004116CC

l0041B128:
	pop	edi
	pop	esi
	pop	ebx
	add	esp,00000108
	cmp	ebp,esp
	call	00411488
	mov	esp,ebp
	pop	ebp
	ret	0004
0041B13E                                           CC CC               ..
0041B140 CC CC CC CC CC CC CC CC CC CC CC CC CC CC CC CC ................
0041B150 CC CC CC CC CC CC CC CC CC CC CC CC CC CC CC CC ................
0041B160 CC CC CC CC CC CC CC CC CC CC CC CC CC CC CC CC ................
0041B170 CC CC CC CC CC CC CC CC CC CC CC CC CC CC CC CC ................
0041B180 CC CC CC CC CC CC CC CC CC CC CC CC CC CC CC CC ................
0041B190 CC CC CC CC CC CC CC CC CC CC CC CC CC CC CC CC ................
0041B1A0 CC CC CC CC CC CC CC CC CC CC CC CC CC CC CC CC ................
0041B1B0 CC CC CC CC CC CC CC CC CC CC CC CC CC CC CC CC ................

l0041B1C0:
	push	ebp
	mov	ebp,esp
	sub	esp,000000C0
	push	ebx
	push	esi
	push	edi
	lea	edi,[ebp-000000C0]
	mov	ecx,00000030
	mov	eax,CCCCCCCC

l0041B1DC:
	rep stosd

l0041B1DE:
	mov	ecx,0042C01A
	call	00411460
	mov	eax,[ebp+08]
	pop	edi
	pop	esi
	pop	ebx
	add	esp,000000C0
	cmp	ebp,esp
	call	00411488
	mov	esp,ebp
	pop	ebp
	ret
0041B1FF                                              CC                .
0041B200 CC CC CC CC CC CC CC CC CC CC CC CC CC CC CC CC ................
0041B210 CC CC CC CC CC CC CC CC CC CC CC CC CC CC CC CC ................
0041B220 CC CC CC CC CC CC CC CC CC CC CC CC CC CC CC CC ................
0041B230 CC CC CC CC CC CC CC CC CC CC CC CC CC CC CC CC ................
0041B240 CC CC CC CC CC CC CC CC CC CC CC CC CC CC CC CC ................
0041B250 CC CC CC CC CC CC CC CC CC CC CC CC CC CC CC CC ................

l0041B260:
	push	ebp
	mov	ebp,esp
	push	FF
	push	00421EF0
	mov	eax,fs:[00000000]
	push	eax
	sub	esp,000000CC
	push	ebx
	push	esi
	push	edi
	push	ecx
	lea	edi,[ebp-000000D8]
	mov	ecx,00000033
	mov	eax,CCCCCCCC

l0041B28B:
	rep stosd

l0041B28D:
	pop	ecx
	mov	eax,[00429014]
	xor	eax,ebp
	push	eax
	lea	eax,[ebp-0C]
	mov	fs:[00000000],eax
	mov	[ebp-14],ecx
	mov	ecx,0042C02B
	call	00411460
	mov	ecx,[ebp-14]
	call	0041128F
	mov	eax,[eax+14]
	mov	ecx,[ebp-0C]
	mov	fs:[00000000],ecx
	pop	ecx
	pop	edi
	pop	esi
	pop	ebx
	add	esp,000000D8
	cmp	ebp,esp
	call	00411488
	mov	esp,ebp
	pop	ebp
	ret
0041B2D6                   CC CC CC CC CC CC CC CC CC CC       ..........
0041B2E0 CC CC CC CC CC CC CC CC CC CC CC CC CC CC CC CC ................
0041B2F0 CC CC CC CC CC CC CC CC CC CC CC CC CC CC CC CC ................
0041B300 CC CC CC CC CC CC CC CC CC CC CC CC CC CC CC CC ................
0041B310 CC CC CC CC CC CC CC CC CC CC CC CC CC CC CC CC ................
0041B320 CC CC CC CC CC CC CC CC CC CC CC CC CC CC CC CC ................
0041B330 CC CC CC CC CC CC CC CC CC CC CC CC CC CC CC CC ................
0041B340 CC CC CC CC CC CC CC CC CC CC CC CC CC CC CC CC ................
0041B350 CC CC CC CC CC CC CC CC CC CC CC CC CC CC CC CC ................
0041B360 CC CC CC CC CC CC CC CC CC CC CC CC CC CC CC CC ................
0041B370 CC CC CC CC CC CC CC CC CC CC CC CC CC CC CC CC ................
0041B380 CC CC CC CC CC CC CC CC CC CC CC CC CC CC CC CC ................
0041B390 CC CC CC CC CC CC CC CC CC CC CC CC CC CC CC CC ................
0041B3A0 CC CC CC CC CC CC CC CC CC CC CC CC CC CC CC CC ................
0041B3B0 CC CC CC CC CC CC CC CC CC CC CC CC CC CC CC CC ................
0041B3C0 CC CC CC CC CC CC CC CC CC CC CC CC CC CC CC CC ................
0041B3D0 CC CC CC CC CC CC CC CC CC CC CC CC CC CC CC CC ................
0041B3E0 CC CC CC CC CC CC CC CC CC CC CC CC CC CC CC CC ................
0041B3F0 CC CC CC CC CC CC CC CC CC CC CC CC CC CC CC CC ................

;; fn0041B400: 0041B400
;;   Called from:
;;     0041A8BA (in fn0041A790)
fn0041B400 proc
	push	ebp
	mov	ebp,esp
	sub	esp,000000D0
	push	ebx
	push	esi
	push	edi
	lea	edi,[ebp-000000D0]
	mov	ecx,00000034
	mov	eax,CCCCCCCC

l0041B41C:
	rep stosd

l0041B41E:
	mov	ecx,0042C02A
	call	00411460
	mov	esi,esp
	push	004114CE
	push	004260F4
	mov	eax,[0042A09C]
	push	eax
	call	0041138E
	add	esp,08
	mov	ecx,eax
	call	dword ptr [0042A0A8]
	cmp	esi,esp
	call	00411488
	push	004292FC
	mov	eax,[0042A0F8]
	push	eax
	call	00411186
	add	esp,08
	mov	esi,esp
	push	00426130
	call	dword ptr [0042A204]
	add	esp,04
	cmp	esi,esp
	call	00411488
	push	00426134
	push	004292FC
	call	004110F5
	add	esp,08
	movzx	eax,al
	test	eax,eax
	jz	0041B4BF

l0041B494:
	mov	esi,esp
	push	004114CE
	push	00426138
	mov	eax,[0042A09C]
	push	eax
	call	0041138E
	add	esp,08
	mov	ecx,eax
	call	dword ptr [0042A0A8]
	cmp	esi,esp
	call	00411488
	jmp	0041B539

l0041B4BF:
	mov	esi,esp
	push	004114CE
	push	004292FC
	push	00426148
	mov	eax,[0042A09C]
	push	eax
	call	0041138E
	add	esp,08
	push	eax
	call	004113C0
	add	esp,08
	mov	ecx,eax
	call	dword ptr [0042A0A8]
	cmp	esi,esp
	call	00411488
	mov	eax,[00429004]
	mov	[ebp-000000D0],eax
	cmp	dword ptr [ebp-000000D0],00
	jz	0041B51C

l0041B50A:
	cmp	dword ptr [ebp-000000D0],01
	jz	0041B515

l0041B513:
	jmp	0041B539

l0041B515:
	call	00419F10
	jmp	0041B539

l0041B51C:
	sub	esp,1C
	mov	ecx,esp
	mov	[ebp-000000C8],esp
	push	004292FC
	call	004114A1
	call	0041B7D0
	add	esp,1C

l0041B539:
	pop	edi
	pop	esi
	pop	ebx
	add	esp,000000D0
	cmp	ebp,esp
	call	00411488
	mov	esp,ebp
	pop	ebp
	ret
0041B54D                                        CC CC CC              ...
0041B550 CC CC CC CC CC CC CC CC CC CC CC CC CC CC CC CC ................
0041B560 CC CC CC CC CC CC CC CC CC CC CC CC CC CC CC CC ................
0041B570 CC CC CC CC CC CC CC CC CC CC CC CC CC CC CC CC ................
0041B580 CC CC CC CC CC CC CC CC CC CC CC CC CC CC CC CC ................
0041B590 CC CC CC CC CC CC CC CC CC CC CC CC CC CC CC CC ................
0041B5A0 CC CC CC CC CC CC CC CC CC CC CC CC CC CC CC CC ................
0041B5B0 CC CC CC CC CC CC CC CC CC CC CC CC CC CC CC CC ................
0041B5C0 CC CC CC CC CC CC CC CC CC CC CC CC CC CC CC CC ................
0041B5D0 CC CC CC CC CC CC CC CC CC CC CC CC CC CC CC CC ................
0041B5E0 CC CC CC CC CC CC CC CC CC CC CC CC CC CC CC CC ................
0041B5F0 CC CC CC CC CC CC CC CC CC CC CC CC CC CC CC CC ................
0041B600 CC CC CC CC CC CC CC CC CC CC CC CC CC CC CC CC ................
0041B610 CC CC CC CC CC CC CC CC CC CC CC CC CC CC CC CC ................
0041B620 CC CC CC CC CC CC CC CC CC CC CC CC CC CC CC CC ................
0041B630 CC CC CC CC CC CC CC CC CC CC CC CC CC CC CC CC ................
0041B640 CC CC CC CC CC CC CC CC CC CC CC CC CC CC CC CC ................
0041B650 CC CC CC CC CC CC CC CC CC CC CC CC CC CC CC CC ................
0041B660 CC CC CC CC CC CC CC CC CC CC CC CC CC CC CC CC ................
0041B670 CC CC CC CC CC CC CC CC CC CC CC CC CC CC CC CC ................
0041B680 CC CC CC CC CC CC CC CC CC CC CC CC CC CC CC CC ................
0041B690 CC CC CC CC CC CC CC CC CC CC CC CC CC CC CC CC ................
0041B6A0 CC CC CC CC CC CC CC CC CC CC CC CC CC CC CC CC ................
0041B6B0 CC CC CC CC CC CC CC CC CC CC CC CC CC CC CC CC ................
0041B6C0 CC CC CC CC CC CC CC CC CC CC CC CC CC CC CC CC ................
0041B6D0 CC CC CC CC CC CC CC CC CC CC CC CC CC CC CC CC ................
0041B6E0 CC CC CC CC CC CC CC CC CC CC CC CC CC CC CC CC ................
0041B6F0 CC CC CC CC CC CC CC CC CC CC CC CC CC CC CC CC ................
0041B700 CC CC CC CC CC CC CC CC CC CC CC CC CC CC CC CC ................
0041B710 CC CC CC CC CC CC CC CC CC CC CC CC CC CC CC CC ................
0041B720 CC CC CC CC CC CC CC CC CC CC CC CC CC CC CC CC ................
0041B730 CC CC CC CC CC CC CC CC CC CC CC CC CC CC CC CC ................
0041B740 CC CC CC CC CC CC CC CC CC CC CC CC CC CC CC CC ................
0041B750 CC CC CC CC CC CC CC CC CC CC CC CC CC CC CC CC ................
0041B760 CC CC CC CC CC CC CC CC CC CC CC CC CC CC CC CC ................
0041B770 CC CC CC CC CC CC CC CC CC CC CC CC CC CC CC CC ................
0041B780 CC CC CC CC CC CC CC CC CC CC CC CC CC CC CC CC ................
0041B790 CC CC CC CC CC CC CC CC CC CC CC CC CC CC CC CC ................
0041B7A0 CC CC CC CC CC CC CC CC CC CC CC CC CC CC CC CC ................
0041B7B0 CC CC CC CC CC CC CC CC CC CC CC CC CC CC CC CC ................
0041B7C0 CC CC CC CC CC CC CC CC CC CC CC CC CC CC CC CC ................

;; fn0041B7D0: 0041B7D0
;;   Called from:
;;     0041B531 (in fn0041B400)
fn0041B7D0 proc
	push	ebp
	mov	ebp,esp
	push	FF
	push	00421F4E
	mov	eax,fs:[00000000]
	push	eax
	mov	eax,00001034
	call	00411005
	push	ebx
	push	esi
	push	edi
	lea	edi,[ebp-00001040]
	mov	ecx,0000040D
	mov	eax,CCCCCCCC

l0041B7FE:
	rep stosd

l0041B800:
	mov	eax,[00429014]
	xor	eax,ebp
	mov	[ebp-10],eax
	push	eax
	lea	eax,[ebp-0C]
	mov	fs:[00000000],eax
	mov	dword ptr [ebp-04],00000000
	mov	ecx,0042C02A
	call	00411460
	push	00425E60
	lea	ecx,[ebp-30]
	call	00411082
	mov	byte ptr [ebp-04],01
	push	00425E60
	lea	ecx,[ebp-54]
	call	00411082
	mov	byte ptr [ebp-04],02
	push	00411406
	push	0041111D
	push	64
	push	1C
	lea	eax,[ebp-00000B4C]
	push	eax
	call	00411122
	mov	byte ptr [ebp-04],03
	mov	dword ptr [ebp-00000B58],00000001
	mov	dword ptr [ebp-00000B64],00000000
	jmp	0041B88A

l0041B87B:
	mov	eax,[ebp-00000B64]
	add	eax,01
	mov	[ebp-00000B64],eax

l0041B88A:
	mov	ecx,004292FC
	call	0041114A
	add	eax,01
	cmp	[ebp-00000B64],eax
	jnc	0041B9A6

l0041B8A3:
	mov	eax,[ebp-00000B64]
	push	eax
	mov	ecx,004292FC
	call	004114C4
	mov	cl,[eax]
	movzx	edx,cl
	push	edx
	call	0041FE70
	add	esp,04
	lea	ecx,[ebp-30]
	call	0041114A
	cmp	eax,08
	jnc	0041B91E

l0041B8CF:
	mov	eax,[ebp-00000B64]
	push	eax
	mov	ecx,004292FC
	call	004114C4
	mov	cl,[eax]
	movzx	edx,cl
	push	edx
	lea	eax,[ebp-30]
	push	eax
	lea	ecx,[ebp-00001008]
	push	ecx
	call	00411474
	add	esp,0C
	mov	[ebp-00001040],eax
	mov	edx,[ebp-00001040]
	push	edx
	lea	ecx,[ebp-30]
	call	0041167C
	lea	ecx,[ebp-00001008]
	call	00411406
	jmp	0041B9A1

l0041B91E:
	lea	ecx,[ebp-30]
	call	0041114A
	cmp	eax,08
	jnz	0041B9A1

l0041B92B:
	sub	esp,1C
	mov	ecx,esp
	mov	[ebp-00001014],esp
	lea	eax,[ebp-30]
	push	eax
	call	004114A1
	call	00420430
	add	esp,1C
	movzx	eax,byte ptr [00429318]
	push	eax
	lea	ecx,[ebp-54]
	push	ecx
	lea	edx,[ebp-00001038]
	push	edx
	call	00411474
	add	esp,0C
	mov	[ebp-00001040],eax
	mov	eax,[ebp-00001040]
	push	eax
	lea	ecx,[ebp-54]
	call	0041167C
	lea	ecx,[ebp-00001038]
	call	00411406
	mov	eax,[ebp-00000B64]
	push	eax
	mov	ecx,004292FC
	call	004114C4
	mov	cl,[eax]
	movzx	edx,cl
	push	edx
	lea	ecx,[ebp-30]
	call	0041178F

l0041B9A1:
	jmp	0041B87B

l0041B9A6:
	mov	esi,esp
	push	004114CE
	lea	eax,[ebp-54]
	push	eax
	mov	edi,esp
	push	004114CE
	push	004260E0
	mov	ebx,esp
	push	004114CE
	mov	ecx,[0042A09C]
	call	dword ptr [0042A0A8]
	cmp	ebx,esp
	call	00411488
	push	eax
	call	0041138E
	add	esp,08
	mov	ecx,eax
	call	dword ptr [0042A0A8]
	cmp	edi,esp
	call	00411488
	push	eax
	call	004113C0
	add	esp,08
	mov	ecx,eax
	call	dword ptr [0042A0A8]
	cmp	esi,esp
	call	00411488
	mov	esi,esp
	push	004114CE
	mov	edi,esp
	push	004114CE
	mov	ecx,[0042A09C]
	call	dword ptr [0042A0A8]
	cmp	edi,esp
	call	00411488
	mov	ecx,eax
	call	dword ptr [0042A0A8]
	cmp	esi,esp
	call	00411488
	mov	byte ptr [ebp-04],02
	push	00411406
	push	64
	push	1C
	lea	eax,[ebp-00000B4C]
	push	eax
	call	0041142E
	mov	byte ptr [ebp-04],01
	lea	ecx,[ebp-54]
	call	00411406
	mov	byte ptr [ebp-04],00
	lea	ecx,[ebp-30]
	call	00411406
	mov	dword ptr [ebp-04],FFFFFFFF
	lea	ecx,[ebp+08]
	call	00411406
	push	edx
	mov	ecx,ebp
	push	eax
	lea	edx,[0041BAB4]
	call	004114D3
	pop	eax
	pop	edx
	mov	ecx,[ebp-0C]
	mov	fs:[00000000],ecx
	pop	ecx
	pop	edi
	pop	esi
	pop	ebx
	mov	ecx,[ebp-10]
	xor	ecx,ebp
	call	004113E3
	add	esp,00001040
	cmp	ebp,esp
	call	00411488
	mov	esp,ebp
	pop	ebp
	ret
0041BAB1    0F 1F 00 03 00 00 00 BC BA 41 00 D0 FF FF FF  .........A.....
0041BAC0 1C 00 00 00 EC BA 41 00 AC FF FF FF 1C 00 00 00 ......A.........
0041BAD0 E5 BA 41 00 B4 F4 FF FF F0 0A 00 00 E0 BA 41 00 ..A...........A.
0041BAE0 68 65 63 6B 00 66 69 6E 61 6C 6C 00 6C 65 6E 67 heck.finall.leng
0041BAF0 00 CC CC CC CC CC CC CC CC CC CC CC CC CC CC CC ................
0041BB00 CC CC CC CC CC CC CC CC CC CC CC CC CC CC CC CC ................
0041BB10 CC CC CC CC CC CC CC CC CC CC CC CC CC CC CC CC ................
0041BB20 CC CC CC CC CC CC CC CC CC CC CC CC CC CC CC CC ................
0041BB30 CC CC CC CC CC CC CC CC CC CC CC CC CC CC CC CC ................
0041BB40 CC CC CC CC CC CC CC CC CC CC CC CC CC CC CC CC ................
0041BB50 CC CC CC CC CC CC CC CC CC CC CC CC CC CC CC CC ................
0041BB60 CC CC CC CC CC CC CC CC CC CC CC CC CC CC CC CC ................
0041BB70 CC CC CC CC CC CC CC CC CC CC CC CC CC CC CC CC ................
0041BB80 CC CC CC CC CC CC CC CC CC CC CC CC CC CC CC CC ................
0041BB90 CC CC CC CC CC CC CC CC CC CC CC CC CC CC CC CC ................
0041BBA0 CC CC CC CC CC CC CC CC CC CC CC CC CC CC CC CC ................
0041BBB0 CC CC CC CC CC CC CC CC CC CC CC CC CC CC CC CC ................
0041BBC0 CC CC CC CC CC CC CC CC CC CC CC CC CC CC CC CC ................
0041BBD0 CC CC CC CC CC CC CC CC CC CC CC CC CC CC CC CC ................
0041BBE0 CC CC CC CC CC CC CC CC CC CC CC CC CC CC CC CC ................
0041BBF0 CC CC CC CC CC CC CC CC CC CC CC CC CC CC CC CC ................
0041BC00 CC CC CC CC CC CC CC CC CC CC CC CC CC CC CC CC ................
0041BC10 CC CC CC CC CC CC CC CC CC CC CC CC CC CC CC CC ................
0041BC20 CC CC CC CC CC CC CC CC CC CC CC CC CC CC CC CC ................
0041BC30 CC CC CC CC CC CC CC CC CC CC CC CC CC CC CC CC ................
0041BC40 CC CC CC CC CC CC CC CC CC CC CC CC CC CC CC CC ................
0041BC50 CC CC CC CC CC CC CC CC CC CC CC CC CC CC CC CC ................
0041BC60 CC CC CC CC CC CC CC CC CC CC CC CC CC CC CC CC ................
0041BC70 CC CC CC CC CC CC CC CC CC CC CC CC CC CC CC CC ................
0041BC80 CC CC CC CC CC CC CC CC CC CC CC CC CC CC CC CC ................
0041BC90 CC CC CC CC CC CC CC CC CC CC CC CC CC CC CC CC ................
0041BCA0 CC CC CC CC CC CC CC CC CC CC CC CC CC CC CC CC ................
0041BCB0 CC CC CC CC CC CC CC CC CC CC CC CC CC CC CC CC ................
0041BCC0 CC CC CC CC CC CC CC CC CC CC CC CC CC CC CC CC ................
0041BCD0 CC CC CC CC CC CC CC CC CC CC CC CC CC CC CC CC ................
0041BCE0 CC CC CC CC CC CC CC CC CC CC CC CC CC CC CC CC ................
0041BCF0 CC CC CC CC CC CC CC CC CC CC CC CC CC CC CC CC ................
0041BD00 CC CC CC CC CC CC CC CC CC CC CC CC CC CC CC CC ................
0041BD10 CC CC CC CC CC CC CC CC CC CC CC CC CC CC CC CC ................
0041BD20 CC CC CC CC CC CC CC CC CC CC CC CC CC CC CC CC ................
0041BD30 CC CC CC CC CC CC CC CC CC CC CC CC CC CC CC CC ................
0041BD40 CC CC CC CC CC CC CC CC CC CC CC CC CC CC CC CC ................
0041BD50 CC CC CC CC CC CC CC CC CC CC CC CC CC CC CC CC ................
0041BD60 CC CC CC CC CC CC CC CC CC CC CC CC CC CC CC CC ................
0041BD70 CC CC CC CC CC CC CC CC CC CC CC CC CC CC CC CC ................
0041BD80 CC CC CC CC CC CC CC CC CC CC CC CC CC CC CC CC ................
0041BD90 CC CC CC CC CC CC CC CC CC CC CC CC CC CC CC CC ................
0041BDA0 CC CC CC CC CC CC CC CC CC CC CC CC CC CC CC CC ................
0041BDB0 CC CC CC CC CC CC CC CC CC CC CC CC CC CC CC CC ................
0041BDC0 CC CC CC CC CC CC CC CC CC CC CC CC CC CC CC CC ................
0041BDD0 CC CC CC CC CC CC CC CC CC CC CC CC CC CC CC CC ................
0041BDE0 CC CC CC CC CC CC CC CC CC CC CC CC CC CC CC CC ................
0041BDF0 CC CC CC CC CC CC CC CC CC CC CC CC CC CC CC CC ................
0041BE00 CC CC CC CC CC CC CC CC CC CC CC CC CC CC CC CC ................
0041BE10 CC CC CC CC CC CC CC CC CC CC CC CC CC CC CC CC ................
0041BE20 CC CC CC CC CC CC CC CC CC CC CC CC CC CC CC CC ................
0041BE30 CC CC CC CC CC CC CC CC CC CC CC CC CC CC CC CC ................
0041BE40 CC CC CC CC CC CC CC CC CC CC CC CC CC CC CC CC ................
0041BE50 CC CC CC CC CC CC CC CC CC CC CC CC CC CC CC CC ................
0041BE60 CC CC CC CC CC CC CC CC CC CC CC CC CC CC CC CC ................
0041BE70 CC CC CC CC CC CC CC CC CC CC CC CC CC CC CC CC ................
0041BE80 CC CC CC CC CC CC CC CC CC CC CC CC CC CC CC CC ................
0041BE90 CC CC CC CC CC CC CC CC CC CC CC CC CC CC CC CC ................
0041BEA0 CC CC CC CC CC CC CC CC CC CC CC CC CC CC CC CC ................
0041BEB0 CC CC CC CC CC CC CC CC CC CC CC CC CC CC CC CC ................
0041BEC0 CC CC CC CC CC CC CC CC CC CC CC CC CC CC CC CC ................
0041BED0 CC CC CC CC CC CC CC CC CC CC CC CC CC CC CC CC ................
0041BEE0 CC CC CC CC CC CC CC CC CC CC CC CC CC CC CC CC ................
0041BEF0 CC CC CC CC CC CC CC CC CC CC CC CC CC CC CC CC ................
0041BF00 CC CC CC CC CC CC CC CC CC CC CC CC CC CC CC CC ................
0041BF10 CC CC CC CC CC CC CC CC CC CC CC CC CC CC CC CC ................
0041BF20 CC CC CC CC CC CC CC CC CC CC CC CC CC CC CC CC ................
0041BF30 CC CC CC CC CC CC CC CC CC CC CC CC CC CC CC CC ................
0041BF40 CC CC CC CC CC CC CC CC CC CC CC CC CC CC CC CC ................
0041BF50 CC CC CC CC CC CC CC CC CC CC CC CC CC CC CC CC ................
0041BF60 CC CC CC CC CC CC CC CC CC CC CC CC CC CC CC CC ................
0041BF70 CC CC CC CC CC CC CC CC CC CC CC CC CC CC CC CC ................

l0041BF80:
	push	ebp
	mov	ebp,esp
	push	FF
	push	00421F90
	mov	eax,fs:[00000000]
	push	eax
	sub	esp,000000C0
	push	ebx
	push	esi
	push	edi
	lea	edi,[ebp-000000CC]
	mov	ecx,00000030
	mov	eax,CCCCCCCC

l0041BFAA:
	rep stosd

l0041BFAC:
	mov	eax,[00429014]
	xor	eax,ebp
	push	eax
	lea	eax,[ebp-0C]
	mov	fs:[00000000],eax
	mov	ecx,0042C017
	call	00411460
	mov	eax,[ebp+08]
	mov	al,[eax]
	mov	ecx,[ebp-0C]
	mov	fs:[00000000],ecx
	pop	ecx
	pop	edi
	pop	esi
	pop	ebx
	add	esp,000000CC
	cmp	ebp,esp
	call	00411488
	mov	esp,ebp
	pop	ebp
	ret
0041BFEB                                  CC CC CC CC CC            .....
0041BFF0 CC CC CC CC CC CC CC CC CC CC CC CC CC CC CC CC ................
0041C000 CC CC CC CC CC CC CC CC CC CC CC CC CC CC CC CC ................
0041C010 CC CC CC CC CC CC CC CC CC CC CC CC CC CC CC CC ................
0041C020 55 8B EC 5D C3 CC CC CC CC CC CC CC CC CC CC CC U..]............
0041C030 CC CC CC CC CC CC CC CC CC CC CC CC CC CC CC CC ................
0041C040 CC CC CC CC CC CC CC CC CC CC CC CC CC CC CC CC ................
0041C050 CC CC CC CC CC CC CC CC CC CC CC CC CC CC CC CC ................
0041C060 CC CC CC CC CC CC CC CC CC CC CC CC CC CC CC CC ................
0041C070 CC CC CC FF 25 FC A0 42 00 FF 25 F4 A0 42 00 FF ....%..B..%..B..
0041C080 25 F0 A0 42 00 FF 25 EC A0 42 00 FF 25 E8 A0 42 %..B..%..B..%..B
0041C090 00 FF 25 E4 A0 42 00 FF 25 E0 A0 42 00 FF 25 DC ..%..B..%..B..%.
0041C0A0 A0 42 00 FF 25 D8 A0 42 00 FF 25 D4 A0 42 00 FF .B..%..B..%..B..
0041C0B0 25 D0 A0 42 00 FF 25 CC A0 42 00 FF 25 C8 A0 42 %..B..%..B..%..B
0041C0C0 00 FF 25 C4 A0 42 00 FF 25 C0 A0 42 00 FF 25 BC ..%..B..%..B..%.
0041C0D0 A0 42 00 FF 25 B8 A0 42 00 FF 25 B4 A0 42 00 FF .B..%..B..%..B..
0041C0E0 25 B0 A0 42 00 FF 25 AC A0 42 00 FF 25 A8 A0 42 %..B..%..B..%..B
0041C0F0 00 FF 25 A4 A0 42 00 FF 25 A0 A0 42 00 FF 25 98 ..%..B..%..B..%.
0041C100 A0 42 00 CC CC CC CC CC CC CC CC CC CC CC CC CC .B..............
0041C110 55 8B EC 8B 45 18 50 8B 4D 14 51 8B 55 10 52 8B U...E.P.M.Q.U.R.
0041C120 45 0C 50 8B 4D 08 51 E8 F6 4F FF FF 5D C2 14 00 E.P.M.Q..O..]...
0041C130 CC CC CC CC CC CC CC CC CC CC CC CC CC CC CC CC ................

l0041C140:
	push	ebp
	mov	ebp,esp
	push	FE
	push	004288B8
	push	0041D560
	mov	eax,fs:[00000000]
	push	eax
	add	esp,EC
	push	ebx
	push	esi
	push	edi
	mov	eax,[00429014]
	xor	[ebp-08],eax
	xor	eax,ebp
	push	eax
	lea	eax,[ebp-10]
	mov	fs:[00000000],eax
	mov	dword ptr [ebp-20],00000000
	mov	byte ptr [ebp-19],00
	mov	dword ptr [ebp-04],00000000
	jmp	0041C18D

l0041C184:
	mov	eax,[ebp-20]
	add	eax,01
	mov	[ebp-20],eax

l0041C18D:
	mov	ecx,[ebp-20]
	cmp	ecx,[ebp+10]
	jz	0041C1B5

l0041C195:
	mov	edx,[ebp+14]
	mov	[ebp-24],edx
	mov	ecx,[ebp-24]
	call	dword ptr [0042D000]
	mov	ecx,[ebp+08]
	call	dword ptr [ebp-24]
	mov	eax,[ebp+08]
	add	eax,[ebp+0C]
	mov	[ebp+08],eax
	jmp	0041C184

l0041C1B5:
	mov	byte ptr [ebp-19],01
	mov	dword ptr [ebp-04],FFFFFFFE
	call	0041C1C7
	jmp	0041C1E5

;; fn0041C1C7: 0041C1C7
;;   Called from:
;;     0041C1C0 (in fn00411122)
fn0041C1C7 proc
	movzx	ecx,byte ptr [ebp-19]
	test	ecx,ecx
	jnz	0041C1E4

l0041C1CF:
	mov	edx,[ebp+18]
	push	edx
	mov	eax,[ebp-20]
	push	eax
	mov	ecx,[ebp+0C]
	push	ecx
	mov	edx,[ebp+08]
	push	edx
	call	00411735

l0041C1E4:
	ret

l0041C1E5:
	mov	ecx,[ebp-10]
	mov	fs:[00000000],ecx
	pop	ecx
	pop	edi
	pop	esi
	pop	ebx
	mov	esp,ebp
	pop	ebp
	ret	0014
0041C1F9                            CC CC CC CC CC CC CC          .......
0041C200 CC CC CC CC CC CC CC CC CC CC CC CC CC CC CC CC ................
0041C210 CC CC CC CC CC CC CC CC CC CC CC CC CC CC CC CC ................
0041C220 CC CC CC CC CC CC CC CC CC CC CC CC CC CC CC CC ................
0041C230 55 8B EC 8B 45 14 50 8B 4D 10 51 8B 55 0C 52 8B U...E.P.M.Q.U.R.
0041C240 45 08 50 E8 E6 51 FF FF 5D C2 10 00 CC CC CC CC E.P..Q..].......
0041C250 CC CC CC CC CC CC CC CC CC CC CC CC CC CC CC CC ................

l0041C260:
	push	ebp
	mov	ebp,esp
	push	FE
	push	004288D8
	push	0041D560
	mov	eax,fs:[00000000]
	push	eax
	add	esp,EC
	push	ebx
	push	esi
	push	edi
	mov	eax,[00429014]
	xor	[ebp-08],eax
	xor	eax,ebp
	push	eax
	lea	eax,[ebp-10]
	mov	fs:[00000000],eax
	mov	byte ptr [ebp-19],00
	mov	eax,[ebp+0C]
	imul	eax,[ebp+10]
	add	eax,[ebp+08]
	mov	[ebp+08],eax
	mov	dword ptr [ebp-04],00000000

l0041C2A8:
	mov	ecx,[ebp+10]
	mov	[ebp-24],ecx
	mov	edx,[ebp+10]
	sub	edx,01
	mov	[ebp+10],edx
	cmp	dword ptr [ebp-24],00
	jbe	0041C2DD

l0041C2BD:
	mov	eax,[ebp+08]
	sub	eax,[ebp+0C]
	mov	[ebp+08],eax
	mov	ecx,[ebp+14]
	mov	[ebp-20],ecx
	mov	ecx,[ebp-20]
	call	dword ptr [0042D000]
	mov	ecx,[ebp+08]
	call	dword ptr [ebp-20]
	jmp	0041C2A8

l0041C2DD:
	mov	byte ptr [ebp-19],01
	mov	dword ptr [ebp-04],FFFFFFFE
	call	0041C2EF
	jmp	0041C30D

;; fn0041C2EF: 0041C2EF
;;   Called from:
;;     0041C2E8 (in fn0041142E)
fn0041C2EF proc
	movzx	edx,byte ptr [ebp-19]
	test	edx,edx
	jnz	0041C30C

l0041C2F7:
	mov	eax,[ebp+14]
	push	eax
	mov	ecx,[ebp+10]
	push	ecx
	mov	edx,[ebp+0C]
	push	edx
	mov	eax,[ebp+08]
	push	eax
	call	00411735

l0041C30C:
	ret

l0041C30D:
	mov	ecx,[ebp-10]
	mov	fs:[00000000],ecx
	pop	ecx
	pop	edi
	pop	esi
	pop	ebx
	mov	esp,ebp
	pop	ebp
	ret	0010
0041C321    CC CC CC CC CC CC CC CC CC CC CC CC CC CC CC  ...............
0041C330 CC CC CC CC CC CC CC CC CC CC CC CC CC CC CC CC ................
0041C340 CC CC CC CC CC CC CC CC CC CC CC CC CC CC CC CC ................
0041C350 CC CC CC CC CC CC CC CC CC CC CC CC CC CC CC CC ................
0041C360 55 8B EC 83 EC 08 8B 45 08 8B 08 89 4D FC 8B 55 U......E....M..U
0041C370 FC 8B 02 89 45 F8 81 7D F8 63 73 6D E0 74 02 EB ....E..}.csm.t..
0041C380 05 E8 1F 4D FF FF 33 C0 8B E5 5D C3 CC CC CC CC ...M..3...].....
0041C390 CC CC CC CC CC CC CC CC CC CC CC CC CC CC CC CC ................

;; fn0041C3A0: 0041C3A0
;;   Called from:
;;     00411735 (in fn00411735)
fn0041C3A0 proc
	push	ebp
	mov	ebp,esp
	push	FE
	push	004288F8
	push	0041D560
	mov	eax,fs:[00000000]
	push	eax
	add	esp,F0
	push	ebx
	push	esi
	push	edi
	mov	eax,[00429014]
	xor	[ebp-08],eax
	xor	eax,ebp
	push	eax
	lea	eax,[ebp-10]
	mov	fs:[00000000],eax
	mov	[ebp-18],esp
	mov	dword ptr [ebp-04],00000000
	mov	dword ptr [ebp-1C],00000000
	jmp	0041C3EC

l0041C3E3:
	mov	eax,[ebp-1C]
	add	eax,01
	mov	[ebp-1C],eax

l0041C3EC:
	mov	ecx,[ebp-1C]
	cmp	ecx,[ebp+10]
	jz	0041C414

l0041C3F4:
	mov	edx,[ebp+08]
	sub	edx,[ebp+0C]
	mov	[ebp+08],edx
	mov	eax,[ebp+14]
	mov	[ebp-20],eax
	mov	ecx,[ebp-20]
	call	dword ptr [0042D000]
	mov	ecx,[ebp+08]
	call	dword ptr [ebp-20]
	jmp	0041C3E3

l0041C414:
	mov	dword ptr [ebp-04],FFFFFFFE
	jmp	0041C434
0041C41D                                        8B 4D EC              .M.
0041C420 51 E8 3A FF FF FF 83 C4 04 C3 8B 65 E8 C7 45 FC Q.:........e..E.
0041C430 FE FF FF FF                                     ....           

l0041C434:
	mov	ecx,[ebp-10]
	mov	fs:[00000000],ecx
	pop	ecx
	pop	edi
	pop	esi
	pop	ebx
	mov	esp,ebp
	pop	ebp
	ret	0010
0041C448                         CC CC CC CC CC CC CC CC         ........
0041C450 CC CC CC CC CC CC CC CC CC CC CC CC CC CC CC CC ................
0041C460 CC CC CC CC CC CC CC CC CC CC CC CC CC CC CC CC ................
0041C470 CC CC CC CC CC CC CC CC CC CC CC CC CC CC CC CC ................

l0041C480:
	push	ebp
	mov	ebp,esp
	push	ecx

l0041C484:
	mov	eax,[ebp+08]
	push	eax
	call	004114A6
	add	esp,04
	mov	[ebp-04],eax
	cmp	dword ptr [ebp-04],00
	jz	0041C49E

l0041C499:
	mov	eax,[ebp-04]
	jmp	0041C4C2

l0041C49E:
	mov	ecx,[ebp+08]
	push	ecx
	call	004110F0
	add	esp,04
	test	eax,eax
	jnz	0041C4C0

l0041C4AE:
	cmp	dword ptr [ebp+08],FF
	jnz	0041C4BB

l0041C4B4:
	call	00411384
	jmp	0041C4C0

l0041C4BB:
	call	0041169F

l0041C4C0:
	jmp	0041C484

l0041C4C2:
	mov	esp,ebp
	pop	ebp
	ret
0041C4C6                   CC CC CC CC CC CC CC CC CC CC       ..........
0041C4D0 CC CC CC CC CC CC CC CC CC CC CC CC CC CC CC CC ................

l0041C4E0:
	push	ebp
	mov	ebp,esp
	mov	eax,[ebp+08]
	push	eax
	call	00411249
	add	esp,04
	pop	ebp
	ret
0041C4F1    CC CC CC CC CC CC CC CC CC CC CC CC CC CC CC  ...............
0041C500 55 8B EC A1 14 90 42 00 33 D2 B9 20 00 00 00 F7 U.....B.3.. ....
0041C510 F1 52 8B 55 08 33 15 14 90 42 00 52 E8 52 4B FF .R.U.3...B.R.RK.
0041C520 FF 83 C4 08 5D C3 CC CC CC CC CC CC CC CC CC CC ....]...........
0041C530 55 8B EC A1 14 90 42 00 33 D2 B9 20 00 00 00 F7 U.....B.3.. ....
0041C540 F1 B8 20 00 00 00 2B C2 50 8B 4D 08 51 E8 21 4B .. ...+.P.M.Q.!K
0041C550 FF FF 83 C4 08 33 05 14 90 42 00 5D C3 CC CC CC .....3...B.]....
0041C560 CC CC CC CC CC CC CC CC CC CC CC CC CC CC CC CC ................
0041C570 55 8B EC 8B 45 08 8B 4D 0C D3 C8 5D C3 CC CC CC U...E..M...]....
0041C580 55 8B EC E8 7C 50 FF FF 50 E8 A9 4F FF FF 83 C4 U...|P..P..O....
0041C590 04 5D C3 CC CC CC CC CC CC CC CC CC CC CC CC CC .]..............

;; fn0041C5A0: 0041C5A0
;;   Called from:
;;     0041CAEE (in fn00411398)
fn0041C5A0 proc
	push	ebp
	mov	ebp,esp
	sub	esp,18
	mov	eax,[ebp+08]
	mov	[ebp-0C],eax
	mov	ecx,[ebp-0C]
	mov	edx,[ebp-0C]
	add	edx,[ecx+3C]
	mov	[ebp-14],edx
	mov	eax,[ebp-14]
	mov	[ebp-08],eax
	mov	ecx,[ebp-08]
	movzx	edx,word ptr [ecx+14]
	mov	eax,[ebp-08]
	lea	ecx,[eax+edx+18]
	mov	[ebp-10],ecx
	mov	edx,[ebp-08]
	movzx	eax,word ptr [edx+06]
	imul	ecx,eax,28
	add	ecx,[ebp-10]
	mov	[ebp-18],ecx
	mov	edx,[ebp-10]
	mov	[ebp-04],edx
	jmp	0041C5F0

l0041C5E7:
	mov	eax,[ebp-04]
	add	eax,28
	mov	[ebp-04],eax

l0041C5F0:
	mov	ecx,[ebp-04]
	cmp	ecx,[ebp-18]
	jz	0041C61B

l0041C5F8:
	mov	edx,[ebp-04]
	mov	eax,[ebp+0C]
	cmp	eax,[edx+0C]
	jc	0041C619

l0041C603:
	mov	ecx,[ebp-04]
	mov	edx,[ecx+0C]
	mov	eax,[ebp-04]
	add	edx,[eax+08]
	cmp	[ebp+0C],edx
	jnc	0041C619

l0041C614:
	mov	eax,[ebp-04]
	jmp	0041C61D

l0041C619:
	jmp	0041C5E7

l0041C61B:
	xor	eax,eax

l0041C61D:
	mov	esp,ebp
	pop	ebp
	ret
0041C621    CC CC CC CC CC CC CC CC CC CC CC CC CC CC CC  ...............
0041C630 CC CC CC CC CC CC CC CC CC CC CC CC CC CC CC CC ................
0041C640 CC CC CC CC CC CC CC CC CC CC CC CC CC CC CC CC ................
0041C650 55 8B EC E8 29 50 FF FF 5D C3 CC CC CC CC CC CC U...)P..].......

;; fn0041C660: 0041C660
;;   Called from:
;;     0041CABB (in fn00411398)
fn0041C660 proc
	push	ebp
	mov	ebp,esp
	sub	esp,10
	cmp	dword ptr [ebp+08],00
	jnz	0041C670

l0041C66C:
	xor	al,al
	jmp	0041C6C5

l0041C670:
	mov	eax,[ebp+08]
	mov	[ebp-04],eax
	mov	ecx,[ebp-04]
	movzx	edx,word ptr [ecx]
	cmp	edx,00005A4D
	jz	0041C688

l0041C684:
	xor	al,al
	jmp	0041C6C5

l0041C688:
	mov	eax,[ebp-04]
	mov	ecx,[ebp-04]
	add	ecx,[eax+3C]
	mov	[ebp-0C],ecx
	mov	edx,[ebp-0C]
	mov	[ebp-08],edx
	mov	eax,[ebp-08]
	cmp	dword ptr [eax],00004550
	jz	0041C6A9

l0041C6A5:
	xor	al,al
	jmp	0041C6C5

l0041C6A9:
	mov	ecx,[ebp-08]
	add	ecx,18
	mov	[ebp-10],ecx
	mov	edx,[ebp-10]
	movzx	eax,word ptr [edx]
	cmp	eax,0000010B
	jz	0041C6C3

l0041C6BF:
	xor	al,al
	jmp	0041C6C5

l0041C6C3:
	mov	al,01

l0041C6C5:
	mov	esp,ebp
	pop	ebp
	ret
0041C6C9                            CC CC CC CC CC CC CC          .......
0041C6D0 CC CC CC CC CC CC CC CC CC CC CC CC CC CC CC CC ................
0041C6E0 CC CC CC CC CC CC CC CC CC CC CC CC CC CC CC CC ................

l0041C6F0:
	push	ebp
	mov	ebp,esp
	mov	eax,fs:[00000018]
	pop	ebp
	ret
0041C6FB                                  CC CC CC CC CC            .....

l0041C700:
	push	ebp
	mov	ebp,esp
	sub	esp,08
	call	004111BD
	test	eax,eax
	jnz	0041C713

l0041C70F:
	xor	al,al
	jmp	0041C745

l0041C713:
	call	00411771
	mov	eax,[eax+04]
	mov	[ebp-04],eax

l0041C71E:
	mov	ecx,[ebp-04]
	mov	edx,00429328
	xor	eax,eax
	lock
	cmpxchg	[edx],ecx
	mov	[ebp-08],eax
	cmp	dword ptr [ebp-08],00
	jz	0041C743

l0041C735:
	mov	eax,[ebp-04]
	cmp	eax,[ebp-08]
	jnz	0041C741

l0041C73D:
	mov	al,01
	jmp	0041C745

l0041C741:
	jmp	0041C71E

l0041C743:
	xor	al,al

l0041C745:
	mov	esp,ebp
	pop	ebp
	ret
0041C749                            CC CC CC CC CC CC CC          .......
0041C750 CC CC CC CC CC CC CC CC CC CC CC CC CC CC CC CC ................
0041C760 55 8B EC E8 55 4A FF FF 85 C0 74 07 E8 A3 48 FF U...UJ....t...H.
0041C770 FF EB 12 E8 8B 4F FF FF 85 C0 74 04 32 C0 EB 07 .....O....t.2...
0041C780 E8 35 4D FF FF B0 01 5D C3 CC CC CC CC CC CC CC .5M....]........
0041C790 CC CC CC CC CC CC CC CC CC CC CC CC CC CC CC CC ................
0041C7A0 55 8B EC 6A 00 E8 AB 48 FF FF 83 C4 04 0F B6 C0 U..j...H........
0041C7B0 85 C0 75 04 32 C0 EB 02 B0 01 5D C3 CC CC CC CC ..u.2.....].....
0041C7C0 CC CC CC CC CC CC CC CC CC CC CC CC CC CC CC CC ................
0041C7D0 55 8B EC E8 95 49 FF FF 0F B6 C0 85 C0 75 04 32 U....I.......u.2
0041C7E0 C0 EB 17 E8 69 4C FF FF 0F B6 C8 85 C9 75 09 E8 ....iL.......u..
0041C7F0 7A 4D FF FF 32 C0 EB 02 B0 01 5D C3 CC CC CC CC zM..2.....].....
0041C800 CC CC CC CC CC CC CC CC CC CC CC CC CC CC CC CC ................
0041C810 55 8B EC E8 28 49 FF FF E8 51 4D FF FF B0 01 5D U...(I...QM....]
0041C820 C3 CC CC CC CC CC CC CC CC CC CC CC CC CC CC CC ................
0041C830 55 8B EC 51 E8 84 49 FF FF 85 C0 75 22 83 7D 0C U..Q..I....u".}.
0041C840 01 75 1C 8B 45 10 50 6A 00 8B 4D 08 51 8B 55 14 .u..E.Pj..M.Q.U.
0041C850 89 55 FC 8B 4D FC FF 15 00 D0 42 00 FF 55 FC 8B .U..M.....B..U..
0041C860 45 1C 50 8B 4D 18 51 E8 86 4B FF FF 83 C4 08 8B E.P.M.Q..K......
0041C870 E5 5D C3 CC CC CC CC CC CC CC CC CC CC CC CC CC .]..............
0041C880 CC CC CC CC CC CC CC CC CC CC CC CC CC CC CC CC ................
0041C890 55 8B EC E8 25 49 FF FF 85 C0 74 0F 68 30 93 42 U...%I....t.h0.B
0041C8A0 00 E8 30 49 FF FF 83 C4 04 EB 0E E8 A9 48 FF FF ..0I.........H..
0041C8B0 85 C0 75 05 E8 74 47 FF FF 5D C3 CC CC CC CC CC ..u..tG..]......
0041C8C0 CC CC CC CC CC CC CC CC CC CC CC CC CC CC CC CC ................
0041C8D0 55 8B EC 6A 00 E8 D4 4D FF FF 83 C4 04 E8 BE 4C U..j...M.......L
0041C8E0 FF FF 5D C3 CC CC CC CC CC CC CC CC CC CC CC CC ..].............

l0041C8F0:
	push	ebp
	mov	ebp,esp
	cmp	dword ptr [ebp+08],00
	jnz	0041C900

l0041C8F9:
	mov	byte ptr [0042932C],01

l0041C900:
	call	00411014
	call	00411299
	movzx	eax,al
	test	eax,eax
	jnz	0041C915

l0041C911:
	xor	al,al
	jmp	0041C931

l0041C915:
	call	004115D2
	movzx	ecx,al
	test	ecx,ecx
	jnz	0041C92F

l0041C921:
	push	00
	call	004111DB
	add	esp,04
	xor	al,al
	jmp	0041C931

l0041C92F:
	mov	al,01

l0041C931:
	pop	ebp
	ret
0041C933          CC CC CC CC CC CC CC CC CC CC CC CC CC    .............
0041C940 CC CC CC CC CC CC CC CC CC CC CC CC CC CC CC CC ................
0041C950 55 8B EC 83 EC 1C 0F B6 05 2D 93 42 00 85 C0 74 U........-.B...t
0041C960 07 B0 01 E9 BF 00 00 00 83 7D 08 00 74 0D 83 7D .........}..t..}
0041C970 08 01 74 07 6A 05 E8 6B 4C FF FF E8 3D 48 FF FF ..t.j..kL...=H..
0041C980 85 C0 74 35 83 7D 08 00 75 2F 68 30 93 42 00 E8 ..t5.}..u/h0.B..
0041C990 9C 48 FF FF 83 C4 04 85 C0 74 07 32 C0 E9 85 00 .H.......t.2....
0041C9A0 00 00 68 3C 93 42 00 E8 84 48 FF FF 83 C4 04 85 ..h<.B...H......
0041C9B0 C0 74 04 32 C0 EB 70 EB 65 6A FF E8 B1 48 FF FF .t.2..p.ej...H..
0041C9C0 83 C4 04 89 45 FC 8B 4D FC 89 4D F0 8B 55 FC 89 ....E..M..M..U..
0041C9D0 55 F4 8B 45 FC 89 45 F8 8B 4D F0 89 0D 30 93 42 U..E..E..M...0.B
0041C9E0 00 8B 55 F4 89 15 34 93 42 00 8B 45 F8 A3 38 93 ..U...4.B..E..8.
0041C9F0 42 00 8B 4D FC 89 4D E4 8B 55 FC 89 55 E8 8B 45 B..M..M..U..U..E
0041CA00 FC 89 45 EC 8B 4D E4 89 0D 3C 93 42 00 8B 55 E8 ..E..M...<.B..U.
0041CA10 89 15 40 93 42 00 8B 45 EC A3 44 93 42 00 C6 05 ..@.B..E..D.B...
0041CA20 2D 93 42 00 01 B0 01 8B E5 5D C3 CC CC CC CC CC -.B......]......
0041CA30 CC CC CC CC CC CC CC CC CC CC CC CC CC CC CC CC ................
0041CA40 CC CC CC CC CC CC CC CC CC CC CC CC CC CC CC CC ................
0041CA50 CC CC CC CC CC CC CC CC CC CC CC CC CC CC CC CC ................
0041CA60 CC CC CC CC CC CC CC CC CC CC CC CC CC CC CC CC ................

l0041CA70:
	push	ebp
	mov	ebp,esp
	push	FE
	push	00428918
	push	0041D560
	mov	eax,fs:[00000000]
	push	eax
	add	esp,D8
	push	ebx
	push	esi
	push	edi
	mov	eax,[00429014]
	xor	[ebp-08],eax
	xor	eax,ebp
	push	eax
	lea	eax,[ebp-10]
	mov	fs:[00000000],eax
	mov	[ebp-18],esp
	mov	eax,[ebp+08]
	mov	[ebp-30],eax
	mov	dword ptr [ebp-24],00400000
	mov	dword ptr [ebp-04],00000000
	mov	ecx,[ebp-24]
	push	ecx
	call	0041C660
	add	esp,04
	movzx	edx,al
	test	edx,edx
	jnz	0041CADD

l0041CACA:
	mov	byte ptr [ebp-19],00
	mov	dword ptr [ebp-04],FFFFFFFE
	mov	al,[ebp-19]
	jmp	0041CB87

l0041CADD:
	mov	eax,[ebp-30]
	sub	eax,[ebp-24]
	mov	[ebp-34],eax
	mov	ecx,[ebp-34]
	push	ecx
	mov	edx,[ebp-24]
	push	edx
	call	0041C5A0
	add	esp,08
	mov	[ebp-28],eax
	cmp	dword ptr [ebp-28],00
	jnz	0041CB0F

l0041CAFF:
	mov	byte ptr [ebp-1A],00
	mov	dword ptr [ebp-04],FFFFFFFE
	mov	al,[ebp-1A]
	jmp	0041CB87

l0041CB0F:
	mov	eax,[ebp-28]
	mov	ecx,[eax+24]
	and	ecx,80000000
	jz	0041CB2D

l0041CB1D:
	mov	byte ptr [ebp-1B],00
	mov	dword ptr [ebp-04],FFFFFFFE
	mov	al,[ebp-1B]
	jmp	0041CB87

l0041CB2D:
	mov	byte ptr [ebp-1C],01
	mov	dword ptr [ebp-04],FFFFFFFE
	mov	al,[ebp-1C]
	jmp	0041CB87
0041CB3D                                        C7 45 FC              .E.
0041CB40 FE FF FF FF EB 41 8B 55 EC 8B 02 8B 08 89 4D C8 .....A.U......M.
0041CB50 81 7D C8 05 00 00 C0 75 09 C7 45 D4 01 00 00 00 .}.....u..E.....
0041CB60 EB 07 C7 45 D4 00 00 00 00 8B 45 D4 C3 8B 65 E8 ...E......E...e.
0041CB70 C6 45 E3 00 C7 45 FC FE FF FF FF 8A 45 E3 EB 07 .E...E......E...
0041CB80 C7 45 FC FE FF FF FF                            .E.....        

l0041CB87:
	mov	ecx,[ebp-10]
	mov	fs:[00000000],ecx
	pop	ecx
	pop	edi
	pop	esi
	pop	ebx
	mov	esp,ebp
	pop	ebp
	ret
0041CB99                            CC CC CC CC CC CC CC          .......
0041CBA0 CC CC CC CC CC CC CC CC CC CC CC CC CC CC CC CC ................
0041CBB0 CC CC CC CC CC CC CC CC CC CC CC CC CC CC CC CC ................
0041CBC0 CC CC CC CC CC CC CC CC CC CC CC CC CC CC CC CC ................
0041CBD0 CC CC CC CC CC CC CC CC CC CC CC CC CC CC CC CC ................
0041CBE0 CC CC CC CC CC CC CC CC CC CC CC CC CC CC CC CC ................

l0041CBF0:
	push	ebp
	mov	ebp,esp
	call	004111BD
	test	eax,eax
	jnz	0041CBFE

l0041CBFC:
	jmp	0041CC11

l0041CBFE:
	movzx	eax,byte ptr [ebp+08]
	test	eax,eax
	jz	0041CC08

l0041CC06:
	jmp	0041CC11

l0041CC08:
	xor	ecx,ecx
	mov	edx,00429328
	xchg	[edx],ecx

l0041CC11:
	pop	ebp
	ret
0041CC13          CC CC CC CC CC CC CC CC CC CC CC CC CC    .............

l0041CC20:
	push	ebp
	mov	ebp,esp
	movzx	eax,byte ptr [0042932C]
	test	eax,eax
	jz	0041CC3A

l0041CC2E:
	movzx	ecx,byte ptr [ebp+0C]
	test	ecx,ecx
	jz	0041CC3A

l0041CC36:
	mov	al,01
	jmp	0041CC56

l0041CC3A:
	movzx	edx,byte ptr [ebp+08]
	push	edx
	call	004110FF
	add	esp,04
	movzx	eax,byte ptr [ebp+08]
	push	eax
	call	004111DB
	add	esp,04
	mov	al,01

l0041CC56:
	pop	ebp
	ret
0041CC58                         CC CC CC CC CC CC CC CC         ........
0041CC60 CC CC CC CC CC CC CC CC CC CC CC CC CC CC CC CC ................
0041CC70 55 8B EC 83 EC 0C A1 30 93 42 00 50 E8 5F 4A FF U......0.B.P._J.
0041CC80 FF 83 C4 04 89 45 F4 83 7D F4 FF 75 26 8B 4D 08 .....E..}..u&.M.
0041CC90 51 E8 8D 43 FF FF 83 C4 04 85 C0 75 08 8B 55 08 Q..C.......u..U.
0041CCA0 89 55 FC EB 07 C7 45 FC 00 00 00 00 8B 45 FC EB .U....E......E..
0041CCB0 29 EB 27 8B 45 08 50 68 30 93 42 00 E8 3E 49 FF ).'.E.Ph0.B..>I.
0041CCC0 FF 83 C4 08 85 C0 75 08 8B 4D 08 89 4D F8 EB 07 ......u..M..M...
0041CCD0 C7 45 F8 00 00 00 00 8B 45 F8 8B E5 5D C3 CC CC .E......E...]...
0041CCE0 CC CC CC CC CC CC CC CC CC CC CC CC CC CC CC CC ................
0041CCF0 CC CC CC CC CC CC CC CC CC CC CC CC CC CC CC CC ................
0041CD00 55 8B EC 83 EC 08 A1 3C 93 42 00 50 E8 CF 49 FF U......<.B.P..I.
0041CD10 FF 83 C4 04 89 45 FC 83 7D FC FF 75 10 8B 4D 08 .....E..}..u..M.
0041CD20 51 E8 E4 47 FF FF 83 C4 04 EB 19 EB 17 8B 55 08 Q..G..........U.
0041CD30 89 55 F8 8B 45 F8 50 68 3C 93 42 00 E8 BE 48 FF .U..E.Ph<.B...H.
0041CD40 FF 83 C4 08 8B E5 5D C3 CC CC CC CC CC CC CC CC ......].........
0041CD50 CC CC CC CC CC CC CC CC CC CC CC CC CC CC CC CC ................
0041CD60 55 8B EC 51 8B 45 08 50 E8 43 47 FF FF 83 C4 04 U..Q.E.P.CG.....
0041CD70 85 C0 74 09 C7 45 FC 00 00 00 00 EB 07 C7 45 FC ..t..E........E.
0041CD80 FF FF FF FF 8B 45 FC 8B E5 5D C3 CC CC CC CC CC .....E...]......
0041CD90 CC CC CC CC CC CC CC CC CC CC CC CC CC CC CC CC ................
0041CDA0 55 8B EC 53 56 8B F1 8B DA 85 F6 74 1F 85 DB 74 U..SV......t...t
0041CDB0 1B 8B 55 08 85 D2 74 14 57 B0 CC 8B FE 8B CB F3 ..U...t.W.......
0041CDC0 AA 8B 02 89 46 04 89 5E 0C 89 32 5F 5E 5B 5D C2 ....F..^..2_^[].
0041CDD0 04 00 CC CC CC CC CC CC CC CC CC CC CC CC CC CC ................
0041CDE0 55 8B EC 83 EC 08 53 8B DA 8B C1 89 45 F8 56 57 U.....S.....E.VW
0041CDF0 85 DB 74 4A 33 F6 39 33 7E 44 83 C0 FC 33 FF 89 ..tJ3.93~D...3..
0041CE00 45 FC 8B 4B 04 8B 45 FC 8B 14 39 81 3C 02 CC CC E..K..E...9.<...
0041CE10 CC CC 75 12 8B 44 39 04 03 C2 8B 55 F8 81 3C 10 ..u..D9....U..<.
0041CE20 CC CC CC CC 74 10 FF 74 39 08 8B 45 04 50 E8 15 ....t..t9..E.P..
0041CE30 45 FF FF 83 C4 08 46 83 C7 0C 3B 33 7C C4 8B 75 E.....F...;3|..u
0041CE40 08 33 FF 8B C6 85 F6 74 6B 8D A4 24 00 00 00 00 .3.....tk..$....
0041CE50 8B 40 04 47 85 C0 75 F8 85 F6 74 58 8D 64 24 00 .@.G..u...tX.d$.
0041CE60 81 3E CC CC CC CC 75 1B 81 7E 14 CC CC CC CC 75 .>....u..~.....u
0041CE70 12 81 7E 18 CC CC CC CC 75 09 81 7E 1C CC CC CC ..~.....u..~....
0041CE80 CC 74 0E 8B 45 04 57 56 50 E8 80 42 FF FF 83 C4 .t..E.WVP..B....
0041CE90 0C 8B 46 0C 81 7C 30 FC CC CC CC CC 74 0E 8B 45 ..F..|0.....t..E
0041CEA0 04 57 56 50 E8 65 42 FF FF 83 C4 0C 8B 76 04 4F .WVP.eB......v.O
0041CEB0 85 F6 75 AC 5F 5E 5B 8B E5 5D C2 04 00 CC CC CC ..u._^[..]......
0041CEC0 CC CC CC CC CC CC CC CC CC CC CC CC CC CC CC CC ................
0041CED0 CC CC CC CC CC CC CC CC CC CC CC CC CC CC CC CC ................
0041CEE0 CC CC CC CC CC CC CC CC CC CC CC CC CC CC CC CC ................
0041CEF0 CC CC CC CC CC CC CC CC CC CC CC CC CC CC CC CC ................

l0041CF00:
	push	ebp
	mov	ebp,esp
	sub	esp,08
	push	ebx
	mov	ebx,edx
	mov	eax,ecx
	push	esi
	xor	esi,esi
	mov	[ebp-08],eax
	cmp	[ebx],esi
	jle	0041CF5D

l0041CF15:
	add	eax,FC
	push	edi
	mov	[ebp-04],eax
	xor	edi,edi
	mov	edi,edi

l0041CF20:
	mov	ecx,[ebx+04]
	mov	eax,[ebp-04]
	mov	edx,[ecx+edi]
	cmp	dword ptr [edx+eax],CCCCCCCC
	jnz	0041CF44

l0041CF32:
	mov	eax,[ecx+edi+04]
	add	eax,edx
	mov	edx,[ebp-08]
	cmp	dword ptr [eax+edx],CCCCCCCC
	jz	0041CF54

l0041CF44:
	push	dword ptr [ecx+edi+08]
	mov	eax,[ebp+04]
	push	eax
	call	00411348
	add	esp,08

l0041CF54:
	inc	esi
	add	edi,0C
	cmp	esi,[ebx]
	jl	0041CF20

l0041CF5C:
	pop	edi

l0041CF5D:
	pop	esi
	pop	ebx
	mov	esp,ebp
	pop	ebp
	ret
0041CF63          CC CC CC CC CC CC CC CC CC CC CC CC CC    .............
0041CF70 CC CC CC CC CC CC CC CC CC CC CC CC CC CC CC CC ................

l0041CF80:
	repne jnz	0041CF85

l0041CF83:
	repne ret

l0041CF85:
	push	ebp
	mov	ebp,esp
	sub	esp,00
	push	eax
	nop	dword ptr [esp+eax]
	push	edx
	push	ebx
	push	esi
	push	edi
	mov	eax,[ebp+04]
	push	00
	push	eax
	call	00411528
	add	esp,08
	pop	edi
	pop	esi
	pop	ebx
	pop	edx
	pop	eax
	nop	dword ptr [esp+eax-04]
	mov	esp,ebp
	pop	ebp
	repne ret
0041CFB1    CC CC CC CC CC CC CC CC CC CC CC CC CC CC CC  ...............

l0041CFC0:
	push	ebp
	mov	ebp,esp
	sub	esp,08
	mov	[ebp-04],ecx
	mov	eax,[ebp-04]
	mov	[ebp-08],eax
	mov	ecx,[ebp-04]
	movzx	edx,byte ptr [ecx]
	test	edx,edx
	jz	0041CFF1

l0041CFD9:
	cmp	dword ptr [00429774],00
	jz	0041CFF1

l0041CFE2:
	call	dword ptr [0042A000]
	cmp	[00429774],eax
	jnz	0041CFF1

l0041CFF0:
	nop

l0041CFF1:
	mov	esp,ebp
	pop	ebp
	ret
0041CFF5                CC CC CC CC CC CC CC CC CC CC CC      ...........
0041D000 CC CC CC CC CC CC CC CC CC CC CC CC CC CC CC CC ................

;; fn0041D010: 0041D010
;;   Called from:
;;     004113E3 (in fn004113E3)
fn0041D010 proc
	cmp	ecx,[00429014]
	repne jnz	0041D01B

l0041D019:
	repne ret

l0041D01B:
	repne jmp	0041100A
0041D021    CC CC CC CC CC CC CC CC CC CC CC CC CC CC CC  ...............
0041D030 B8 C5 13 41 00 C3 CC CC CC CC CC CC CC CC CC CC ...A............
0041D040 B8 68 11 41 00 C3 CC CC CC CC CC CC CC CC CC CC .h.A............
0041D050 80 3D 4F 93 42 00 00 75 1F 6A 00 6A 01 6A 00 6A .=O.B..u.j.j.j.j
0041D060 00 6A 00 C6 05 4F 93 42 00 01 E8 96 44 FF FF 50 .j...O.B....D..P
0041D070 E8 96 43 FF FF 83 C4 18 C3 CC CC CC CC CC CC CC ..C.............
0041D080 CC CC CC CC CC CC CC CC CC CC CC CC CC CC CC CC ................
0041D090 6A 01 6A 01 6A 00 6A 00 6A 00 E8 66 44 FF FF 83 j.j.j.j.j..fD...
0041D0A0 C4 14 C3 CC CC CC CC CC CC CC CC CC CC CC CC CC ................

l0041D0B0:
	push	ecx
	lea	ecx,[esp+04]
	sub	ecx,eax
	sbb	eax,eax
	not	eax
	and	ecx,eax
	mov	eax,esp
	and	eax,FFFFF000

l0041D0C4:
	cmp	ecx,eax
	repne jc	0041D0D4

l0041D0C9:
	mov	eax,ecx
	pop	ecx
	xchg	eax,esp
	mov	eax,[eax]
	mov	[esp],eax
	repne ret

l0041D0D4:
	sub	eax,00001000
	test	[eax],eax
	jmp	0041D0C4
0041D0DD                                        CC CC CC              ...
0041D0E0 CC CC CC CC CC CC CC CC CC CC CC CC CC CC CC CC ................
0041D0F0 55 8B EC E8 42 46 FF FF E8 44 44 FF FF E8 88 41 U...BF...DD....A
0041D100 FF FF 6A 01 E8 4C 3F FF FF 83 C4 04 0F B6 C0 85 ..j..L?.........
0041D110 C0 75 07 6A 07 E8 CC 44 FF FF DB E2 E8 91 41 FF .u.j...D......A.
0041D120 FF 68 82 15 41 00 E8 44 43 FF FF 83 C4 04 E8 D0 .h..A..DC.......
0041D130 45 FF FF 85 C0 74 07 6A 07 E8 A8 44 FF FF E8 B7 E....t.j...D....
0041D140 44 FF FF E8 CB 3F FF FF 85 C0 74 0D 68 4F 16 41 D....?....t.hO.A
0041D150 00 E8 1F 42 FF FF 83 C4 04 E8 C0 3E FF FF E8 4B ...B.......>...K
0041D160 40 FF FF E8 AC 43 FF FF E8 18 41 FF FF 50 E8 B3 @....C....A..P..
0041D170 45 FF FF 83 C4 04 E8 A6 40 FF FF 0F B6 C8 85 C9 E.......@.......
0041D180 74 05 E8 33 43 FF FF E8 EC 3E FF FF E8 E7 43 FF t..3C....>....C.
0041D190 FF 85 C0 74 07 6A 07 E8 4A 44 FF FF 33 C0 5D C3 ...t.j..JD..3.].
0041D1A0 CC CC CC CC CC CC CC CC CC CC CC CC CC CC CC CC ................
0041D1B0 CC CC CC CC CC CC CC CC CC CC CC CC CC CC CC CC ................
0041D1C0 CC CC CC CC CC CC CC CC CC CC CC CC CC CC CC CC ................
0041D1D0 55 8B EC E8 94 45 FF FF 33 C0 5D C3 CC CC CC CC U....E..3.].....
0041D1E0 55 8B EC E8 34 45 FF FF E8 0F 42 FF FF 50 E8 46 U...4E....B..P.F
0041D1F0 41 FF FF 83 C4 04 5D C3 CC CC CC CC CC CC CC CC A.....].........

;; fn0041D200: 0041D200
;;   Called from:
;;     0041D553 (in Win32CrtStartup)
fn0041D200 proc
	push	ebp
	mov	ebp,esp
	call	004115AF
	call	0041D220
	pop	ebp
	ret
0041D20F                                              CC                .
0041D210 CC CC CC CC CC CC CC CC CC CC CC CC CC CC CC CC ................

;; fn0041D220: 0041D220
;;   Called from:
;;     0041D208 (in fn0041D200)
fn0041D220 proc
	push	ebp
	mov	ebp,esp
	push	FE
	push	00428938
	push	0041D560
	mov	eax,fs:[00000000]
	push	eax
	add	esp,CC
	push	ebx
	push	esi
	push	edi
	mov	eax,[00429014]
	xor	[ebp-08],eax
	xor	eax,ebp
	push	eax
	lea	eax,[ebp-10]
	mov	fs:[00000000],eax
	mov	[ebp-18],esp
	push	01
	call	00411262
	add	esp,04
	movzx	eax,al
	test	eax,eax
	jnz	0041D26B

l0041D264:
	push	07
	call	004115E6

l0041D26B:
	mov	byte ptr [ebp-19],00
	mov	dword ptr [ebp-04],00000000
	call	00411776
	mov	[ebp-1A],al
	cmp	dword ptr [00429324],01
	jnz	0041D290

l0041D287:
	push	07
	call	004115E6
	jmp	0041D2F1

l0041D290:
	cmp	dword ptr [00429324],00
	jnz	0041D2ED

l0041D299:
	mov	dword ptr [00429324],00000001
	push	00425724
	push	00425418
	call	004110B9
	add	esp,08
	test	eax,eax
	jz	0041D2CF

l0041D2B9:
	mov	dword ptr [ebp-38],000000FF
	mov	dword ptr [ebp-04],FFFFFFFE
	mov	eax,[ebp-38]
	jmp	0041D422

l0041D2CF:
	push	00425314
	push	00425000
	call	004113A7
	add	esp,08
	mov	dword ptr [00429324],00000002
	jmp	0041D2F1

l0041D2ED:
	mov	byte ptr [ebp-19],01

l0041D2F1:
	movzx	ecx,byte ptr [ebp-1A]
	push	ecx
	call	00411127
	add	esp,04
	call	0041133E
	mov	[ebp-20],eax
	mov	edx,[ebp-20]
	cmp	dword ptr [edx],00
	jz	0041D341

l0041D30E:
	mov	eax,[ebp-20]
	push	eax
	call	00411398
	add	esp,04
	movzx	ecx,al
	test	ecx,ecx
	jz	0041D341

l0041D321:
	mov	edx,[ebp-20]
	mov	eax,[edx]
	mov	[ebp-3C],eax
	push	00
	push	02
	push	00
	mov	ecx,[ebp-3C]
	mov	[ebp-28],ecx
	mov	ecx,[ebp-28]
	call	dword ptr [0042D000]
	call	dword ptr [ebp-28]

l0041D341:
	call	004114C9
	mov	[ebp-24],eax
	mov	edx,[ebp-24]
	cmp	dword ptr [edx],00
	jz	0041D372

l0041D351:
	mov	eax,[ebp-24]
	push	eax
	call	00411398
	add	esp,04
	movzx	ecx,al
	test	ecx,ecx
	jz	0041D372

l0041D364:
	mov	edx,[ebp-24]
	mov	eax,[edx]
	push	eax
	call	00411154
	add	esp,04

l0041D372:
	call	0041D4C0
	mov	[ebp-2C],eax
	call	004113BB
	movzx	ecx,al
	test	ecx,ecx
	jnz	0041D38F

l0041D386:
	mov	edx,[ebp-2C]
	push	edx
	call	0041150F

l0041D38F:
	movzx	eax,byte ptr [ebp-19]
	test	eax,eax
	jnz	0041D39C

l0041D397:
	call	0041102D

l0041D39C:
	push	00
	push	01
	call	004114F6
	add	esp,08
	mov	ecx,[ebp-2C]
	mov	[ebp-40],ecx
	mov	dword ptr [ebp-04],FFFFFFFE
	mov	eax,[ebp-40]
	jmp	0041D422
0041D3BA                               C7 45 FC FE FF FF           .E....
0041D3C0 FF EB 5F 8B 55 EC 8B 02 8B 08 89 4D D0 8B 55 EC .._.U......M..U.
0041D3D0 52 8B 45 D0 50 E8 93 42 FF FF 83 C4 08 C3 8B 65 R.E.P..B.......e
0041D3E0 E8 8B 4D D0 89 4D CC E8 CF 3F FF FF 0F B6 D0 85 ..M..M...?......
0041D3F0 D2 75 09 8B 45 CC 50 E8 C0 3E FF FF 0F B6 4D E7 .u..E.P..>....M.
0041D400 85 C9 75 05 E8 E1 3D FF FF 8B 55 CC 89 55 BC C7 ..u...=...U..U..
0041D410 45 FC FE FF FF FF 8B 45 BC EB 07 C7 45 FC FE FF E......E....E...
0041D420 FF FF                                           ..             

l0041D422:
	mov	ecx,[ebp-10]
	mov	fs:[00000000],ecx
	pop	ecx
	pop	edi
	pop	esi
	pop	ebx
	mov	esp,ebp
	pop	ebp
	ret
0041D434             CC CC CC CC CC CC CC CC CC CC CC CC     ............
0041D440 CC CC CC CC CC CC CC CC CC CC CC CC CC CC CC CC ................
0041D450 CC CC CC CC CC CC CC CC CC CC CC CC CC CC CC CC ................
0041D460 CC CC CC CC CC CC CC CC CC CC CC CC CC CC CC CC ................
0041D470 CC CC CC CC CC CC CC CC CC CC CC CC CC CC CC CC ................
0041D480 CC CC CC CC CC CC CC CC CC CC CC CC CC CC CC CC ................
0041D490 CC CC CC CC CC CC CC CC CC CC CC CC CC CC CC CC ................
0041D4A0 CC CC CC CC CC CC CC CC CC CC CC CC CC CC CC CC ................
0041D4B0 CC CC CC CC CC CC CC CC CC CC CC CC CC CC CC CC ................

;; fn0041D4C0: 0041D4C0
;;   Called from:
;;     0041D372 (in fn0041D220)
fn0041D4C0 proc
	push	ebp
	mov	ebp,esp
	call	0041172B
	push	eax
	call	004115DC
	mov	eax,[eax]
	push	eax
	call	004112C1
	mov	ecx,[eax]
	push	ecx
	call	00411587
	add	esp,0C
	pop	ebp
	ret
0041D4E3          CC CC CC CC CC CC CC CC CC CC CC CC CC    .............
0041D4F0 55 8B EC 6A 01 E8 8C 41 FF FF 83 C4 04 5D C3 CC U..j...A.....]..
0041D500 CC CC CC CC CC CC CC CC CC CC CC CC CC CC CC CC ................
0041D510 55 8B EC 56 E8 64 3B FF FF 8B F0 E8 BF 3D FF FF U..V.d;......=..
0041D520 89 30 5E 5D C3 CC CC CC CC CC CC CC CC CC CC CC .0^]............
0041D530 55 8B EC E8 27 3B FF FF 50 E8 35 40 FF FF 83 C4 U...';..P.5@....
0041D540 04 5D C3 CC CC CC CC CC CC CC CC CC CC CC CC CC .]..............

l0041D550:
	push	ebp
	mov	ebp,esp
	call	0041D200
	pop	ebp
	ret
0041D55A                               CC CC CC CC CC CC           ......
0041D560 55 8B EC 8B 45 14 50 8B 4D 10 51 8B 55 0C 52 8B U...E.P.M.Q.U.R.
0041D570 45 08 50 68 E3 13 41 00 68 14 90 42 00 E8 27 41 E.Ph..A.h..B..'A
0041D580 FF FF 83 C4 18 5D C3 CC CC CC CC CC CC CC CC CC .....]..........

;; fn0041D590: 0041D590
;;   Called from:
;;     00411366 (in fn00411366)
fn0041D590 proc
	push	ebp
	mov	ebp,esp
	push	ecx
	mov	[ebp-04],ecx
	mov	esp,ebp
	pop	ebp
	ret
0041D59B                                  CC CC CC CC CC            .....
0041D5A0 55 8B EC 51 8B 45 08 8B 08 89 4D FC 8B 45 FC 8B U..Q.E....M..E..
0041D5B0 E5 5D C3 CC CC CC CC CC CC CC CC CC CC CC CC CC .]..............
0041D5C0 55 8B EC 8B 45 08 50 E8 66 3A FF FF 83 C4 04 5D U...E.P.f:.....]
0041D5D0 C3 CC CC CC CC CC CC CC CC CC CC CC CC CC CC CC ................
0041D5E0 55 8B EC 51 68 00 D0 42 00 E8 2A 40 FF FF 83 C4 U..Qh..B..*@....
0041D5F0 04 3D 66 13 41 00 74 09 C7 45 FC 01 00 00 00 EB .=f.A.t..E......
0041D600 07 C7 45 FC 00 00 00 00 8B 45 FC 8B E5 5D C3 CC ..E......E...]..
0041D610 CC CC CC CC CC CC CC CC CC CC CC CC CC CC CC CC ................

l0041D620:
	push	ebp
	mov	ebp,esp
	push	ecx
	mov	[ebp-04],ecx
	push	01
	mov	eax,[ebp+08]
	push	eax
	mov	ecx,[ebp-04]
	call	00411041
	mov	ecx,[ebp-04]
	mov	dword ptr [ecx],00426564
	mov	eax,[ebp-04]
	mov	esp,ebp
	pop	ebp
	ret	0004
0041D647                      CC CC CC CC CC CC CC CC CC        .........
0041D650 55 8B EC 51 89 4D FC 8B 45 08 50 8B 4D FC E8 B5 U..Q.M..E.P.M...
0041D660 3A FF FF 8B 4D FC C7 01 64 65 42 00 8B 45 FC 8B :...M...deB..E..
0041D670 E5 5D C2 04 00 CC CC CC CC CC CC CC CC CC CC CC .]..............

l0041D680:
	push	ebp
	mov	ebp,esp
	push	ecx
	mov	[ebp-04],ecx
	push	01
	push	00426570
	mov	ecx,[ebp-04]
	call	00411041
	mov	eax,[ebp-04]
	mov	dword ptr [eax],00426564
	mov	eax,[ebp-04]
	mov	esp,ebp
	pop	ebp
	ret
0041D6A6                   CC CC CC CC CC CC CC CC CC CC       ..........
0041D6B0 55 8B EC 51 89 4D FC 8B 45 08 50 8B 4D FC E8 B8 U..Q.M..E.P.M...
0041D6C0 40 FF FF 8B 4D FC C7 01 88 65 42 00 8B 45 FC 8B @...M....eB..E..
0041D6D0 E5 5D C2 04 00 CC CC CC CC CC CC CC CC CC CC CC .]..............

l0041D6E0:
	push	ebp
	mov	ebp,esp
	push	ecx
	mov	[ebp-04],ecx
	push	00426594
	mov	ecx,[ebp-04]
	call	00411410
	mov	eax,[ebp-04]
	mov	dword ptr [eax],00426588
	mov	eax,[ebp-04]
	mov	esp,ebp
	pop	ebp
	ret
0041D704             CC CC CC CC CC CC CC CC CC CC CC CC     ............
0041D710 55 8B EC 51 89 4D FC 8B 45 FC C7 00 3C 65 42 00 U..Q.M..E...<eB.
0041D720 33 C9 8B 55 FC 83 C2 04 89 0A 89 4A 04 8B 45 FC 3..U.......J..E.
0041D730 83 C0 04 50 8B 4D 08 83 C1 04 51 E8 23 3A FF FF ...P.M....Q.#:..
0041D740 83 C4 08 8B 45 FC 8B E5 5D C2 04 00 CC CC CC CC ....E...].......
0041D750 CC CC CC CC CC CC CC CC CC CC CC CC CC CC CC CC ................

;; fn0041D760: 0041D760
;;   Called from:
;;     00411041 (in fn00411041)
fn0041D760 proc
	push	ebp
	mov	ebp,esp
	push	ecx
	mov	[ebp-04],ecx
	mov	eax,[ebp-04]
	mov	dword ptr [eax],0042653C
	xor	ecx,ecx
	mov	edx,[ebp-04]
	add	edx,04
	mov	[edx],ecx
	mov	[edx+04],ecx
	mov	eax,[ebp-04]
	mov	ecx,[ebp+08]
	mov	[eax+04],ecx
	mov	eax,[ebp-04]
	mov	esp,ebp
	pop	ebp
	ret	0008
0041D78F                                              CC                .
0041D790 CC CC CC CC CC CC CC CC CC CC CC CC CC CC CC CC ................
0041D7A0 55 8B EC 51 89 4D FC 8B 4D FC E8 72 3F FF FF 8B U..Q.M..M..r?...
0041D7B0 E5 5D C3 CC CC CC CC CC CC CC CC CC CC CC CC CC .]..............
0041D7C0 55 8B EC 51 89 4D FC 8B 4D FC E8 C1 3E FF FF 8B U..Q.M..M...>...
0041D7D0 E5 5D C3 CC CC CC CC CC CC CC CC CC CC CC CC CC .]..............
0041D7E0 55 8B EC 51 89 4D FC 8B 45 FC C7 00 3C 65 42 00 U..Q.M..E...<eB.
0041D7F0 8B 4D FC 83 C1 04 51 E8 49 39 FF FF 83 C4 04 8B .M....Q.I9......
0041D800 E5 5D C3 CC CC CC CC CC CC CC CC CC CC CC CC CC .]..............
0041D810 55 8B EC 51 89 4D FC 8B 4D FC E8 71 3E FF FF 8B U..Q.M..M..q>...
0041D820 45 08 83 E0 01 74 0E 6A 0C 8B 4D FC 51 E8 15 3C E....t.j..M.Q..<
0041D830 FF FF 83 C4 08 8B 45 FC 8B E5 5D C2 04 00 CC CC ......E...].....
0041D840 CC CC CC CC CC CC CC CC CC CC CC CC CC CC CC CC ................
0041D850 55 8B EC 51 89 4D FC 8B 4D FC E8 0C 3B FF FF 8B U..Q.M..M...;...
0041D860 45 08 83 E0 01 74 0E 6A 0C 8B 4D FC 51 E8 D5 3B E....t.j..M.Q..;
0041D870 FF FF 83 C4 08 8B 45 FC 8B E5 5D C2 04 00 CC CC ......E...].....
0041D880 CC CC CC CC CC CC CC CC CC CC CC CC CC CC CC CC ................
0041D890 55 8B EC 51 89 4D FC 8B 4D FC E8 82 3E FF FF 8B U..Q.M..M...>...
0041D8A0 45 08 83 E0 01 74 0E 6A 0C 8B 4D FC 51 E8 95 3B E....t.j..M.Q..;
0041D8B0 FF FF 83 C4 08 8B 45 FC 8B E5 5D C2 04 00 CC CC ......E...].....
0041D8C0 CC CC CC CC CC CC CC CC CC CC CC CC CC CC CC CC ................

l0041D8D0:
	push	ebp
	mov	ebp,esp
	sub	esp,0C
	lea	ecx,[ebp-0C]
	call	004116DB
	push	00428958
	lea	eax,[ebp-0C]
	push	eax
	call	0041178A
	mov	esp,ebp
	pop	ebp
	ret
0041D8F0 CC CC CC CC CC CC CC CC CC CC CC CC CC CC CC CC ................

l0041D900:
	push	ebp
	mov	ebp,esp
	sub	esp,0C
	lea	ecx,[ebp-0C]
	call	004110DC
	push	004289BC
	lea	eax,[ebp-0C]
	push	eax
	call	0041178A
	mov	esp,ebp
	pop	ebp
	ret
0041D920 CC CC CC CC CC CC CC CC CC CC CC CC CC CC CC CC ................
0041D930 55 8B EC 83 EC 08 89 4D FC 8B 45 FC 83 78 04 00 U......M..E..x..
0041D940 74 0B 8B 4D FC 8B 51 04 89 55 F8 EB 07 C7 45 F8 t..M..Q..U....E.
0041D950 48 65 42 00 8B 45 F8 8B E5 5D C3 CC CC CC CC CC HeB..E...]......
0041D960 CC CC CC CC CC CC CC CC CC CC CC CC CC CC CC CC ................

l0041D970:
	push	ebp
	mov	ebp,esp
	push	FF
	mov	eax,[ebp+08]
	push	eax
	call	004116A4
	add	esp,08
	pop	ebp
	ret
0041D983          CC CC CC CC CC CC CC CC CC CC CC CC CC    .............

;; fn0041D990: 0041D990
;;   Called from:
;;     00411014 (in fn00411014)
fn0041D990 proc
	push	ebp
	mov	ebp,esp
	sub	esp,40
	mov	eax,[00429014]
	xor	eax,ebp
	mov	[ebp-04],eax
	push	ebx
	push	esi
	mov	dword ptr [00429350],00000000
	mov	eax,[0042901C]
	or	eax,01
	mov	[0042901C],eax
	push	0A
	call	004110A0
	test	eax,eax
	jnz	0041D9CB

l0041D9C4:
	xor	eax,eax
	jmp	0041DC53

l0041D9CB:
	mov	dword ptr [ebp-10],00000000
	mov	dword ptr [ebp-0C],00000000
	mov	dword ptr [ebp-08],00000000
	mov	dword ptr [00429350],00000001
	mov	ecx,[0042901C]
	or	ecx,02
	mov	[0042901C],ecx
	lea	esi,[ebp-20]
	xor	eax,eax
	xor	ecx,ecx
	cpuid
	mov	[esi],eax
	mov	[esi+04],ebx
	mov	[esi+08],ecx
	mov	[esi+0C],edx
	mov	edx,00000004
	imul	eax,edx,00
	mov	ecx,[ebp+eax-20]
	mov	[ebp-30],ecx
	mov	edx,00000004
	shl	edx,00
	mov	eax,[ebp+edx-20]
	xor	eax,756E6547
	mov	ecx,00000004
	imul	edx,ecx,03
	mov	ecx,[ebp+edx-20]
	xor	ecx,49656E69
	or	eax,ecx
	mov	edx,00000004
	shl	edx,01
	mov	ecx,[ebp+edx-20]
	xor	ecx,6C65746E
	or	eax,ecx
	jnz	0041DA5F

l0041DA56:
	mov	dword ptr [ebp-2C],00000001
	jmp	0041DA66

l0041DA5F:
	mov	dword ptr [ebp-2C],00000000

l0041DA66:
	mov	dl,[ebp-2C]
	mov	[ebp-21],dl
	lea	esi,[ebp-20]
	mov	eax,00000001
	xor	ecx,ecx
	cpuid
	mov	[esi],eax
	mov	[esi+04],ebx
	mov	[esi+08],ecx
	mov	[esi+0C],edx
	mov	eax,00000004
	imul	ecx,eax,00
	mov	edx,[ebp+ecx-20]
	mov	[ebp-28],edx
	movzx	eax,byte ptr [ebp-21]
	test	eax,eax
	jz	0041DB0B

l0041DA9A:
	mov	ecx,[ebp-28]
	and	ecx,0FFF3FF0
	cmp	ecx,000106C0
	jz	0041DAFC

l0041DAAB:
	mov	edx,[ebp-28]
	and	edx,0FFF3FF0
	cmp	edx,00020660
	jz	0041DAFC

l0041DABC:
	mov	eax,[ebp-28]
	and	eax,0FFF3FF0
	cmp	eax,00020670
	jz	0041DAFC

l0041DACB:
	mov	ecx,[ebp-28]
	and	ecx,0FFF3FF0
	cmp	ecx,00030650
	jz	0041DAFC

l0041DADC:
	mov	edx,[ebp-28]
	and	edx,0FFF3FF0
	cmp	edx,00030660
	jz	0041DAFC

l0041DAED:
	mov	eax,[ebp-28]
	and	eax,0FFF3FF0
	cmp	eax,00030670
	jnz	0041DB0B

l0041DAFC:
	mov	ecx,[00429354]
	or	ecx,01
	mov	[00429354],ecx

l0041DB0B:
	mov	edx,00000004
	imul	eax,edx,03
	mov	ecx,00000004
	imul	edx,ecx,00
	mov	eax,[ebp+eax-20]
	mov	[ebp+edx-10],eax
	mov	ecx,00000004
	shl	ecx,01
	mov	edx,00000004
	shl	edx,00
	mov	eax,[ebp+ecx-20]
	mov	[ebp+edx-10],eax
	cmp	dword ptr [ebp-30],07
	jl	0041DB8F

l0041DB40:
	lea	esi,[ebp-20]
	mov	eax,00000007
	xor	ecx,ecx
	cpuid
	mov	[esi],eax
	mov	[esi+04],ebx
	mov	[esi+08],ecx
	mov	[esi+0C],edx
	mov	ecx,00000004
	shl	ecx,00
	mov	edx,00000004
	shl	edx,01
	mov	eax,[ebp+ecx-20]
	mov	[ebp+edx-10],eax
	mov	ecx,00000004
	shl	ecx,00
	mov	edx,[ebp+ecx-20]
	and	edx,00000200
	jz	0041DB8F

l0041DB82:
	mov	eax,[00429354]
	or	eax,02
	mov	[00429354],eax

l0041DB8F:
	mov	ecx,00000004
	shl	ecx,00
	mov	edx,[ebp+ecx-10]
	and	edx,00100000
	jz	0041DC51

l0041DBA7:
	mov	dword ptr [00429350],00000002
	mov	eax,[0042901C]
	or	eax,04
	mov	[0042901C],eax
	mov	ecx,00000004
	shl	ecx,00
	mov	edx,[ebp+ecx-10]
	and	edx,08000000
	jz	0041DC51

l0041DBD2:
	mov	eax,00000004
	shl	eax,00
	mov	ecx,[ebp+eax-10]
	and	ecx,10000000
	jz	0041DC51

l0041DBE6:
	xor	ecx,ecx
	xgetbv
	mov	[ebp-38],eax
	mov	[ebp-34],edx
	mov	edx,[ebp-38]
	mov	eax,[ebp-34]
	and	edx,06
	and	eax,00
	mov	[ebp-40],edx
	mov	[ebp-3C],eax
	cmp	dword ptr [ebp-40],06
	jnz	0041DC51

l0041DC09:
	cmp	dword ptr [ebp-3C],00
	jnz	0041DC51

l0041DC0F:
	mov	dword ptr [00429350],00000003
	mov	ecx,[0042901C]
	or	ecx,08
	mov	[0042901C],ecx
	mov	edx,00000004
	shl	edx,01
	mov	eax,[ebp+edx-10]
	and	eax,20
	jz	0041DC51

l0041DC38:
	mov	dword ptr [00429350],00000005
	mov	ecx,[0042901C]
	or	ecx,20
	mov	[0042901C],ecx

l0041DC51:
	xor	eax,eax

l0041DC53:
	pop	esi
	pop	ebx
	mov	ecx,[ebp-04]
	xor	ecx,ebp
	call	004113E3
	mov	esp,ebp
	pop	ebp
	ret
0041DC63          CC CC CC CC CC CC CC CC CC CC CC CC CC    .............
0041DC70 CC CC CC CC CC CC CC CC CC CC CC CC CC CC CC CC ................
0041DC80 CC CC CC CC CC CC CC CC CC CC CC CC CC CC CC CC ................
0041DC90 CC CC CC CC CC CC CC CC CC CC CC CC CC CC CC CC ................
0041DCA0 CC CC CC CC CC CC CC CC CC CC CC CC CC CC CC CC ................
0041DCB0 CC CC CC CC CC CC CC CC CC CC CC CC CC CC CC CC ................
0041DCC0 CC CC CC CC CC CC CC CC CC CC CC CC CC CC CC CC ................
0041DCD0 CC CC CC CC CC CC CC CC CC CC CC CC CC CC CC CC ................
0041DCE0 CC CC CC CC CC CC CC CC CC CC CC CC CC CC CC CC ................
0041DCF0 CC CC CC CC CC CC CC CC CC CC CC CC CC CC CC CC ................
0041DD00 CC CC CC CC CC CC CC CC CC CC CC CC CC CC CC CC ................
0041DD10 CC CC CC CC CC CC CC CC CC CC CC CC CC CC CC CC ................
0041DD20 55 8B EC B8 01 00 00 00 5D C3 CC CC CC CC CC CC U.......].......

l0041DD30:
	push	ebp
	mov	ebp,esp
	push	ecx
	cmp	dword ptr [0042903C],00
	jz	0041DD46

l0041DD3D:
	mov	dword ptr [ebp-04],00000001
	jmp	0041DD4D

l0041DD46:
	mov	dword ptr [ebp-04],00000000

l0041DD4D:
	mov	eax,[ebp-04]
	mov	esp,ebp
	pop	ebp
	ret
0041DD54             CC CC CC CC CC CC CC CC CC CC CC CC     ............

l0041DD60:
	push	ebp
	mov	ebp,esp
	sub	esp,0000032C
	push	17
	call	004110A0
	test	eax,eax
	jz	0041DD79

l0041DD74:
	mov	ecx,[ebp+08]
	int	29

l0041DD79:
	push	03
	call	00411253
	add	esp,04
	push	000002CC
	push	00
	lea	eax,[ebp-0000032C]
	push	eax
	call	004111FE
	add	esp,0C
	mov	[ebp-0000027C],eax
	mov	[ebp-00000280],ecx
	mov	[ebp-00000284],edx
	mov	[ebp-00000288],ebx
	mov	[ebp-0000028C],esi
	mov	[ebp-00000290],edi
	mov	[ebp-00000264],ss
	mov	[ebp-00000270],cs
	mov	[ebp-00000294],ds
	mov	[ebp-00000298],es
	mov	[ebp-0000029C],fs
	mov	[ebp-000002A0],gs
	pushf
	pop	dword ptr [ebp-0000026C]
	mov	dword ptr [ebp-0000032C],00010001
	mov	ecx,[ebp+04]
	mov	[ebp-00000274],ecx
	lea	edx,[ebp+04]
	mov	[ebp-00000268],edx
	lea	eax,[ebp+04]
	mov	ecx,[eax-04]
	mov	[ebp-00000278],ecx
	push	50
	push	00
	lea	edx,[ebp-60]
	push	edx
	call	004111FE
	add	esp,0C
	mov	dword ptr [ebp-60],40000015
	mov	dword ptr [ebp-5C],00000001
	mov	eax,[ebp+04]
	mov	[ebp-54],eax
	call	dword ptr [0042A008]
	cmp	eax,01
	jnz	0041DE4B

l0041DE45:
	mov	byte ptr [ebp-01],01
	jmp	0041DE4F

l0041DE4B:
	mov	byte ptr [ebp-01],00

l0041DE4F:
	mov	cl,[ebp-01]
	mov	[ebp-02],cl
	lea	edx,[ebp-60]
	mov	[ebp-10],edx
	lea	eax,[ebp-0000032C]
	mov	[ebp-0C],eax
	push	00
	call	dword ptr [0042A010]
	lea	ecx,[ebp-10]
	push	ecx
	call	dword ptr [0042A00C]
	mov	[ebp-08],eax
	cmp	dword ptr [ebp-08],00
	jnz	0041DE91

l0041DE7F:
	movzx	edx,byte ptr [ebp-02]
	test	edx,edx
	jnz	0041DE91

l0041DE87:
	push	03
	call	00411253
	add	esp,04

l0041DE91:
	mov	esp,ebp
	pop	ebp
	ret
0041DE95                CC CC CC CC CC CC CC CC CC CC CC      ...........
0041DEA0 CC CC CC CC CC CC CC CC CC CC CC CC CC CC CC CC ................
0041DEB0 CC CC CC CC CC CC CC CC CC CC CC CC CC CC CC CC ................
0041DEC0 CC CC CC CC CC CC CC CC CC CC CC CC CC CC CC CC ................
0041DED0 CC CC CC CC CC CC CC CC CC CC CC CC CC CC CC CC ................
0041DEE0 CC CC CC CC CC CC CC CC CC CC CC CC CC CC CC CC ................
0041DEF0 55 8B EC 83 EC 48 6A 44 6A 00 8D 45 B8 50 E8 FB U....HjDj..E.P..
0041DF00 32 FF FF 83 C4 0C 8D 4D B8 51 FF 15 14 A0 42 00 2......M.Q....B.
0041DF10 8B 55 E4 83 E2 01 74 09 0F B7 45 E8 89 45 FC EB .U....t...E..E..
0041DF20 07 C7 45 FC 0A 00 00 00 66 8B 45 FC 8B E5 5D C3 ..E.....f.E...].
0041DF30 CC CC CC CC CC CC CC CC CC CC CC CC CC CC CC CC ................
0041DF40 55 8B EC E8 01 38 FF FF 5D C3 CC CC CC CC CC CC U....8..].......
0041DF50 55 8B EC 33 C0 5D C3 CC CC CC CC CC CC CC CC CC U..3.]..........

l0041DF60:
	push	ebp
	mov	ebp,esp
	sub	esp,08
	push	00
	call	dword ptr [0042A018]
	mov	[ebp-04],eax
	cmp	dword ptr [ebp-04],00
	jnz	0041DF7B

l0041DF77:
	xor	al,al
	jmp	0041DFDF

l0041DF7B:
	mov	eax,[ebp-04]
	movzx	ecx,word ptr [eax]
	cmp	ecx,00005A4D
	jz	0041DF8D

l0041DF89:
	xor	al,al
	jmp	0041DFDF

l0041DF8D:
	mov	edx,[ebp-04]
	mov	eax,[ebp-04]
	add	eax,[edx+3C]
	mov	[ebp-08],eax
	mov	ecx,[ebp-08]
	cmp	dword ptr [ecx],00004550
	jz	0041DFA8

l0041DFA4:
	xor	al,al
	jmp	0041DFDF

l0041DFA8:
	mov	edx,[ebp-08]
	movzx	eax,word ptr [edx+18]
	cmp	eax,0000010B
	jz	0041DFBA

l0041DFB6:
	xor	al,al
	jmp	0041DFDF

l0041DFBA:
	mov	ecx,[ebp-08]
	cmp	dword ptr [ecx+74],0E
	ja	0041DFC7

l0041DFC3:
	xor	al,al
	jmp	0041DFDF

l0041DFC7:
	mov	edx,00000008
	imul	eax,edx,0E
	mov	ecx,[ebp-08]
	cmp	dword ptr [ecx+eax+78],00
	jnz	0041DFDD

l0041DFD9:
	xor	al,al
	jmp	0041DFDF

l0041DFDD:
	mov	al,01

l0041DFDF:
	mov	esp,ebp
	pop	ebp
	ret
0041DFE3          CC CC CC CC CC CC CC CC CC CC CC CC CC    .............
0041DFF0 CC CC CC CC CC CC CC CC CC CC CC CC CC CC CC CC ................
0041E000 CC CC CC CC CC CC CC CC CC CC CC CC CC CC CC CC ................
0041E010 55 8B EC 68 D0 12 41 00 FF 15 10 A0 42 00 5D C3 U..h..A.....B.].
0041E020 CC CC CC CC CC CC CC CC CC CC CC CC CC CC CC CC ................
0041E030 55 8B EC 33 C0 5D C3 CC CC CC CC CC CC CC CC CC U..3.]..........
0041E040 55 8B EC 51 8B 45 08 8B 08 89 4D FC 8B 55 FC 81 U..Q.E....M..U..
0041E050 3A 63 73 6D E0 75 3E 8B 45 FC 83 78 10 03 75 35 :csm.u>.E..x..u5
0041E060 8B 4D FC 81 79 14 20 05 93 19 74 24 8B 55 FC 81 .M..y. ...t$.U..
0041E070 7A 14 21 05 93 19 74 18 8B 45 FC 81 78 14 22 05 z.!...t..E..x.".
0041E080 93 19 74 0C 8B 4D FC 81 79 14 00 40 99 01 75 05 ..t..M..y..@..u.
0041E090 E8 10 30 FF FF 33 C0 8B E5 5D C2 04 00 CC CC CC ..0..3...]......
0041E0A0 CC CC CC CC CC CC CC CC CC CC CC CC CC CC CC CC ................
0041E0B0 CC CC CC CC CC CC CC CC CC CC CC CC CC CC CC CC ................

;; fn0041E0C0: 0041E0C0
;;   Called from:
;;     00411253 (in fn00411253)
fn0041E0C0 proc
	push	ebp
	mov	ebp,esp
	mov	dword ptr [0042935C],00000000
	pop	ebp
	ret
0041E0CF                                              CC                .
0041E0D0 CC CC CC CC CC CC CC CC CC CC CC CC CC CC CC CC ................

;; fn0041E0E0: 0041E0E0
;;   Called from:
;;     0041E54A (in fn0041E4B0)
fn0041E0E0 proc
	push	ebp
	mov	ebp,esp
	sub	esp,1C
	mov	eax,[ebp+08]
	mov	[ebp-18],eax
	lea	eax,[ebp-01]
	mov	[ebp-14],eax
	lea	eax,[ebp-1C]
	push	eax
	mov	byte ptr [ebp-01],00
	mov	dword ptr [ebp-1C],00001001
	call	0041E730
	add	esp,04
	cmp	byte ptr [ebp-01],00
	setnz	al
	mov	esp,ebp
	pop	ebp
	ret
0041E114             CC CC CC CC CC CC CC CC CC CC CC CC     ............
0041E120 CC CC CC CC CC CC CC CC CC CC CC CC CC CC CC CC ................

;; fn0041E130: 0041E130
;;   Called from:
;;     0041E566 (in fn0041E4B0)
fn0041E130 proc
	push	ebp
	mov	ebp,esp
	sub	esp,1C
	mov	eax,[ebp+08]
	mov	[ebp-18],eax
	mov	eax,[ebp+0C]
	mov	[ebp-14],eax
	mov	eax,[ebp+10]
	mov	[ebp-10],eax
	lea	eax,[ebp-01]
	mov	[ebp-0C],eax
	mov	eax,[ebp+14]
	mov	[ebp-08],eax
	lea	eax,[ebp-1C]
	push	eax
	mov	byte ptr [ebp-01],00
	mov	dword ptr [ebp-1C],00001002
	call	0041E730
	add	esp,04
	cmp	byte ptr [ebp-01],00
	setnz	al
	mov	esp,ebp
	pop	ebp
	ret
0041E176                   CC CC CC CC CC CC CC CC CC CC       ..........
0041E180 CC CC CC CC CC CC CC CC CC CC CC CC CC CC CC CC ................
0041E190 55 8B EC 81 EC 44 01 00 00 A1 14 90 42 00 33 C5 U....D......B.3.
0041E1A0 89 45 FC 8B 45 08 53 8B 5D 0C 57 8B 3D 30 90 42 .E..E.S.].W.=0.B
0041E1B0 00 89 85 BC FE FF FF 83 FF FF 0F 84 A6 00 00 00 ................
0041E1C0 85 DB 75 21 68 F8 6A 42 00 6A 04 57 50 E8 DE 02 ..u!h.jB.j.WP...
0041E1D0 00 00 83 C4 10 5F 5B 8B 4D FC 33 CD E8 02 32 FF ....._[.M.3...2.
0041E1E0 FF 8B E5 5D C3 8B 43 0C 56 83 E8 24 8D 73 20 50 ...]..C.V..$.s P
0041E1F0 56 8D 45 B4 50 8D 45 E8 50 E8 02 02 00 00 68 50 V.E.P.E.P.....hP
0041E200 6B 42 00 8D 45 B4 50 68 54 6B 42 00 8D 45 E8 50 kB..E.PhTkB..E.P
0041E210 8B 43 0C 68 58 6B 42 00 FF 75 10 83 E8 24 68 64 .C.hXkB..u...$hd
0041E220 6B 42 00 50 68 98 6B 42 00 56 68 A4 6B 42 00 68 kB.Ph.kB.Vh.kB.h
0041E230 B8 6B 42 00 68 10 6C 42 00 8D 85 C0 FE FF FF 68 .kB.h.lB.......h
0041E240 F4 00 00 00 50 E8 1F 33 FF FF 83 C4 4C 8D 85 C0 ....P..3....L...
0041E250 FE FF FF 50 6A 04 57 FF B5 BC FE FF FF E8 4E 02 ...Pj.W.......N.
0041E260 00 00 83 C4 10 5E 8B 4D FC 5F 33 CD 5B E8 71 31 .....^.M._3.[.q1
0041E270 FF FF 8B E5 5D C3 CC CC CC CC CC CC CC CC CC CC ....]...........
0041E280 CC CC CC CC CC CC CC CC CC CC CC CC CC CC CC CC ................
0041E290 CC CC CC CC CC CC CC CC CC CC CC CC CC CC CC CC ................
0041E2A0 CC CC CC CC CC CC CC CC CC CC CC CC CC CC CC CC ................

l0041E2B0:
	push	ebp
	mov	ebp,esp
	mov	eax,[ebp+0C]
	cmp	eax,04
	ja	0041E2DE

l0041E2BB:
	mov	ecx,[00429020+eax*4]
	mov	edx,[004265B0+eax*4]
	cmp	ecx,FF
	jz	0041E2FC

l0041E2CE:
	push	edx
	push	eax
	push	ecx
	push	dword ptr [ebp+08]
	call	0041E4B0
	add	esp,10
	pop	ebp
	ret

l0041E2DE:
	mov	edx,[004265C4]
	mov	eax,00000005
	push	edx
	push	eax
	mov	ecx,00000001
	push	ecx
	push	dword ptr [ebp+08]
	call	0041E4B0
	add	esp,10

l0041E2FC:
	pop	ebp
	ret
0041E2FE                                           CC CC               ..
0041E300 CC CC CC CC CC CC CC CC CC CC CC CC CC CC CC CC ................
0041E310 CC CC CC CC CC CC CC CC CC CC CC CC CC CC CC CC ................

l0041E320:
	push	ebp
	mov	ebp,esp
	sub	esp,00000404
	mov	eax,[00429014]
	xor	eax,ebp
	mov	[ebp-04],eax
	push	ebx
	mov	ebx,[ebp+08]
	push	esi
	mov	esi,[ebp+0C]
	push	edi
	mov	edi,[00429028]
	cmp	edi,FF
	jz	0041E3BA

l0041E347:
	cmp	byte ptr [esi],00
	jz	0041E3A8

l0041E34C:
	push	esi
	call	0041E490
	add	eax,2D
	add	esp,04
	cmp	eax,00000400
	ja	0041E3A8

l0041E35F:
	push	004265E0
	lea	eax,[ebp-00000404]
	push	00000400
	push	eax
	call	004115B4
	push	esi
	lea	eax,[ebp-00000404]
	push	00000400
	push	eax
	call	0041129E
	push	004265FC
	lea	eax,[ebp-00000404]
	push	00000400
	push	eax
	call	0041129E
	add	esp,24
	lea	eax,[ebp-00000404]
	jmp	0041E3AD

l0041E3A8:
	mov	eax,00426AC0

l0041E3AD:
	push	eax
	push	02
	push	edi
	push	ebx
	call	0041E4B0
	add	esp,10

l0041E3BA:
	mov	ecx,[ebp-04]
	pop	edi
	pop	esi
	xor	ecx,ebp
	pop	ebx
	call	004113E3
	mov	esp,ebp
	pop	ebp
	ret
0041E3CB                                  CC CC CC CC CC            .....
0041E3D0 CC CC CC CC CC CC CC CC CC CC CC CC CC CC CC CC ................
0041E3E0 CC CC CC CC CC CC CC CC CC CC CC CC CC CC CC CC ................
0041E3F0 CC CC CC CC CC CC CC CC CC CC CC CC CC CC CC CC ................
0041E400 55 8B EC 51 53 8B 5D 10 33 D2 56 8B 75 08 57 33 U..QS.].3.V.u.W3
0041E410 FF 2B DE 89 5D 10 8B 45 14 89 55 FC 83 F8 10 72 .+..]..E..U....r
0041E420 05 B8 10 00 00 00 8B 4D 0C 03 CF 3B D0 73 2C 8A .......M...;.s,.
0041E430 1C 33 0F B6 C3 50 B8 31 00 00 00 68 F0 6A 42 00 .3...P.1...h.jB.
0041E440 2B C7 50 51 E8 20 31 FF FF 8B 55 FC 83 C4 10 88 +.PQ. 1...U.....
0041E450 1E 42 8B 5D 10 46 83 C7 03 EB BB 5F C6 06 00 5E .B.].F....._...^
0041E460 C6 01 00 5B 8B E5 5D C3 CC CC CC CC CC CC CC CC ...[..].........
0041E470 CC CC CC CC CC CC CC CC CC CC CC CC CC CC CC CC ................
0041E480 CC CC CC CC CC CC CC CC CC CC CC CC CC CC CC CC ................

;; fn0041E490: 0041E490
;;   Called from:
;;     0041E34D (in fn00411348)
fn0041E490 proc
	push	ebp
	mov	ebp,esp
	mov	edx,[ebp+08]
	mov	eax,edx

l0041E498:
	mov	cl,[eax]
	inc	eax
	test	cl,cl
	jnz	0041E498

l0041E49F:
	sub	eax,edx
	dec	eax
	pop	ebp
	ret
0041E4A4             CC CC CC CC CC CC CC CC CC CC CC CC     ............

;; fn0041E4B0: 0041E4B0
;;   Called from:
;;     0041E2D4 (in fn00411528)
;;     0041E2F4 (in fn00411528)
;;     0041E3B2 (in fn00411348)
fn0041E4B0 proc
	push	ebp
	mov	ebp,esp
	sub	esp,00000E3C
	mov	eax,[00429014]
	xor	eax,ebp
	mov	[ebp-04],eax
	mov	eax,[ebp+10]
	push	ebx
	mov	ebx,[ebp+14]
	push	esi
	mov	esi,[ebp+08]
	push	edi
	push	esi
	mov	[ebp-00000E30],eax
	mov	[ebp-00000E3C],ebx
	mov	dword ptr [ebp-00000E34],00000000
	call	004112DA
	mov	edi,eax
	add	esp,04
	test	edi,edi
	jnz	0041E503

l0041E4F4:
	push	esi
	call	00411069
	add	esp,04
	mov	[ebp-00000E34],eax

l0041E503:
	push	00
	push	00
	push	FF
	push	ebx
	push	00
	push	0000FDE9
	call	dword ptr [0042A020]
	cmp	eax,00000200
	jnc	0041E540

l0041E51E:
	push	eax
	lea	eax,[ebp-00000E2C]
	push	eax
	push	FF
	push	ebx
	push	00
	push	0000FDE9
	call	dword ptr [0042A020]
	lea	ebx,[ebp-00000E2C]
	test	eax,eax
	jnz	0041E545

l0041E540:
	mov	ebx,00426998

l0041E545:
	push	00001002
	call	0041E0E0
	add	esp,04
	test	al,al
	jz	0041E578

l0041E556:
	mov	eax,[ebp-00000E30]
	push	ebx
	push	esi
	push	dword ptr [004265C8+eax*4]
	push	eax
	call	0041E130
	add	esp,10
	test	al,al
	jnz	0041E69D

l0041E576:
	jmp	0041E57A

l0041E578:
	mov	al,01

l0041E57A:
	cmp	dword ptr [ebp-00000E34],00
	jnz	0041E58B

l0041E583:
	test	edi,edi
	jz	0041E69C

l0041E58B:
	test	al,al
	jz	0041E59D

l0041E58F:
	call	dword ptr [0042A008]
	test	eax,eax
	jnz	0041E69C

l0041E59D:
	push	00000104
	lea	eax,[ebp-00000414]
	push	eax
	lea	eax,[ebp-00000E38]
	push	eax
	push	00000104
	lea	eax,[ebp-0000020C]
	push	eax
	lea	eax,[esi-05]
	push	eax
	call	00411780
	add	esp,18
	test	edi,edi
	jz	0041E5FE

l0041E5CC:
	push	ebx
	push	dword ptr [ebp-00000E30]
	lea	eax,[ebp-00000414]
	mov	ecx,edi
	push	00426A20
	push	eax
	push	dword ptr [ebp-00000E38]
	lea	eax,[ebp-0000020C]
	push	eax
	push	dword ptr [ebp+0C]
	call	dword ptr [0042D000]
	call	edi
	jmp	0041E694

l0041E5FE:
	push	00
	push	00
	push	0000030A
	lea	eax,[ebp-00000720]
	mov	esi,00426A6C
	push	eax
	push	FF
	lea	eax,[ebp-0000020C]
	push	eax
	push	00
	push	0000FDE9
	call	dword ptr [0042A024]
	test	eax,eax
	jz	0041E633

l0041E62D:
	lea	esi,[ebp-00000720]

l0041E633:
	push	00
	push	00
	push	0000030A
	lea	eax,[ebp-00000A2C]
	mov	edi,00426A80
	push	eax
	push	FF
	lea	eax,[ebp-00000414]
	push	eax
	push	00
	push	0000FDE9
	call	dword ptr [0042A024]
	test	eax,eax
	jz	0041E668

l0041E662:
	lea	edi,[ebp-00000A2C]

l0041E668:
	push	dword ptr [ebp-00000E3C]
	mov	ebx,[ebp-00000E34]
	mov	ecx,ebx
	push	dword ptr [ebp-00000E30]
	push	00426A98
	push	edi
	push	dword ptr [ebp-00000E38]
	push	esi
	push	dword ptr [ebp+0C]
	call	dword ptr [0042D000]
	call	ebx

l0041E694:
	add	esp,1C
	cmp	eax,01
	jnz	0041E69D

l0041E69C:
	int	03

l0041E69D:
	mov	ecx,[ebp-04]
	pop	edi
	pop	esi
	xor	ecx,ebp
	pop	ebx
	call	004113E3
	mov	esp,ebp
	pop	ebp
	ret
0041E6AE                                           CC CC               ..
0041E6B0 CC CC CC CC CC CC CC CC CC CC CC CC CC CC CC CC ................
0041E6C0 CC CC CC CC CC CC CC CC CC CC CC CC CC CC CC CC ................
0041E6D0 CC CC CC CC CC CC CC CC CC CC CC CC CC CC CC CC ................
0041E6E0 CC CC CC CC CC CC CC CC CC CC CC CC CC CC CC CC ................
0041E6F0 CC CC CC CC CC CC CC CC CC CC CC CC CC CC CC CC ................
0041E700 CC CC CC CC CC CC CC CC CC CC CC CC CC CC CC CC ................
0041E710 CC CC CC CC CC CC CC CC CC CC CC CC CC CC CC CC ................
0041E720 CC CC CC CC CC CC CC CC CC CC CC CC CC CC CC CC ................

;; fn0041E730: 0041E730
;;   Called from:
;;     0041E101 (in fn0041E0E0)
;;     0041E163 (in fn0041E130)
fn0041E730 proc
	push	ebp
	mov	ebp,esp
	push	FE
	push	00428A08
	push	0041FBE0
	mov	eax,fs:[00000000]
	push	eax
	sub	esp,08
	push	ebx
	push	esi
	push	edi
	mov	eax,[00429014]
	xor	[ebp-08],eax
	xor	eax,ebp
	push	eax
	lea	eax,[ebp-10]
	mov	fs:[00000000],eax
	mov	[ebp-18],esp
	mov	dword ptr [ebp-04],00000000
	push	dword ptr [ebp+08]
	push	06
	push	00
	push	406D1388
	call	dword ptr [0042A01C]
	jmp	0041E794
0041E77E                                           8B 45               .E
0041E780 EC 8B 00 33 C9 81 38 88 13 6D 40 0F 94 C1 8B C1 ...3..8..m@.....
0041E790 C3 8B 65 E8                                     ..e.           

l0041E794:
	mov	dword ptr [ebp-04],FFFFFFFE
	mov	ecx,[ebp-10]
	mov	fs:[00000000],ecx
	pop	ecx
	pop	edi
	pop	esi
	pop	ebx
	mov	esp,ebp
	pop	ebp
	ret
0041E7AD                                        CC CC CC              ...
0041E7B0 CC CC CC CC CC CC CC CC CC CC CC CC CC CC CC CC ................
0041E7C0 CC CC CC CC CC CC CC CC CC CC CC CC CC CC CC CC ................
0041E7D0 55 8B EC 81 EC 04 04 00 00 A1 14 90 42 00 33 C5 U...........B.3.
0041E7E0 89 45 FC 56 8B 75 08 57 8B 3D 2C 90 42 00 83 FF .E.V.u.W.=,.B...
0041E7F0 FF 74 75 85 F6 74 5C 56 E8 93 FC FF FF 83 C0 3A .tu..t\V.......:
0041E800 83 C4 04 3D 00 04 00 00 77 49 68 10 66 42 00 8D ...=....wIh.fB..
0041E810 85 FC FB FF FF 68 00 04 00 00 50 E8 94 2D FF FF .....h....P..-..
0041E820 56 8D 85 FC FB FF FF 68 00 04 00 00 50 E8 6C 2A V......h....P.l*
0041E830 FF FF 68 20 66 42 00 8D 85 FC FB FF FF 68 00 04 ..h fB.......h..
0041E840 00 00 50 E8 56 2A FF FF 83 C4 24 8D 85 FC FB FF ..P.V*....$.....
0041E850 FF EB 05 B8 30 6C 42 00 50 8B 45 04 6A 03 57 50 ....0lB.P.E.j.WP
0041E860 E8 4B FC FF FF 83 C4 10 8B 4D FC 5F 33 CD 5E E8 .K.......M._3.^.
0041E870 6F 2B FF FF 8B E5 5D C3 CC CC CC CC CC CC CC CC o+....].........
0041E880 CC CC CC CC CC CC CC CC CC CC CC CC CC CC CC CC ................
0041E890 CC CC CC CC CC CC CC CC CC CC CC CC CC CC CC CC ................
0041E8A0 CC CC CC CC CC CC CC CC CC CC CC CC CC CC CC CC ................
0041E8B0 B8 60 93 42 00 C3 CC CC CC CC CC CC CC CC CC CC .`.B............
0041E8C0 55 8B EC E8 49 2A FF FF FF 75 18 FF 75 14 FF 75 U...I*...u..u..u
0041E8D0 10 FF 75 0C FF 75 08 FF 70 04 FF 30 E8 C2 29 FF ..u..u..p..0..).
0041E8E0 FF 83 C4 1C 85 C0 79 03 83 C8 FF 5D C3 CC CC CC ......y....]....
0041E8F0 CC CC CC CC CC CC CC CC CC CC CC CC CC CC CC CC ................
0041E900 55 8B EC 8D 45 14 50 6A 00 FF 75 10 FF 75 0C FF U...E.Pj..u..u..
0041E910 75 08 E8 CD 29 FF FF 83 C4 14 5D C3 CC CC CC CC u...).....].....
0041E920 CC CC CC CC CC CC CC CC CC CC CC CC CC CC CC CC ................

;; fn0041E930: 0041E930
;;   Called from:
;;     0041115E (in fn0041115E)
fn0041E930 proc
	push	ebp
	mov	ebp,esp
	push	00
	call	dword ptr [0042A010]
	mov	eax,[ebp+08]
	push	eax
	call	dword ptr [0042A00C]
	push	C0000409
	call	dword ptr [0042A028]
	push	eax
	call	dword ptr [0042A02C]
	pop	ebp
	ret
0041E959                            CC CC CC CC CC CC CC          .......
0041E960 CC CC CC CC CC CC CC CC CC CC CC CC CC CC CC CC ................

;; fn0041E970: 0041E970
;;   Called from:
;;     0041100A (in fn0041D010)
fn0041E970 proc
	push	ebp
	mov	ebp,esp
	sub	esp,00000324
	push	17
	call	004110A0
	test	eax,eax
	jz	0041E98B

l0041E984:
	mov	ecx,00000002
	int	29

l0041E98B:
	mov	[00429470],eax
	mov	[0042946C],ecx
	mov	[00429468],edx
	mov	[00429464],ebx
	mov	[00429460],esi
	mov	[0042945C],edi
	mov	[00429488],ss
	mov	[0042947C],cs
	mov	[00429458],ds
	mov	[00429454],es
	mov	[00429450],fs
	mov	[0042944C],gs
	pushf
	pop	dword ptr [00429480]
	mov	eax,[ebp+00]
	mov	[00429474],eax
	mov	eax,[ebp+04]
	mov	[00429478],eax
	lea	eax,[ebp+08]
	mov	[00429484],eax
	mov	eax,[ebp-00000324]
	mov	dword ptr [004293C0],00010001
	mov	eax,[00429478]
	mov	[0042937C],eax
	mov	dword ptr [00429370],C0000409
	mov	dword ptr [00429374],00000001
	mov	dword ptr [00429380],00000001
	mov	ecx,00000004
	imul	edx,ecx,00
	mov	dword ptr [edx+00429384],00000002
	mov	eax,00000004
	imul	ecx,eax,00
	mov	edx,[00429014]
	mov	[ebp+ecx-08],edx
	mov	eax,00000004
	shl	eax,00
	mov	ecx,[00429010]
	mov	[ebp+eax-08],ecx
	push	00426C70
	call	0041115E
	mov	esp,ebp
	pop	ebp
	ret
0041EA73          CC CC CC CC CC CC CC CC CC CC CC CC CC    .............
0041EA80 CC CC CC CC CC CC CC CC CC CC CC CC CC CC CC CC ................
0041EA90 CC CC CC CC CC CC CC CC CC CC CC CC CC CC CC CC ................
0041EAA0 CC CC CC CC CC CC CC CC CC CC CC CC CC CC CC CC ................
0041EAB0 CC CC CC CC CC CC CC CC CC CC CC CC CC CC CC CC ................
0041EAC0 55 8B EC 6A 08 E8 EE 26 FF FF 5D C3 CC CC CC CC U..j...&..].....
0041EAD0 55 8B EC 81 EC 1C 03 00 00 6A 17 E8 C0 25 FF FF U........j...%..
0041EAE0 85 C0 74 05 8B 4D 08 CD 29 A3 70 94 42 00 89 0D ..t..M..).p.B...
0041EAF0 6C 94 42 00 89 15 68 94 42 00 89 1D 64 94 42 00 l.B...h.B...d.B.
0041EB00 89 35 60 94 42 00 89 3D 5C 94 42 00 66 8C 15 88 .5`.B..=\.B.f...
0041EB10 94 42 00 66 8C 0D 7C 94 42 00 66 8C 1D 58 94 42 .B.f..|.B.f..X.B
0041EB20 00 66 8C 05 54 94 42 00 66 8C 25 50 94 42 00 66 .f..T.B.f.%P.B.f
0041EB30 8C 2D 4C 94 42 00 9C 8F 05 80 94 42 00 8B 45 00 .-L.B......B..E.
0041EB40 A3 74 94 42 00 8B 45 04 A3 78 94 42 00 8D 45 08 .t.B..E..x.B..E.
0041EB50 A3 84 94 42 00 8B 85 E4 FC FF FF A1 78 94 42 00 ...B........x.B.
0041EB60 A3 7C 93 42 00 C7 05 70 93 42 00 09 04 00 C0 C7 .|.B...p.B......
0041EB70 05 74 93 42 00 01 00 00 00 C7 05 80 93 42 00 01 .t.B.........B..
0041EB80 00 00 00 B9 04 00 00 00 6B D1 00 8B 45 08 89 82 ........k...E...
0041EB90 84 93 42 00 68 70 6C 42 00 E8 C0 25 FF FF 8B E5 ..B.hplB...%....
0041EBA0 5D C3 CC CC CC CC CC CC CC CC CC CC CC CC CC CC ]...............
0041EBB0 CC CC CC CC CC CC CC CC CC CC CC CC CC CC CC CC ................
0041EBC0 CC CC CC CC CC CC CC CC CC CC CC CC CC CC CC CC ................
0041EBD0 CC CC CC CC CC CC CC CC CC CC CC CC CC CC CC CC ................
0041EBE0 55 8B EC 81 EC 20 03 00 00 6A 17 E8 B0 24 FF FF U.... ...j...$..
0041EBF0 85 C0 74 05 8B 4D 08 CD 29 A3 70 94 42 00 89 0D ..t..M..).p.B...
0041EC00 6C 94 42 00 89 15 68 94 42 00 89 1D 64 94 42 00 l.B...h.B...d.B.
0041EC10 89 35 60 94 42 00 89 3D 5C 94 42 00 66 8C 15 88 .5`.B..=\.B.f...
0041EC20 94 42 00 66 8C 0D 7C 94 42 00 66 8C 1D 58 94 42 .B.f..|.B.f..X.B
0041EC30 00 66 8C 05 54 94 42 00 66 8C 25 50 94 42 00 66 .f..T.B.f.%P.B.f
0041EC40 8C 2D 4C 94 42 00 9C 8F 05 80 94 42 00 8B 45 00 .-L.B......B..E.
0041EC50 A3 74 94 42 00 8B 45 04 A3 78 94 42 00 8D 45 08 .t.B..E..x.B..E.
0041EC60 A3 84 94 42 00 8B 85 E0 FC FF FF A1 78 94 42 00 ...B........x.B.
0041EC70 A3 7C 93 42 00 C7 05 70 93 42 00 09 04 00 C0 C7 .|.B...p.B......
0041EC80 05 74 93 42 00 01 00 00 00 83 7D 0C 00 76 0D 83 .t.B......}..v..
0041EC90 7D 10 00 75 07 C7 45 0C 00 00 00 00 83 7D 0C 0E }..u..E......}..
0041ECA0 76 09 8B 4D 0C 83 E9 01 89 4D 0C 8B 55 0C 83 C2 v..M.....M..U...
0041ECB0 01 89 15 80 93 42 00 B8 04 00 00 00 6B C8 00 8B .....B......k...
0041ECC0 55 08 89 91 84 93 42 00 C7 45 FC 00 00 00 00 EB U.....B..E......
0041ECD0 09 8B 45 FC 83 C0 01 89 45 FC 8B 4D FC 3B 4D 0C ..E.....E..M.;M.
0041ECE0 73 15 8B 55 FC 8B 45 FC 8B 4D 10 8B 04 81 89 04 s..U..E..M......
0041ECF0 95 88 93 42 00 EB DA 68 70 6C 42 00 E8 5D 24 FF ...B...hplB..]$.
0041ED00 FF 8B E5 5D C3 CC CC CC CC CC CC CC CC CC CC CC ...]............
0041ED10 CC CC CC CC CC CC CC CC CC CC CC CC CC CC CC CC ................
0041ED20 CC CC CC CC CC CC CC CC CC CC CC CC CC CC CC CC ................
0041ED30 CC CC CC CC CC CC CC CC CC CC CC CC CC CC CC CC ................
0041ED40 CC CC CC CC CC CC CC CC CC CC CC CC CC CC CC CC ................

l0041ED50:
	mov	eax,[0042972C]
	ret
0041ED56                   CC CC CC CC CC CC CC CC CC CC       ..........

l0041ED60:
	mov	eax,[00429730]
	ret
0041ED66                   CC CC CC CC CC CC CC CC CC CC       ..........
0041ED70 55 8B EC 8B 45 08 83 F8 04 77 09 8B 04 85 7C 6C U...E....w....|l
0041ED80 42 00 5D C3 33 C0 5D C3 CC CC CC CC CC CC CC CC B.].3.].........
0041ED90 B8 05 00 00 00 C3 CC CC CC CC CC CC CC CC CC CC ................
0041EDA0 55 8B EC A1 2C 97 42 00 8B 4D 08 89 0D 2C 97 42 U...,.B..M...,.B
0041EDB0 00 C7 05 30 97 42 00 00 00 00 00 5D C3 CC CC CC ...0.B.....]....
0041EDC0 CC CC CC CC CC CC CC CC CC CC CC CC CC CC CC CC ................
0041EDD0 55 8B EC A1 30 97 42 00 8B 4D 08 89 0D 30 97 42 U...0.B..M...0.B
0041EDE0 00 C7 05 2C 97 42 00 00 00 00 00 5D C3 CC CC CC ...,.B.....]....
0041EDF0 CC CC CC CC CC CC CC CC CC CC CC CC CC CC CC CC ................
0041EE00 55 8B EC 8B 55 08 83 FA 04 77 13 8B 04 95 20 90 U...U....w.... .
0041EE10 42 00 8B 4D 0C 89 0C 95 20 90 42 00 5D C3 83 C8 B..M.... .B.]...
0041EE20 FF 5D C3 CC CC CC CC CC CC CC CC CC CC CC CC CC .]..............

;; fn0041EE30: 0041EE30
;;   Called from:
;;     0041EEEC (in fn0041EEC0)
fn0041EE30 proc
	push	ebp
	mov	ebp,esp
	sub	esp,14
	xor	eax,eax
	mov	[ebp-0C],eax
	mov	[ebp-08],eax
	lea	ecx,[ebp-0C]
	push	ecx
	call	dword ptr [0042A038]
	mov	edx,[ebp-0C]
	mov	[ebp-04],edx
	mov	eax,[ebp-04]
	xor	eax,[ebp-08]
	mov	[ebp-04],eax
	call	dword ptr [0042A000]
	xor	eax,[ebp-04]
	mov	[ebp-04],eax
	call	dword ptr [0042A034]
	xor	eax,[ebp-04]
	mov	[ebp-04],eax
	lea	ecx,[ebp-14]
	push	ecx
	call	dword ptr [0042A030]
	mov	edx,[ebp-04]
	xor	edx,[ebp-14]
	mov	[ebp-04],edx
	mov	eax,[ebp-04]
	xor	eax,[ebp-10]
	mov	[ebp-04],eax
	mov	ecx,[ebp-04]
	lea	edx,[ebp-04]
	xor	ecx,edx
	mov	[ebp-04],ecx
	mov	eax,[ebp-04]
	mov	esp,ebp
	pop	ebp
	ret
0041EE9D                                        CC CC CC              ...
0041EEA0 CC CC CC CC CC CC CC CC CC CC CC CC CC CC CC CC ................
0041EEB0 CC CC CC CC CC CC CC CC CC CC CC CC CC CC CC CC ................

;; fn0041EEC0: 0041EEC0
;;   Called from:
;;     004115AF (in fn004115AF)
fn0041EEC0 proc
	push	ebp
	mov	ebp,esp
	push	ecx
	cmp	dword ptr [00429014],BB40E64E
	jz	0041EEEC

l0041EED0:
	mov	eax,[00429014]
	and	eax,FFFF0000
	jz	0041EEEC

l0041EEDC:
	mov	ecx,[00429014]
	not	ecx
	mov	[00429010],ecx
	jmp	0041EF36

l0041EEEC:
	call	0041EE30
	mov	[ebp-04],eax
	cmp	dword ptr [ebp-04],BB40E64E
	jnz	0041EF06

l0041EEFD:
	mov	dword ptr [ebp-04],BB40E64F
	jmp	0041EF22

l0041EF06:
	mov	edx,[ebp-04]
	and	edx,FFFF0000
	jnz	0041EF22

l0041EF11:
	mov	eax,[ebp-04]
	or	eax,00004711
	shl	eax,10
	or	eax,[ebp-04]
	mov	[ebp-04],eax

l0041EF22:
	mov	ecx,[ebp-04]
	mov	[00429014],ecx
	mov	edx,[ebp-04]
	not	edx
	mov	[00429010],edx

l0041EF36:
	mov	esp,ebp
	pop	ebp
	ret
0041EF3A                               CC CC CC CC CC CC           ......
0041EF40 CC CC CC CC CC CC CC CC CC CC CC CC CC CC CC CC ................
0041EF50 CC CC CC CC CC CC CC CC CC CC CC CC CC CC CC CC ................
0041EF60 55 8B EC 33 C0 5D C3 CC CC CC CC CC CC CC CC CC U..3.]..........
0041EF70 55 8B EC 33 C0 5D C3 CC CC CC CC CC CC CC CC CC U..3.]..........
0041EF80 55 8B EC B8 00 40 00 00 5D C3 CC CC CC CC CC CC U....@..].......
0041EF90 55 8B EC 33 C0 5D C3 CC CC CC CC CC CC CC CC CC U..3.]..........
0041EFA0 55 8B EC 33 C0 5D C3 CC CC CC CC CC CC CC CC CC U..3.]..........
0041EFB0 55 8B EC 68 38 97 42 00 FF 15 3C A0 42 00 5D C3 U..h8.B...<.B.].
0041EFC0 CC CC CC CC CC CC CC CC CC CC CC CC CC CC CC CC ................
0041EFD0 55 8B EC 68 38 97 42 00 E8 F0 20 FF FF 83 C4 04 U..h8.B... .....
0041EFE0 5D C3 CC CC CC CC CC CC CC CC CC CC CC CC CC CC ]...............
0041EFF0 55 8B EC B0 01 5D C3 CC CC CC CC CC CC CC CC CC U....]..........
0041F000 55 8B EC 68 00 00 03 00 68 00 00 01 00 6A 00 E8 U..h....h....j..
0041F010 2F 23 FF FF 83 C4 0C 85 C0 74 07 6A 07 E8 C4 25 /#.......t.j...%
0041F020 FF FF 5D C3 CC CC CC CC CC CC CC CC CC CC CC CC ..].............
0041F030 55 8B EC 5D C3 CC CC CC CC CC CC CC CC CC CC CC U..]............
0041F040 55 8B EC 5D C3 CC CC CC CC CC CC CC CC CC CC CC U..]............
0041F050 55 8B EC B8 48 97 42 00 5D C3 CC CC CC CC CC CC U...H.B.].......
0041F060 55 8B EC 83 EC 08 E8 A6 22 FF FF 89 45 FC 8B 45 U......."...E..E
0041F070 FC 8B 08 83 C9 04 8B 50 04 8B 45 FC 89 08 89 50 .......P..E....P
0041F080 04 E8 0B 25 FF FF 89 45 F8 8B 4D F8 8B 11 83 CA ...%...E..M.....
0041F090 02 8B 41 04 8B 4D F8 89 11 89 41 04 8B E5 5D C3 ..A..M....A...].
0041F0A0 CC CC CC CC CC CC CC CC CC CC CC CC CC CC CC CC ................
0041F0B0 55 8B EC 51 83 3D 38 90 42 00 00 75 09 C7 45 FC U..Q.=8.B..u..E.
0041F0C0 01 00 00 00 EB 07 C7 45 FC 00 00 00 00 8B 45 FC .......E......E.
0041F0D0 8B E5 5D C3 CC CC CC CC CC CC CC CC CC CC CC CC ..].............

l0041F0E0:
	push	ebp
	mov	ebp,esp
	mov	eax,00429768
	pop	ebp
	ret
0041F0EA                               CC CC CC CC CC CC           ......

l0041F0F0:
	push	ebp
	mov	ebp,esp
	mov	eax,0042975C
	pop	ebp
	ret
0041F0FA                               CC CC CC CC CC CC           ......
0041F100 56 BE 0C 76 42 00 8B C6 3D 10 78 42 00 73 1D 57 V..vB...=.xB.s.W
0041F110 8B 3E 85 FF 74 0A 8B CF FF 15 00 D0 42 00 FF D7 .>..t.......B...
0041F120 83 C6 04 81 FE 10 78 42 00 72 E5 5F 5E C3 CC CC ......xB.r._^...
0041F130 CC CC CC CC CC CC CC CC CC CC CC CC CC CC CC CC ................
0041F140 56 BE 18 79 42 00 8B C6 3D 1C 7B 42 00 73 1D 57 V..yB...=.{B.s.W
0041F150 8B 3E 85 FF 74 0A 8B CF FF 15 00 D0 42 00 FF D7 .>..t.......B...
0041F160 83 C6 04 81 FE 1C 7B 42 00 72 E5 5F 5E C3 CC CC ......{B.r._^...
0041F170 CC CC CC CC CC CC CC CC CC CC CC CC CC CC CC CC ................
0041F180 55 8B EC 51 89 4D FC 8B 45 FC C7 00 64 6D 42 00 U..Q.M..E...dmB.
0041F190 8B E5 5D C3 CC CC CC CC CC CC CC CC CC CC CC CC ..].............
0041F1A0 55 8B EC 51 89 4D FC 8B 4D FC E8 20 22 FF FF 8B U..Q.M..M.. "...
0041F1B0 45 08 83 E0 01 74 0E 6A 0C 8B 4D FC 51 E8 85 22 E....t.j..M.Q.."
0041F1C0 FF FF 83 C4 08 8B 45 FC 8B E5 5D C2 04 00 CC CC ......E...].....
0041F1D0 CC CC CC CC CC CC CC CC CC CC CC CC CC CC CC CC ................

;; fn0041F1E0: 0041F1E0
;;   Called from:
;;     0041F839 (in fn00411780)
fn0041F1E0 proc
	push	ebp
	mov	ebp,esp
	sub	esp,00000414
	mov	eax,[00429014]
	xor	eax,ebp
	mov	[ebp-04],eax
	cmp	byte ptr [00429758],00
	jnz	0041F310

l0041F200:
	mov	byte ptr [00429758],01
	call	0041F370
	test	eax,eax
	jnz	0041F312

l0041F214:
	push	00426D90
	call	0041125D
	add	esp,04
	test	eax,eax
	jz	0041F29D

l0041F225:
	push	00000104
	lea	ecx,[ebp-00000414]
	push	ecx
	push	eax
	call	004110B4
	add	esp,0C
	test	eax,eax
	jz	0041F29D

l0041F23E:
	push	00000104
	lea	eax,[ebp-0000020C]
	push	eax
	lea	eax,[ebp-00000414]
	push	eax
	call	0041F660
	add	esp,0C
	test	eax,eax
	jz	0041F29D

l0041F25D:
	push	00000900
	lea	eax,[ebp-0000020C]
	push	00
	push	eax
	call	004115BE
	add	esp,0C
	test	eax,eax
	jnz	0041F312

l0041F27B:
	call	dword ptr [0042A040]
	cmp	eax,57
	jnz	0041F29D

l0041F286:
	push	08
	lea	eax,[ebp-0000020C]
	push	00
	push	eax
	call	004115BE
	add	esp,0C
	test	eax,eax
	jnz	0041F312

l0041F29D:
	push	00000A00
	push	00
	push	00426F44
	call	004115BE
	add	esp,0C
	test	eax,eax
	jnz	0041F312

l0041F2B5:
	call	dword ptr [0042A040]
	cmp	eax,57
	jnz	0041F310

l0041F2C0:
	push	00000104
	lea	eax,[ebp-00000414]
	push	eax
	push	00
	call	004110B4
	add	esp,0C
	test	eax,eax
	jz	0041F310

l0041F2DA:
	push	00000104
	lea	eax,[ebp-0000020C]
	push	eax
	lea	eax,[ebp-00000414]
	push	eax
	call	0041F660
	add	esp,0C
	test	eax,eax
	jz	0041F310

l0041F2F9:
	push	08
	lea	eax,[ebp-0000020C]
	push	00
	push	eax
	call	004115BE
	add	esp,0C
	test	eax,eax
	jnz	0041F312

l0041F310:
	xor	eax,eax

l0041F312:
	mov	ecx,[ebp-04]
	xor	ecx,ebp
	call	004113E3
	mov	esp,ebp
	pop	ebp
	ret
0041F320 CC CC CC CC CC CC CC CC CC CC CC CC CC CC CC CC ................
0041F330 CC CC CC CC CC CC CC CC CC CC CC CC CC CC CC CC ................
0041F340 CC CC CC CC CC CC CC CC CC CC CC CC CC CC CC CC ................
0041F350 CC CC CC CC CC CC CC CC CC CC CC CC CC CC CC CC ................
0041F360 CC CC CC CC CC CC CC CC CC CC CC CC CC CC CC CC ................

;; fn0041F370: 0041F370
;;   Called from:
;;     0041F207 (in fn0041F1E0)
fn0041F370 proc
	push	ebp
	mov	ebp,esp
	sub	esp,0000021C
	mov	eax,[00429014]
	xor	eax,ebp
	mov	[ebp-04],eax
	push	ebx
	push	esi
	push	edi
	push	00000800
	push	00
	push	00426DC8
	call	004115BE
	mov	edi,eax
	add	esp,0C
	test	edi,edi
	jnz	0041F3D9

l0041F3A0:
	push	00000800
	push	eax
	push	00426E20
	call	004115BE
	mov	edi,eax
	add	esp,0C
	test	edi,edi
	jnz	0041F3D9

l0041F3B9:
	call	dword ptr [0042A040]
	cmp	eax,57
	jnz	0041F43D

l0041F3C4:
	push	edi
	push	edi
	push	00426E20
	call	004115BE
	mov	edi,eax
	add	esp,0C
	test	edi,edi
	jz	0041F43D

l0041F3D9:
	push	00426E40
	push	edi
	call	dword ptr [0042A058]
	mov	esi,eax
	test	esi,esi
	jz	0041F43D

l0041F3EB:
	push	00426E50
	push	edi
	call	dword ptr [0042A058]
	mov	ebx,eax
	test	ebx,ebx
	jz	0041F43D

l0041F3FD:
	push	00426E64
	push	edi
	call	dword ptr [0042A058]
	mov	[ebp-00000218],eax
	test	eax,eax
	jz	0041F43D

l0041F413:
	lea	eax,[ebp-00000210]
	mov	ecx,esi
	push	eax
	push	01
	push	00
	push	00426E78
	push	80000002
	call	dword ptr [0042D000]
	call	esi
	test	eax,eax
	jz	0041F450

l0041F436:
	push	edi
	call	dword ptr [0042A054]

l0041F43D:
	pop	edi
	pop	esi
	xor	eax,eax
	pop	ebx
	mov	ecx,[ebp-04]
	xor	ecx,ebp
	call	004113E3
	mov	esp,ebp
	pop	ebp
	ret

l0041F450:
	lea	eax,[ebp-00000214]
	mov	dword ptr [ebp-00000214],00000208
	push	eax
	lea	eax,[ebp-0000020C]
	mov	ecx,ebx
	push	eax
	lea	eax,[ebp-0000021C]
	push	eax
	push	00
	push	00426F04
	push	dword ptr [ebp-00000210]
	call	dword ptr [0042D000]
	call	ebx
	push	dword ptr [ebp-00000210]
	mov	ebx,[ebp-00000218]
	mov	esi,eax
	mov	ecx,ebx
	call	dword ptr [0042D000]
	call	ebx
	push	edi
	call	dword ptr [0042A054]
	test	esi,esi
	jnz	0041F43D

l0041F4A9:
	cmp	dword ptr [ebp-0000021C],01
	jnz	0041F43D

l0041F4B2:
	mov	ecx,[ebp-00000214]
	test	cl,01
	jnz	0041F43D

l0041F4BD:
	shr	ecx,01
	mov	edx,ecx
	cmp	ecx,02
	jc	0041F43D

l0041F4CA:
	dec	ecx
	lea	eax,[ebp-0000020C]
	cmp	[eax+ecx*2],si
	lea	eax,[eax+ecx*2]
	jnz	0041F43D

l0041F4DE:
	cmp	word ptr [eax-02],5C
	jz	0041F4EF

l0041F4E5:
	mov	ecx,0000005C
	mov	[eax],cx
	mov	ecx,edx

l0041F4EF:
	mov	eax,ecx
	not	eax
	cmp	eax,12
	jc	0041F43D

l0041F4FC:
	lea	eax,[ecx+11]
	cmp	eax,00000104
	ja	0041F43D

l0041F50A:
	mov	eax,[00426D6C]
	mov	[ebp+ecx*2-0000020C],eax
	mov	eax,[00426D70]
	mov	[ebp+ecx*2-00000208],eax
	mov	eax,[00426D74]
	mov	[ebp+ecx*2-00000204],eax
	mov	eax,[00426D78]
	mov	[ebp+ecx*2-00000200],eax
	mov	eax,[00426D7C]
	mov	[ebp+ecx*2-000001FC],eax
	mov	eax,[00426D80]
	mov	[ebp+ecx*2-000001F8],eax
	mov	eax,[00426D84]
	mov	[ebp+ecx*2-000001F4],eax
	mov	eax,[00426D88]
	mov	[ebp+ecx*2-000001F0],eax
	mov	ax,[00426D8C]
	push	00000900
	mov	[ebp+ecx*2-000001EC],ax
	lea	eax,[ebp-0000020C]
	push	00
	push	eax
	call	004115BE
	mov	esi,eax
	add	esp,0C
	test	esi,esi
	jnz	0041F5B3

l0041F594:
	call	dword ptr [0042A040]
	cmp	eax,57
	jnz	0041F5B3

l0041F59F:
	push	08
	lea	eax,[ebp-0000020C]
	push	esi
	push	eax
	call	004115BE
	add	esp,0C
	mov	esi,eax

l0041F5B3:
	mov	ecx,[ebp-04]
	mov	eax,esi
	pop	edi
	pop	esi
	xor	ecx,ebp
	pop	ebx
	call	004113E3
	mov	esp,ebp
	pop	ebp
	ret
0041F5C6                   CC CC CC CC CC CC CC CC CC CC       ..........
0041F5D0 CC CC CC CC CC CC CC CC CC CC CC CC CC CC CC CC ................
0041F5E0 CC CC CC CC CC CC CC CC CC CC CC CC CC CC CC CC ................
0041F5F0 CC CC CC CC CC CC CC CC CC CC CC CC CC CC CC CC ................
0041F600 CC CC CC CC CC CC CC CC CC CC CC CC CC CC CC CC ................
0041F610 CC CC CC CC CC CC CC CC CC CC CC CC CC CC CC CC ................
0041F620 CC CC CC CC CC CC CC CC CC CC CC CC CC CC CC CC ................
0041F630 CC CC CC CC CC CC CC CC CC CC CC CC CC CC CC CC ................
0041F640 CC CC CC CC CC CC CC CC CC CC CC CC CC CC CC CC ................
0041F650 CC CC CC CC CC CC CC CC CC CC CC CC CC CC CC CC ................

;; fn0041F660: 0041F660
;;   Called from:
;;     0041F251 (in fn0041F1E0)
;;     0041F2ED (in fn0041F1E0)
fn0041F660 proc
	push	ebp
	mov	ebp,esp
	sub	esp,0000060C
	mov	eax,[00429014]
	xor	eax,ebp
	mov	[ebp-04],eax
	mov	eax,[ebp+08]
	lea	ecx,[ebp-0000020C]
	push	esi
	mov	esi,[ebp+0C]
	push	00000100
	push	ecx
	push	00000100
	lea	ecx,[ebp-0000040C]
	push	ecx
	push	00000100
	lea	ecx,[ebp-0000060C]
	push	ecx
	push	03
	lea	ecx,[ebp-0C]
	push	ecx
	push	eax
	call	0041151E
	add	esp,24
	test	eax,eax
	jnz	0041F722

l0041F6B1:
	push	00426F2C
	lea	eax,[ebp-0000040C]
	push	09
	push	eax
	call	0041170D
	add	esp,0C
	test	eax,eax
	jnz	0041F722

l0041F6CB:
	push	00426F20
	lea	eax,[ebp-0000020C]
	push	04
	push	eax
	call	0041170D
	add	esp,0C
	test	eax,eax
	jnz	0041F722

l0041F6E5:
	lea	eax,[ebp-0000020C]
	push	eax
	lea	eax,[ebp-0000040C]
	push	eax
	lea	eax,[ebp-0000060C]
	push	eax
	lea	eax,[ebp-0C]
	push	eax
	push	dword ptr [ebp+10]
	push	esi
	call	004112C6
	add	esp,18
	test	eax,eax
	jnz	0041F722

l0041F70E:
	mov	eax,00000001
	pop	esi
	mov	ecx,[ebp-04]
	xor	ecx,ebp
	call	004113E3
	mov	esp,ebp
	pop	ebp
	ret

l0041F722:
	mov	ecx,[ebp-04]
	xor	eax,eax
	xor	ecx,ebp
	pop	esi
	call	004113E3
	mov	esp,ebp
	pop	ebp
	ret
0041F733          CC CC CC CC CC CC CC CC CC CC CC CC CC    .............
0041F740 CC CC CC CC CC CC CC CC CC CC CC CC CC CC CC CC ................
0041F750 CC CC CC CC CC CC CC CC CC CC CC CC CC CC CC CC ................
0041F760 CC CC CC CC CC CC CC CC CC CC CC CC CC CC CC CC ................

l0041F770:
	push	ebp
	mov	ebp,esp
	mov	eax,[ebp+14]
	sub	esp,4C
	xor	ecx,ecx
	push	ebx
	push	esi
	mov	esi,[ebp+08]
	mov	dword ptr [eax],00000000
	dec	esi
	mov	eax,[ebp+0C]
	push	edi
	push	1C
	mov	[eax],cx
	lea	eax,[ebp-4C]
	push	eax
	push	esi
	call	dword ptr [0042A050]
	test	eax,eax
	jz	0041FAF3

l0041F7A3:
	push	dword ptr [ebp+1C]
	push	dword ptr [ebp+18]
	push	dword ptr [ebp-48]
	call	004110B4
	add	esp,0C
	test	eax,eax
	jz	0041FAF3

l0041F7BC:
	mov	eax,[ebp-48]
	mov	ecx,00005A4D
	cmp	[eax],cx
	jnz	0041FAF3

l0041F7CD:
	mov	ecx,[eax+3C]
	test	ecx,ecx
	jle	0041FAF3

l0041F7D8:
	add	ecx,eax
	cmp	dword ptr [ecx],00004550
	jnz	0041FAF3

l0041F7E6:
	movzx	edx,word ptr [ecx+14]
	sub	esi,eax
	movzx	edi,word ptr [ecx+06]
	add	edx,20
	xor	ebx,ebx
	xor	eax,eax
	test	edi,edi
	jz	0041F817

l0041F7FB:
	add	ecx,edx
	lea	ecx,[ecx+00]

l0041F800:
	mov	edx,[ecx+04]
	cmp	esi,edx
	jc	0041F80F

l0041F807:
	mov	ebx,esi
	sub	ebx,edx
	cmp	esi,[ecx]
	jc	0041F817

l0041F80F:
	inc	eax
	add	ecx,28
	cmp	eax,edi
	jc	0041F800

l0041F817:
	cmp	eax,edi
	jz	0041FAF3

l0041F81F:
	inc	eax
	cmp	byte ptr [00429759],00
	mov	[ebp-0C],eax
	jnz	0041F854

l0041F82C:
	cmp	dword ptr [00429754],00
	jnz	0041FAF3

l0041F839:
	call	0041F1E0
	mov	[00429754],eax
	test	eax,eax
	jz	0041FAF3

l0041F84B:
	mov	byte ptr [00429759],01
	jmp	0041F859

l0041F854:
	mov	eax,[00429754]

l0041F859:
	push	00426F5C
	push	eax
	call	dword ptr [0042A058]
	mov	esi,eax
	test	esi,esi
	jz	0041FAF3

l0041F86F:
	lea	eax,[ebp-18]
	mov	ecx,esi
	push	eax
	push	00
	push	00
	lea	eax,[ebp-30]
	push	eax
	push	00
	push	00
	push	00
	push	dword ptr [ebp+18]
	call	dword ptr [0042D000]
	call	esi
	add	esp,20
	test	eax,eax
	jz	0041FAF3

l0041F899:
	mov	edi,[ebp-18]
	mov	dword ptr [ebp-24],00000000
	mov	eax,[edi]
	mov	esi,[eax]
	mov	ecx,esi
	call	dword ptr [0042D000]
	mov	ecx,edi
	call	esi
	cmp	eax,01329141
	jnz	0041FA0E

l0041F8BE:
	mov	edi,[ebp-18]
	mov	eax,[edi]
	mov	esi,[eax+1C]
	lea	eax,[ebp-20]
	push	eax
	push	00426F70
	push	00
	mov	ecx,esi
	call	dword ptr [0042D000]
	mov	ecx,edi
	call	esi
	test	eax,eax
	jz	0041FA0E

l0041F8E5:
	mov	edi,[ebp-20]
	push	00
	push	00
	push	00
	mov	eax,[edi]
	mov	esi,[eax+20]
	lea	eax,[ebp-14]
	push	eax
	push	ebx
	push	dword ptr [ebp-0C]
	mov	ecx,esi
	call	dword ptr [0042D000]
	mov	ecx,edi
	call	esi
	test	eax,eax
	jz	0041F9FA

l0041F90F:
	mov	edi,[ebp-14]
	mov	dword ptr [ebp-08],00000000
	mov	eax,[edi]
	mov	esi,[eax+68]
	lea	eax,[ebp-08]
	push	eax
	mov	ecx,esi
	call	dword ptr [0042D000]
	mov	ecx,edi
	call	esi
	test	al,al
	jz	0041F9E6

l0041F936:
	mov	eax,[ebp-08]
	test	eax,eax
	jz	0041F9E6

l0041F941:
	mov	eax,[eax]
	xor	edi,edi
	mov	esi,[eax+08]
	mov	ecx,esi
	call	dword ptr [0042D000]
	mov	ecx,[ebp-08]
	call	esi
	test	eax,eax
	jz	0041F9C3

l0041F959:
	lea	esp,[esp+00000000]

l0041F960:
	mov	edi,[ebp-08]
	push	00
	mov	eax,[edi]
	mov	esi,[eax+0C]
	lea	eax,[ebp-10]
	push	eax
	lea	eax,[ebp-28]
	mov	ecx,esi
	push	eax
	lea	eax,[ebp-04]
	push	eax
	lea	eax,[ebp-1C]
	push	eax
	push	00
	call	dword ptr [0042D000]
	mov	ecx,edi
	call	esi
	test	al,al
	jz	0041F9D3

l0041F98C:
	movzx	eax,word ptr [ebp-04]
	cmp	eax,[ebp-0C]
	jnz	0041F9A9

l0041F995:
	mov	ecx,[ebp-1C]
	cmp	ecx,ebx
	ja	0041F9A9

l0041F99C:
	mov	eax,[ebp-28]
	add	eax,ecx
	cmp	ebx,eax
	jc	0041FA2C

l0041F9A9:
	mov	edi,[ebp-08]
	mov	eax,[edi]
	mov	esi,[eax+08]
	mov	ecx,esi
	call	dword ptr [0042D000]
	mov	ecx,edi
	call	esi
	test	eax,eax
	jnz	0041F960

l0041F9C1:
	xor	edi,edi

l0041F9C3:
	push	edi
	push	00
	call	dword ptr [0042A04C]
	push	eax
	call	dword ptr [0042A048]

l0041F9D3:
	mov	edi,[ebp-08]
	mov	eax,[edi]
	mov	esi,[eax]
	mov	ecx,esi
	call	dword ptr [0042D000]
	mov	ecx,edi
	call	esi

l0041F9E6:
	mov	edi,[ebp-14]
	mov	eax,[edi]
	mov	esi,[eax+40]
	mov	ecx,esi
	call	dword ptr [0042D000]
	mov	ecx,edi
	call	esi

l0041F9FA:
	mov	edi,[ebp-20]
	mov	eax,[edi]
	mov	esi,[eax+38]
	mov	ecx,esi
	call	dword ptr [0042D000]
	mov	ecx,edi
	call	esi

l0041FA0E:
	mov	edi,[ebp-18]
	mov	edx,[edi]
	mov	esi,[edx+2C]
	mov	ecx,esi
	call	dword ptr [0042D000]
	mov	ecx,edi
	call	esi
	mov	eax,[ebp-24]
	pop	edi
	pop	esi
	pop	ebx
	mov	esp,ebp
	pop	ebp
	ret

l0041FA2C:
	mov	eax,[ebp-10]
	test	eax,eax
	jz	0041F9D3

l0041FA33:
	cmp	eax,1FFFFFFF
	jnc	0041F9D3

l0041FA3A:
	shl	eax,03
	push	eax
	push	00
	call	dword ptr [0042A04C]
	push	eax
	call	dword ptr [0042A044]
	mov	[ebp-0C],eax
	test	eax,eax
	jz	0041F9D3

l0041FA58:
	mov	edi,[ebp-08]
	push	eax
	lea	eax,[ebp-10]
	push	eax
	mov	ecx,[edi]
	lea	eax,[ebp-2C]
	push	00
	push	00
	push	00
	mov	esi,[ecx+0C]
	mov	ecx,esi
	push	eax
	call	dword ptr [0042D000]
	mov	ecx,edi
	call	esi
	mov	edi,[ebp-0C]
	test	al,al
	jz	0041F9C3

l0041FA86:
	sub	ebx,[ebp-1C]
	cmp	ebx,[edi]
	jc	0041F9C3

l0041FA91:
	mov	ecx,[ebp-10]
	mov	eax,00000001
	cmp	ecx,eax
	jbe	0041FAAA

l0041FA9D:
	lea	ecx,[ecx+00]

l0041FAA0:
	cmp	ebx,[edi+eax*8]
	jc	0041FAAA

l0041FAA5:
	inc	eax
	cmp	eax,ecx
	jc	0041FAA0

l0041FAAA:
	mov	eax,[edi+eax*8-04]
	mov	ecx,[ebp+14]
	and	eax,00FFFFFF
	mov	edi,[ebp-14]
	push	00
	push	00
	mov	[ecx],eax
	mov	eax,[edi]
	push	00
	mov	esi,[eax+70]
	lea	eax,[ebp+10]
	push	eax
	push	dword ptr [ebp+0C]
	mov	ecx,esi
	push	dword ptr [ebp-2C]
	call	dword ptr [0042D000]
	mov	ecx,edi
	call	esi
	mov	edi,[ebp-0C]
	test	al,al
	jz	0041F9C3

l0041FAE7:
	mov	dword ptr [ebp-24],00000001
	jmp	0041F9C3

l0041FAF3:
	pop	edi
	pop	esi
	xor	eax,eax
	pop	ebx
	mov	esp,ebp
	pop	ebp
	ret
0041FAFC                                     CC CC CC CC             ....
0041FB00 CC CC CC CC CC CC CC CC CC CC CC CC CC CC CC CC ................
0041FB10 CC CC CC CC CC CC CC CC CC CC CC CC CC CC CC CC ................
0041FB20 CC CC CC CC CC CC CC CC CC CC CC CC CC CC CC CC ................
0041FB30 CC CC CC CC CC CC CC CC CC CC CC CC CC CC CC CC ................
0041FB40 CC CC CC CC CC CC CC CC CC CC CC CC CC CC CC CC ................
0041FB50 CC CC CC CC CC CC CC CC CC CC CC CC CC CC CC CC ................
0041FB60 CC CC CC CC CC CC CC CC CC CC CC CC CC CC CC CC ................
0041FB70 CC CC CC CC CC CC CC CC CC CC CC CC CC CC CC CC ................
0041FB80 CC CC CC CC CC CC CC CC CC CC CC CC CC CC CC CC ................
0041FB90 CC CC CC CC CC CC CC CC CC CC CC CC CC CC CC CC ................
0041FBA0 CC CC CC CC CC CC CC CC CC CC CC CC CC CC CC CC ................
0041FBB0 CC CC CC CC CC CC CC CC CC CC CC CC CC CC CC CC ................
0041FBC0 CC CC CC CC CC CC CC CC CC CC CC CC CC CC CC CC ................
0041FBD0 CC CC CC CC CC CC CC CC CC CC CC CC CC CC CC CC ................
0041FBE0 55 8B EC 51 8B 45 14 50 8B 4D 10 51 8B 55 0C 52 U..Q.E.P.M.Q.U.R
0041FBF0 8B 45 08 50 E8 67 D9 FF FF 83 C4 10 89 45 FC 8B .E.P.g.......E..
0041FC00 4D 08 8B 51 04 83 E2 66 75 16 8B 45 08 81 38 63 M..Q...fu..E..8c
0041FC10 73 6D E0 75 0B 83 7D FC 01 75 05 E8 85 14 FF FF sm.u..}..u......
0041FC20 8B 45 FC 8B E5 5D C3 CC CC CC CC CC CC CC CC CC .E...]..........
0041FC30 CC CC CC CC CC CC CC CC FF 25 6C A1 42 00 FF 25 .........%l.B..%
0041FC40 70 A1 42 00 FF 25 40 A1 42 00 FF 25 44 A1 42 00 p.B..%@.B..%D.B.
0041FC50 FF 25 48 A1 42 00 FF 25 4C A1 42 00 FF 25 50 A1 .%H.B..%L.B..%P.
0041FC60 42 00 FF 25 54 A1 42 00 FF 25 58 A1 42 00 FF 25 B..%T.B..%X.B..%
0041FC70 5C A1 42 00 FF 25 60 A1 42 00 FF 25 64 A1 42 00 \.B..%`.B..%d.B.
0041FC80 FF 25 68 A1 42 00 FF 25 0C A2 42 00 FF 25 08 A2 .%h.B..%..B..%..
0041FC90 42 00 FF 25 04 A2 42 00 FF 25 00 A2 42 00 FF 25 B..%..B..%..B..%
0041FCA0 FC A1 42 00 FF 25 F8 A1 42 00 FF 25 F4 A1 42 00 ..B..%..B..%..B.
0041FCB0 FF 25 F0 A1 42 00 FF 25 34 A2 42 00 FF 25 44 A2 .%..B..%4.B..%D.
0041FCC0 42 00 FF 25 3C A2 42 00 FF 25 38 A2 42 00 FF 25 B..%<.B..%8.B..%
0041FCD0 48 A2 42 00 FF 25 30 A2 42 00 FF 25 2C A2 42 00 H.B..%0.B..%,.B.
0041FCE0 FF 25 28 A2 42 00 FF 25 24 A2 42 00 FF 25 20 A2 .%(.B..%$.B..% .
0041FCF0 42 00 FF 25 1C A2 42 00 FF 25 18 A2 42 00 FF 25 B..%..B..%..B..%
0041FD00 14 A2 42 00 FF 25 EC A1 42 00 FF 25 D8 A1 42 00 ..B..%..B..%..B.
0041FD10 FF 25 10 A2 42 00 FF 25 A8 A1 42 00 FF 25 AC A1 .%..B..%..B..%..
0041FD20 42 00 FF 25 B0 A1 42 00 FF 25 B4 A1 42 00 FF 25 B..%..B..%..B..%
0041FD30 B8 A1 42 00 FF 25 BC A1 42 00 FF 25 C0 A1 42 00 ..B..%..B..%..B.
0041FD40 FF 25 C4 A1 42 00 FF 25 C8 A1 42 00 FF 25 CC A1 .%..B..%..B..%..
0041FD50 42 00 FF 25 D0 A1 42 00 FF 25 D4 A1 42 00 FF 25 B..%..B..%..B..%
0041FD60 40 A2 42 00 FF 25 DC A1 42 00 FF 25 E0 A1 42 00 @.B..%..B..%..B.
0041FD70 FF 25 E4 A1 42 00 FF 25 E8 A1 42 00 FF 25 00 A0 .%..B..%..B..%..
0041FD80 42 00 FF 25 04 A0 42 00 FF 25 08 A0 42 00 FF 25 B..%..B..%..B..%
0041FD90 0C A0 42 00 FF 25 10 A0 42 00 FF 25 14 A0 42 00 ..B..%..B..%..B.
0041FDA0 FF 25 18 A0 42 00 FF 25 1C A0 42 00 FF 25 20 A0 .%..B..%..B..% .
0041FDB0 42 00 FF 25 24 A0 42 00 FF 25 28 A0 42 00 FF 25 B..%$.B..%(.B..%
0041FDC0 2C A0 42 00 FF 25 30 A0 42 00 FF 25 34 A0 42 00 ,.B..%0.B..%4.B.
0041FDD0 FF 25 38 A0 42 00 FF 25 3C A0 42 00 FF 25 40 A0 .%8.B..%<.B..%@.
0041FDE0 42 00 FF 25 44 A0 42 00 FF 25 48 A0 42 00 FF 25 B..%D.B..%H.B..%
0041FDF0 4C A0 42 00 FF 25 50 A0 42 00 FF 25 54 A0 42 00 L.B..%P.B..%T.B.
0041FE00 FF 25 58 A0 42 00 CC CC CC CC CC CC CC CC CC CC .%X.B...........

l0041FE10:
	push	ebp
	mov	ebp,esp
	mov	al,01
	pop	ebp
	ret
0041FE17                      CC CC CC CC CC CC CC CC CC        .........
0041FE20 55 8B EC B0 01 5D C3 CC CC CC CC CC CC CC CC CC U....]..........
0041FE30 55 8B EC B0 01 5D C3 CC CC CC CC CC CC CC CC CC U....]..........

l0041FE40:
	push	ebp
	mov	ebp,esp
	mov	al,01
	pop	ebp
	ret
0041FE47                      CC CC CC CC CC CC CC CC CC        .........
0041FE50 55 8B EC B0 01 5D C3 CC CC CC CC CC CC CC CC CC U....]..........
0041FE60 55 8B EC 33 C0 5D C3 CC CC CC CC CC CC CC CC CC U..3.]..........

;; fn0041FE70: 0041FE70
;;   Called from:
;;     00419F6D (in fn00419F10)
;;     0041A041 (in fn00419F10)
;;     0041B8BA (in fn0041B7D0)
fn0041FE70 proc
	push	ebp
	mov	ebp,esp
	sub	esp,000000C4
	push	ebx
	push	esi
	push	edi
	lea	edi,[ebp-000000C4]
	mov	ecx,00000031
	mov	eax,CCCCCCCC

l0041FE8C:
	rep stosd

l0041FE8E:
	mov	ecx,0042C02A
	call	00411460
	movsx	eax,byte ptr [ebp+08]
	mov	[ebp-000000C4],eax
	mov	ecx,[ebp-000000C4]
	sub	ecx,20
	mov	[ebp-000000C4],ecx
	cmp	dword ptr [ebp-000000C4],5A
	ja	004202DC

l0041FEBE:
	mov	edx,[ebp-000000C4]
	movzx	eax,byte ptr [edx+004203C8]
	jmp	dword ptr [004202F0+eax*4]

l0041FED2:
	push	00425E64
	mov	ecx,004292E0
	call	004110D2
	jmp	004202DC

l0041FEE6:
	push	00425E70
	mov	ecx,004292E0
	call	004110D2
	jmp	004202DC

l0041FEFA:
	push	00425E7C
	mov	ecx,004292E0
	call	004110D2
	jmp	004202DC

l0041FF0E:
	push	00425E88
	mov	ecx,004292E0
	call	004110D2
	jmp	004202DC

l0041FF22:
	push	00425E94
	mov	ecx,004292E0
	call	004110D2
	jmp	004202DC

l0041FF36:
	push	00425EA0
	mov	ecx,004292E0
	call	004110D2
	jmp	004202DC

l0041FF4A:
	push	00425EAC
	mov	ecx,004292E0
	call	004110D2
	jmp	004202DC

l0041FF5E:
	push	00425EB8
	mov	ecx,004292E0
	call	004110D2
	jmp	004202DC

l0041FF72:
	push	00425EC4
	mov	ecx,004292E0
	call	004110D2
	jmp	004202DC

l0041FF86:
	push	00425ED0
	mov	ecx,004292E0
	call	004110D2
	jmp	004202DC

l0041FF9A:
	push	00425EDC
	mov	ecx,004292E0
	call	004110D2
	jmp	004202DC

l0041FFAE:
	push	00425EE8
	mov	ecx,004292E0
	call	004110D2
	jmp	004202DC

l0041FFC2:
	push	00425EF4
	mov	ecx,004292E0
	call	004110D2
	jmp	004202DC

l0041FFD6:
	push	00425F00
	mov	ecx,004292E0
	call	004110D2
	jmp	004202DC

l0041FFEA:
	push	00425F0C
	mov	ecx,004292E0
	call	004110D2
	jmp	004202DC

l0041FFFE:
	push	00425F18
	mov	ecx,004292E0
	call	004110D2
	jmp	004202DC

l00420012:
	push	00425F24
	mov	ecx,004292E0
	call	004110D2
	jmp	004202DC

l00420026:
	push	00425F30
	mov	ecx,004292E0
	call	004110D2
	jmp	004202DC

l0042003A:
	push	00425F3C
	mov	ecx,004292E0
	call	004110D2
	jmp	004202DC

l0042004E:
	push	00425F48
	mov	ecx,004292E0
	call	004110D2
	jmp	004202DC

l00420062:
	push	00425F54
	mov	ecx,004292E0
	call	004110D2
	jmp	004202DC

l00420076:
	push	00425F60
	mov	ecx,004292E0
	call	004110D2
	jmp	004202DC

l0042008A:
	push	00425F6C
	mov	ecx,004292E0
	call	004110D2
	jmp	004202DC

l0042009E:
	push	00425F78
	mov	ecx,004292E0
	call	004110D2
	jmp	004202DC

l004200B2:
	push	00425F84
	mov	ecx,004292E0
	call	004110D2
	jmp	004202DC

l004200C6:
	push	00425F90
	mov	ecx,004292E0
	call	004110D2
	jmp	004202DC

l004200DA:
	push	00425F9C
	mov	ecx,004292E0
	call	004110D2
	jmp	004202DC

l004200EE:
	push	00425FA8
	mov	ecx,004292E0
	call	004110D2
	jmp	004202DC

l00420102:
	push	00425FB4
	mov	ecx,004292E0
	call	004110D2
	jmp	004202DC

l00420116:
	push	00425FC0
	mov	ecx,004292E0
	call	004110D2
	jmp	004202DC

l0042012A:
	push	00425FCC
	mov	ecx,004292E0
	call	004110D2
	jmp	004202DC

l0042013E:
	push	00425FD8
	mov	ecx,004292E0
	call	004110D2
	jmp	004202DC

l00420152:
	push	00425FE4
	mov	ecx,004292E0
	call	004110D2
	jmp	004202DC

l00420166:
	push	00425FF0
	mov	ecx,004292E0
	call	004110D2
	jmp	004202DC

l0042017A:
	push	00425FFC
	mov	ecx,004292E0
	call	004110D2
	jmp	004202DC

l0042018E:
	push	00426008
	mov	ecx,004292E0
	call	004110D2
	jmp	004202DC

l004201A2:
	push	00426014
	mov	ecx,004292E0
	call	004110D2
	jmp	004202DC

l004201B6:
	push	00426020
	mov	ecx,004292E0
	call	004110D2
	jmp	004202DC

l004201CA:
	push	0042602C
	mov	ecx,004292E0
	call	004110D2
	jmp	004202DC

l004201DE:
	push	00426038
	mov	ecx,004292E0
	call	004110D2
	jmp	004202DC

l004201F2:
	push	00426044
	mov	ecx,004292E0
	call	004110D2
	jmp	004202DC

l00420206:
	push	00426050
	mov	ecx,004292E0
	call	004110D2
	jmp	004202DC

l0042021A:
	push	0042605C
	mov	ecx,004292E0
	call	004110D2
	jmp	004202DC

l0042022E:
	push	00426068
	mov	ecx,004292E0
	call	004110D2
	jmp	004202DC

l00420242:
	push	00426074
	mov	ecx,004292E0
	call	004110D2
	jmp	004202DC

l00420256:
	push	00426080
	mov	ecx,004292E0
	call	004110D2
	jmp	004202DC

l00420267:
	push	0042608C
	mov	ecx,004292E0
	call	004110D2
	jmp	004202DC

l00420278:
	push	00426098
	mov	ecx,004292E0
	call	004110D2
	jmp	004202DC

l00420289:
	push	004260A4
	mov	ecx,004292E0
	call	004110D2
	jmp	004202DC

l0042029A:
	push	004260B0
	mov	ecx,004292E0
	call	004110D2
	jmp	004202DC

l004202AB:
	push	004260BC
	mov	ecx,004292E0
	call	004110D2
	jmp	004202DC

l004202BC:
	push	004260C8
	mov	ecx,004292E0
	call	004110D2
	jmp	004202DC

l004202CD:
	push	004260D4
	mov	ecx,004292E0
	call	004110D2

l004202DC:
	pop	edi
	pop	esi
	pop	ebx
	add	esp,000000C4
	cmp	ebp,esp
	call	00411488
	mov	esp,ebp
	pop	ebp
	ret
l004202F0	dd	0x004202CD
l004202F4	dd	0x0041FED2
l004202F8	dd	0x0041FEE6
l004202FC	dd	0x0041FEFA
l00420300	dd	0x0041FF0E
l00420304	dd	0x0041FF22
l00420308	dd	0x0041FF36
l0042030C	dd	0x0041FF4A
l00420310	dd	0x0041FF5E
l00420314	dd	0x0041FF72
l00420318	dd	0x0041FF86
l0042031C	dd	0x0041FF9A
l00420320	dd	0x0041FFAE
l00420324	dd	0x0041FFC2
l00420328	dd	0x0041FFD6
l0042032C	dd	0x0041FFEA
l00420330	dd	0x0041FFFE
l00420334	dd	0x00420012
l00420338	dd	0x00420026
l0042033C	dd	0x0042003A
l00420340	dd	0x0042004E
l00420344	dd	0x00420062
l00420348	dd	0x00420076
l0042034C	dd	0x0042008A
l00420350	dd	0x0042009E
l00420354	dd	0x004200B2
l00420358	dd	0x004200C6
l0042035C	dd	0x004200DA
l00420360	dd	0x004200EE
l00420364	dd	0x00420102
l00420368	dd	0x00420116
l0042036C	dd	0x0042012A
l00420370	dd	0x0042013E
l00420374	dd	0x00420152
l00420378	dd	0x00420166
l0042037C	dd	0x0042017A
l00420380	dd	0x0042018E
l00420384	dd	0x004201A2
l00420388	dd	0x004201B6
l0042038C	dd	0x004201CA
l00420390	dd	0x004201DE
l00420394	dd	0x004201F2
l00420398	dd	0x00420206
l0042039C	dd	0x0042021A
l004203A0	dd	0x0042022E
l004203A4	dd	0x00420242
l004203A8	dd	0x00420256
l004203AC	dd	0x00420267
l004203B0	dd	0x00420278
l004203B4	dd	0x00420289
l004203B8	dd	0x0042029A
l004203BC	dd	0x004202AB
l004203C0	dd	0x004202BC
l004203C4	dd	0x004202DC
l004203C8	db	0x00
l004203C9	db	0x35
l004203CA	db	0x35
l004203CB	db	0x35
l004203CC	db	0x35
l004203CD	db	0x35
l004203CE	db	0x35
l004203CF	db	0x35
l004203D0	db	0x35
l004203D1	db	0x35
l004203D2	db	0x35
l004203D3	db	0x35
l004203D4	db	0x35
l004203D5	db	0x35
l004203D6	db	0x35
l004203D7	db	0x35
l004203D8	db	0x35
l004203D9	db	0x35
l004203DA	db	0x35
l004203DB	db	0x35
l004203DC	db	0x35
l004203DD	db	0x35
l004203DE	db	0x35
l004203DF	db	0x35
l004203E0	db	0x35
l004203E1	db	0x35
l004203E2	db	0x35
l004203E3	db	0x35
l004203E4	db	0x35
l004203E5	db	0x35
l004203E6	db	0x35
l004203E7	db	0x35
l004203E8	db	0x35
l004203E9	db	0x01
l004203EA	db	0x02
l004203EB	db	0x03
l004203EC	db	0x04
l004203ED	db	0x05
l004203EE	db	0x06
l004203EF	db	0x07
l004203F0	db	0x08
l004203F1	db	0x09
l004203F2	db	0x0A
l004203F3	db	0x0B
l004203F4	db	0x0C
l004203F5	db	0x0D
l004203F6	db	0x0E
l004203F7	db	0x0F
l004203F8	db	0x10
l004203F9	db	0x11
l004203FA	db	0x12
l004203FB	db	0x13
l004203FC	db	0x14
l004203FD	db	0x15
l004203FE	db	0x16
l004203FF	db	0x17
l00420400	db	0x18
l00420401	db	0x19
l00420402	db	0x1A
l00420403	db	0x35
l00420404	db	0x35
l00420405	db	0x35
l00420406	db	0x35
l00420407	db	0x35
l00420408	db	0x35
l00420409	db	0x1B
l0042040A	db	0x1C
l0042040B	db	0x1D
l0042040C	db	0x1E
l0042040D	db	0x1F
l0042040E	db	0x20
l0042040F	db	0x21
l00420410	db	0x22
l00420411	db	0x23
l00420412	db	0x24
l00420413	db	0x25
l00420414	db	0x26
l00420415	db	0x27
l00420416	db	0x28
l00420417	db	0x29
l00420418	db	0x2A
l00420419	db	0x2B
l0042041A	db	0x2C
l0042041B	db	0x2D
l0042041C	db	0x2E
l0042041D	db	0x2F
l0042041E	db	0x30
l0042041F	db	0x31
l00420420	db	0x32
l00420421	db	0x33
l00420422	db	0x34
00420423          CC CC CC CC CC CC CC CC CC CC CC CC CC    .............

;; fn00420430: 00420430
;;   Called from:
;;     0041B93F (in fn0041B7D0)
fn00420430 proc
	push	ebp
	mov	ebp,esp
	push	FF
	push	00421C68
	mov	eax,fs:[00000000]
	push	eax
	sub	esp,000000C0
	push	ebx
	push	esi
	push	edi
	lea	edi,[ebp-000000CC]
	mov	ecx,00000030
	mov	eax,CCCCCCCC

l0042045A:
	rep stosd

l0042045C:
	mov	eax,[00429014]
	xor	eax,ebp
	push	eax
	lea	eax,[ebp-0C]
	mov	fs:[00000000],eax
	mov	dword ptr [ebp-04],00000000
	mov	ecx,0042C02A
	call	00411460
	push	00425E64
	lea	eax,[ebp+08]
	push	eax
	call	004110F5
	add	esp,08
	movzx	ecx,al
	test	ecx,ecx
	jz	004204A2

l00420496:
	mov	byte ptr [00429318],41
	jmp	00420BE4

l004204A2:
	push	00425E70
	lea	eax,[ebp+08]
	push	eax
	call	004110F5
	add	esp,08
	movzx	ecx,al
	test	ecx,ecx
	jz	004204C6

l004204BA:
	mov	byte ptr [00429318],42
	jmp	00420BE4

l004204C6:
	push	00425E7C
	lea	eax,[ebp+08]
	push	eax
	call	004110F5
	add	esp,08
	movzx	ecx,al
	test	ecx,ecx
	jz	004204EA

l004204DE:
	mov	byte ptr [00429318],43
	jmp	00420BE4

l004204EA:
	push	00425E88
	lea	eax,[ebp+08]
	push	eax
	call	004110F5
	add	esp,08
	movzx	ecx,al
	test	ecx,ecx
	jz	0042050E

l00420502:
	mov	byte ptr [00429318],44
	jmp	00420BE4

l0042050E:
	push	00425E94
	lea	eax,[ebp+08]
	push	eax
	call	004110F5
	add	esp,08
	movzx	ecx,al
	test	ecx,ecx
	jz	00420532

l00420526:
	mov	byte ptr [00429318],45
	jmp	00420BE4

l00420532:
	push	00425EA0
	lea	eax,[ebp+08]
	push	eax
	call	004110F5
	add	esp,08
	movzx	ecx,al
	test	ecx,ecx
	jz	00420556

l0042054A:
	mov	byte ptr [00429318],46
	jmp	00420BE4

l00420556:
	push	00425EAC
	lea	eax,[ebp+08]
	push	eax
	call	004110F5
	add	esp,08
	movzx	ecx,al
	test	ecx,ecx
	jz	0042057A

l0042056E:
	mov	byte ptr [00429318],47
	jmp	00420BE4

l0042057A:
	push	00425EB8
	lea	eax,[ebp+08]
	push	eax
	call	004110F5
	add	esp,08
	movzx	ecx,al
	test	ecx,ecx
	jz	0042059E

l00420592:
	mov	byte ptr [00429318],48
	jmp	00420BE4

l0042059E:
	push	00425EC4
	lea	eax,[ebp+08]
	push	eax
	call	004110F5
	add	esp,08
	movzx	ecx,al
	test	ecx,ecx
	jz	004205C2

l004205B6:
	mov	byte ptr [00429318],49
	jmp	00420BE4

l004205C2:
	push	00425ED0
	lea	eax,[ebp+08]
	push	eax
	call	004110F5
	add	esp,08
	movzx	ecx,al
	test	ecx,ecx
	jz	004205E6

l004205DA:
	mov	byte ptr [00429318],4A
	jmp	00420BE4

l004205E6:
	push	00425EDC
	lea	eax,[ebp+08]
	push	eax
	call	004110F5
	add	esp,08
	movzx	ecx,al
	test	ecx,ecx
	jz	0042060A

l004205FE:
	mov	byte ptr [00429318],4B
	jmp	00420BE4

l0042060A:
	push	00425EE8
	lea	eax,[ebp+08]
	push	eax
	call	004110F5
	add	esp,08
	movzx	ecx,al
	test	ecx,ecx
	jz	0042062E

l00420622:
	mov	byte ptr [00429318],4C
	jmp	00420BE4

l0042062E:
	push	00425EF4
	lea	eax,[ebp+08]
	push	eax
	call	004110F5
	add	esp,08
	movzx	ecx,al
	test	ecx,ecx
	jz	00420652

l00420646:
	mov	byte ptr [00429318],4D
	jmp	00420BE4

l00420652:
	push	00425F00
	lea	eax,[ebp+08]
	push	eax
	call	004110F5
	add	esp,08
	movzx	ecx,al
	test	ecx,ecx
	jz	00420676

l0042066A:
	mov	byte ptr [00429318],4E
	jmp	00420BE4

l00420676:
	push	00425F0C
	lea	eax,[ebp+08]
	push	eax
	call	004110F5
	add	esp,08
	movzx	ecx,al
	test	ecx,ecx
	jz	0042069A

l0042068E:
	mov	byte ptr [00429318],4F
	jmp	00420BE4

l0042069A:
	push	00425F18
	lea	eax,[ebp+08]
	push	eax
	call	004110F5
	add	esp,08
	movzx	ecx,al
	test	ecx,ecx
	jz	004206BE

l004206B2:
	mov	byte ptr [00429318],50
	jmp	00420BE4

l004206BE:
	push	00425F24
	lea	eax,[ebp+08]
	push	eax
	call	004110F5
	add	esp,08
	movzx	ecx,al
	test	ecx,ecx
	jz	004206E2

l004206D6:
	mov	byte ptr [00429318],51
	jmp	00420BE4

l004206E2:
	push	00425F30
	lea	eax,[ebp+08]
	push	eax
	call	004110F5
	add	esp,08
	movzx	ecx,al
	test	ecx,ecx
	jz	00420706

l004206FA:
	mov	byte ptr [00429318],52
	jmp	00420BE4

l00420706:
	push	00425F3C
	lea	eax,[ebp+08]
	push	eax
	call	004110F5
	add	esp,08
	movzx	ecx,al
	test	ecx,ecx
	jz	0042072A

l0042071E:
	mov	byte ptr [00429318],53
	jmp	00420BE4

l0042072A:
	push	00425F48
	lea	eax,[ebp+08]
	push	eax
	call	004110F5
	add	esp,08
	movzx	ecx,al
	test	ecx,ecx
	jz	0042074E

l00420742:
	mov	byte ptr [00429318],54
	jmp	00420BE4

l0042074E:
	push	00425F54
	lea	eax,[ebp+08]
	push	eax
	call	004110F5
	add	esp,08
	movzx	ecx,al
	test	ecx,ecx
	jz	00420772

l00420766:
	mov	byte ptr [00429318],55
	jmp	00420BE4

l00420772:
	push	00425F60
	lea	eax,[ebp+08]
	push	eax
	call	004110F5
	add	esp,08
	movzx	ecx,al
	test	ecx,ecx
	jz	00420796

l0042078A:
	mov	byte ptr [00429318],56
	jmp	00420BE4

l00420796:
	push	00425F6C
	lea	eax,[ebp+08]
	push	eax
	call	004110F5
	add	esp,08
	movzx	ecx,al
	test	ecx,ecx
	jz	004207BA

l004207AE:
	mov	byte ptr [00429318],57
	jmp	00420BE4

l004207BA:
	push	00425F78
	lea	eax,[ebp+08]
	push	eax
	call	004110F5
	add	esp,08
	movzx	ecx,al
	test	ecx,ecx
	jz	004207DE

l004207D2:
	mov	byte ptr [00429318],58
	jmp	00420BE4

l004207DE:
	push	00425F84
	lea	eax,[ebp+08]
	push	eax
	call	004110F5
	add	esp,08
	movzx	ecx,al
	test	ecx,ecx
	jz	00420802

l004207F6:
	mov	byte ptr [00429318],59
	jmp	00420BE4

l00420802:
	push	00425F90
	lea	eax,[ebp+08]
	push	eax
	call	004110F5
	add	esp,08
	movzx	ecx,al
	test	ecx,ecx
	jz	00420826

l0042081A:
	mov	byte ptr [00429318],5A
	jmp	00420BE4

l00420826:
	push	00425F9C
	lea	eax,[ebp+08]
	push	eax
	call	004110F5
	add	esp,08
	movzx	ecx,al
	test	ecx,ecx
	jz	0042084A

l0042083E:
	mov	byte ptr [00429318],61
	jmp	00420BE4

l0042084A:
	push	00425FA8
	lea	eax,[ebp+08]
	push	eax
	call	004110F5
	add	esp,08
	movzx	ecx,al
	test	ecx,ecx
	jz	0042086E

l00420862:
	mov	byte ptr [00429318],62
	jmp	00420BE4

l0042086E:
	push	00425FB4
	lea	eax,[ebp+08]
	push	eax
	call	004110F5
	add	esp,08
	movzx	ecx,al
	test	ecx,ecx
	jz	00420892

l00420886:
	mov	byte ptr [00429318],63
	jmp	00420BE4

l00420892:
	push	00425FC0
	lea	eax,[ebp+08]
	push	eax
	call	004110F5
	add	esp,08
	movzx	ecx,al
	test	ecx,ecx
	jz	004208B6

l004208AA:
	mov	byte ptr [00429318],64
	jmp	00420BE4

l004208B6:
	push	00425FCC
	lea	eax,[ebp+08]
	push	eax
	call	004110F5
	add	esp,08
	movzx	ecx,al
	test	ecx,ecx
	jz	004208DA

l004208CE:
	mov	byte ptr [00429318],65
	jmp	00420BE4

l004208DA:
	push	00425FD8
	lea	eax,[ebp+08]
	push	eax
	call	004110F5
	add	esp,08
	movzx	ecx,al
	test	ecx,ecx
	jz	004208FE

l004208F2:
	mov	byte ptr [00429318],66
	jmp	00420BE4

l004208FE:
	push	00425FE4
	lea	eax,[ebp+08]
	push	eax
	call	004110F5
	add	esp,08
	movzx	ecx,al
	test	ecx,ecx
	jz	00420922

l00420916:
	mov	byte ptr [00429318],67
	jmp	00420BE4

l00420922:
	push	00425FF0
	lea	eax,[ebp+08]
	push	eax
	call	004110F5
	add	esp,08
	movzx	ecx,al
	test	ecx,ecx
	jz	00420946

l0042093A:
	mov	byte ptr [00429318],68
	jmp	00420BE4

l00420946:
	push	00425FFC
	lea	eax,[ebp+08]
	push	eax
	call	004110F5
	add	esp,08
	movzx	ecx,al
	test	ecx,ecx
	jz	0042096A

l0042095E:
	mov	byte ptr [00429318],69
	jmp	00420BE4

l0042096A:
	push	00426008
	lea	eax,[ebp+08]
	push	eax
	call	004110F5
	add	esp,08
	movzx	ecx,al
	test	ecx,ecx
	jz	0042098E

l00420982:
	mov	byte ptr [00429318],6A
	jmp	00420BE4

l0042098E:
	push	00426014
	lea	eax,[ebp+08]
	push	eax
	call	004110F5
	add	esp,08
	movzx	ecx,al
	test	ecx,ecx
	jz	004209B2

l004209A6:
	mov	byte ptr [00429318],6B
	jmp	00420BE4

l004209B2:
	push	00426020
	lea	eax,[ebp+08]
	push	eax
	call	004110F5
	add	esp,08
	movzx	ecx,al
	test	ecx,ecx
	jz	004209D6

l004209CA:
	mov	byte ptr [00429318],6C
	jmp	00420BE4

l004209D6:
	push	0042602C
	lea	eax,[ebp+08]
	push	eax
	call	004110F5
	add	esp,08
	movzx	ecx,al
	test	ecx,ecx
	jz	004209FA

l004209EE:
	mov	byte ptr [00429318],6D
	jmp	00420BE4

l004209FA:
	push	00426038
	lea	eax,[ebp+08]
	push	eax
	call	004110F5
	add	esp,08
	movzx	ecx,al
	test	ecx,ecx
	jz	00420A1E

l00420A12:
	mov	byte ptr [00429318],6E
	jmp	00420BE4

l00420A1E:
	push	00426044
	lea	eax,[ebp+08]
	push	eax
	call	004110F5
	add	esp,08
	movzx	ecx,al
	test	ecx,ecx
	jz	00420A42

l00420A36:
	mov	byte ptr [00429318],6F
	jmp	00420BE4

l00420A42:
	push	00426050
	lea	eax,[ebp+08]
	push	eax
	call	004110F5
	add	esp,08
	movzx	ecx,al
	test	ecx,ecx
	jz	00420A66

l00420A5A:
	mov	byte ptr [00429318],70
	jmp	00420BE4

l00420A66:
	push	0042605C
	lea	eax,[ebp+08]
	push	eax
	call	004110F5
	add	esp,08
	movzx	ecx,al
	test	ecx,ecx
	jz	00420A8A

l00420A7E:
	mov	byte ptr [00429318],71
	jmp	00420BE4

l00420A8A:
	push	00426068
	lea	eax,[ebp+08]
	push	eax
	call	004110F5
	add	esp,08
	movzx	ecx,al
	test	ecx,ecx
	jz	00420AAE

l00420AA2:
	mov	byte ptr [00429318],72
	jmp	00420BE4

l00420AAE:
	push	00426074
	lea	eax,[ebp+08]
	push	eax
	call	004110F5
	add	esp,08
	movzx	ecx,al
	test	ecx,ecx
	jz	00420AD2

l00420AC6:
	mov	byte ptr [00429318],73
	jmp	00420BE4

l00420AD2:
	push	00426080
	lea	eax,[ebp+08]
	push	eax
	call	004110F5
	add	esp,08
	movzx	ecx,al
	test	ecx,ecx
	jz	00420AF6

l00420AEA:
	mov	byte ptr [00429318],74
	jmp	00420BE4

l00420AF6:
	push	0042608C
	lea	eax,[ebp+08]
	push	eax
	call	004110F5
	add	esp,08
	movzx	ecx,al
	test	ecx,ecx
	jz	00420B1A

l00420B0E:
	mov	byte ptr [00429318],75
	jmp	00420BE4

l00420B1A:
	push	00426098
	lea	eax,[ebp+08]
	push	eax
	call	004110F5
	add	esp,08
	movzx	ecx,al
	test	ecx,ecx
	jz	00420B3E

l00420B32:
	mov	byte ptr [00429318],76
	jmp	00420BE4

l00420B3E:
	push	004260A4
	lea	eax,[ebp+08]
	push	eax
	call	004110F5
	add	esp,08
	movzx	ecx,al
	test	ecx,ecx
	jz	00420B62

l00420B56:
	mov	byte ptr [00429318],77
	jmp	00420BE4

l00420B62:
	push	004260B0
	lea	eax,[ebp+08]
	push	eax
	call	004110F5
	add	esp,08
	movzx	ecx,al
	test	ecx,ecx
	jz	00420B83

l00420B7A:
	mov	byte ptr [00429318],78
	jmp	00420BE4

l00420B83:
	push	004260BC
	lea	eax,[ebp+08]
	push	eax
	call	004110F5
	add	esp,08
	movzx	ecx,al
	test	ecx,ecx
	jz	00420BA4

l00420B9B:
	mov	byte ptr [00429318],79
	jmp	00420BE4

l00420BA4:
	push	004260C8
	lea	eax,[ebp+08]
	push	eax
	call	004110F5
	add	esp,08
	movzx	ecx,al
	test	ecx,ecx
	jz	00420BC5

l00420BBC:
	mov	byte ptr [00429318],7A
	jmp	00420BE4

l00420BC5:
	push	004260D4
	lea	eax,[ebp+08]
	push	eax
	call	004110F5
	add	esp,08
	movzx	ecx,al
	test	ecx,ecx
	jz	00420BE4

l00420BDD:
	mov	byte ptr [00429318],20

l00420BE4:
	mov	esi,esp
	push	004114CE
	movzx	eax,byte ptr [00429318]
	push	eax
	mov	ecx,[0042A09C]
	push	ecx
	call	004111C7
	add	esp,08
	mov	ecx,eax
	call	dword ptr [0042A0A8]
	cmp	esi,esp
	call	00411488
	mov	dword ptr [ebp-04],FFFFFFFF
	lea	ecx,[ebp+08]
	call	00411406
	mov	ecx,[ebp-0C]
	mov	fs:[00000000],ecx
	pop	ecx
	pop	edi
	pop	esi
	pop	ebx
	add	esp,000000CC
	cmp	ebp,esp
	call	00411488
	mov	esp,ebp
	pop	ebp
	ret
00420C3F                                              CC                .
00420C40 CC CC CC CC CC CC CC CC CC CC CC CC CC CC CC CC ................
00420C50 CC CC CC CC CC CC CC CC CC CC CC CC CC CC CC CC ................
00420C60 CC CC CC CC CC CC CC CC CC CC CC CC CC CC CC CC ................
00420C70 CC CC CC CC CC CC CC CC CC CC CC CC CC CC CC CC ................
00420C80 CC CC CC CC CC CC CC CC CC CC CC CC CC CC CC CC ................
00420C90 CC CC CC CC CC CC CC CC CC CC CC CC CC CC CC CC ................
00420CA0 CC CC CC CC CC CC CC CC CC CC CC CC CC CC CC CC ................
00420CB0 CC CC CC CC CC CC CC CC CC CC CC CC CC CC CC CC ................
00420CC0 CC CC CC CC CC CC CC CC CC CC CC CC CC CC CC CC ................
00420CD0 CC CC CC CC CC CC CC CC CC CC CC CC CC CC CC CC ................
00420CE0 CC CC CC CC CC CC CC CC CC CC CC CC CC CC CC CC ................
00420CF0 CC CC CC CC CC CC CC CC CC CC CC CC CC CC CC CC ................
00420D00 CC CC CC CC CC CC CC CC CC CC CC CC CC CC CC CC ................
00420D10 CC CC CC CC CC CC CC CC CC CC CC CC CC CC CC CC ................
00420D20 CC CC CC CC CC CC CC CC CC CC CC CC CC CC CC CC ................
00420D30 CC CC CC CC CC CC CC CC CC CC CC CC CC CC CC CC ................
00420D40 CC CC CC CC CC CC CC CC CC CC CC CC CC CC CC CC ................
00420D50 CC CC CC CC CC CC CC CC CC CC CC CC CC CC CC CC ................
00420D60 CC CC CC CC CC CC CC CC CC CC CC CC CC CC CC CC ................
00420D70 CC CC CC CC CC CC CC CC CC CC CC CC CC CC CC CC ................
00420D80 CC CC CC CC CC CC CC CC CC CC CC CC CC CC CC CC ................
00420D90 CC CC CC CC CC CC CC CC CC CC CC CC CC CC CC CC ................
00420DA0 CC CC CC CC CC CC CC CC CC CC CC CC CC CC CC CC ................
00420DB0 CC CC CC CC CC CC CC CC CC CC CC CC CC CC CC CC ................
00420DC0 CC CC CC CC CC CC CC CC CC CC CC CC CC CC CC CC ................
00420DD0 CC CC CC CC CC CC CC CC CC CC CC CC CC CC CC CC ................
00420DE0 CC CC CC CC CC CC CC CC CC CC CC CC CC CC CC CC ................
00420DF0 CC CC CC CC CC CC CC CC CC CC CC CC CC CC CC CC ................
00420E00 CC CC CC CC CC CC CC CC CC CC CC CC CC CC CC CC ................
00420E10 CC CC CC CC CC CC CC CC CC CC CC CC CC CC CC CC ................
00420E20 CC CC CC CC CC CC CC CC CC CC CC CC CC CC CC CC ................
00420E30 CC CC CC CC CC CC CC CC CC CC CC CC CC CC CC CC ................
00420E40 CC CC CC CC CC CC CC CC CC CC CC CC CC CC CC CC ................
00420E50 CC CC CC CC CC CC CC CC CC CC CC CC CC CC CC CC ................
00420E60 CC CC CC CC CC CC CC CC CC CC CC CC CC CC CC CC ................
00420E70 CC CC CC CC CC CC CC CC CC CC CC CC CC CC CC CC ................
00420E80 CC CC CC CC CC CC CC CC CC CC CC CC CC CC CC CC ................
00420E90 CC CC CC CC CC CC CC CC CC CC CC CC CC CC CC CC ................
00420EA0 CC CC CC CC CC CC CC CC CC CC CC CC CC CC CC CC ................
00420EB0 CC CC CC CC CC CC CC CC CC CC CC CC CC CC CC CC ................
00420EC0 CC CC CC CC CC CC CC CC CC CC CC CC CC CC CC CC ................
00420ED0 CC CC CC CC CC CC CC CC CC CC CC CC CC CC CC CC ................
00420EE0 CC CC CC CC CC CC CC CC CC CC CC CC CC CC CC CC ................
00420EF0 CC CC CC CC CC CC CC CC CC CC CC CC CC CC CC CC ................
00420F00 CC CC CC CC CC CC CC CC CC CC CC CC CC CC CC CC ................
00420F10 CC CC CC CC CC CC CC CC CC CC CC CC CC CC CC CC ................
00420F20 CC CC CC CC CC CC CC CC CC CC CC CC CC CC CC CC ................
00420F30 CC CC CC CC CC CC CC CC CC CC CC CC CC CC CC CC ................
00420F40 CC CC CC CC CC CC CC CC CC CC CC CC CC CC CC CC ................
00420F50 CC CC CC CC CC CC CC CC CC CC CC CC CC CC CC CC ................
00420F60 CC CC CC CC CC CC CC CC CC CC CC CC CC CC CC CC ................
00420F70 CC CC CC CC CC CC CC CC CC CC CC CC CC CC CC CC ................
00420F80 CC CC CC CC CC CC CC CC CC CC CC CC CC CC CC CC ................
00420F90 CC CC CC CC CC CC CC CC CC CC CC CC CC CC CC CC ................
00420FA0 CC CC CC CC CC CC CC CC CC CC CC CC CC CC CC CC ................
00420FB0 CC CC CC CC CC CC CC CC CC CC CC CC CC CC CC CC ................
00420FC0 CC CC CC CC CC CC CC CC CC CC CC CC CC CC CC CC ................
00420FD0 CC CC CC CC CC CC CC CC CC CC CC CC CC CC CC CC ................
00420FE0 CC CC CC CC CC CC CC CC CC CC CC CC CC CC CC CC ................
00420FF0 CC CC CC CC CC CC CC CC CC CC CC CC CC CC CC CC ................
00421000 CC CC CC CC CC CC CC CC CC CC CC CC CC CC CC CC ................
00421010 CC CC CC CC CC CC CC CC CC CC CC CC CC CC CC CC ................
00421020 CC CC CC CC CC CC CC CC CC CC CC CC CC CC CC CC ................
00421030 CC CC CC CC CC CC CC CC CC CC CC CC CC CC CC CC ................
00421040 CC CC CC CC CC CC CC CC CC CC CC CC CC CC CC CC ................
00421050 CC CC CC CC CC CC CC CC CC CC CC CC CC CC CC CC ................
00421060 CC CC CC CC CC CC CC CC CC CC CC CC CC CC CC CC ................
00421070 CC CC CC CC CC CC CC CC CC CC CC CC CC CC CC CC ................
00421080 CC CC CC CC CC CC CC CC CC CC CC CC CC CC CC CC ................
00421090 CC CC CC CC CC CC CC CC CC CC CC CC CC CC CC CC ................
004210A0 CC CC CC CC CC CC CC CC CC CC CC CC CC CC CC CC ................
004210B0 CC CC CC CC CC CC CC CC CC CC CC CC CC CC CC CC ................
004210C0 CC CC CC CC CC CC CC CC CC CC CC CC CC CC CC CC ................
004210D0 CC CC CC CC CC CC CC CC CC CC CC CC CC CC CC CC ................
004210E0 CC CC CC CC CC CC CC CC CC CC CC CC CC CC CC CC ................
004210F0 CC CC CC CC CC CC CC CC CC CC CC CC CC CC CC CC ................
00421100 CC CC CC CC CC CC CC CC CC CC CC CC CC CC CC CC ................
00421110 CC CC CC CC CC CC CC CC CC CC CC CC CC CC CC CC ................
00421120 CC CC CC CC CC CC CC CC CC CC CC CC CC CC CC CC ................
00421130 CC CC CC CC CC CC CC CC CC CC CC CC CC CC CC CC ................
00421140 CC CC CC CC CC CC CC CC CC CC CC CC CC CC CC CC ................
00421150 CC CC CC CC CC CC CC CC CC CC CC CC CC CC CC CC ................
00421160 CC CC CC CC CC CC CC CC CC CC CC CC CC CC CC CC ................
00421170 CC CC CC CC CC CC CC CC CC CC CC CC CC CC CC CC ................
00421180 CC CC CC CC CC CC CC CC CC CC CC CC CC CC CC CC ................
00421190 CC CC CC CC CC CC CC CC CC CC CC CC CC CC CC CC ................
004211A0 CC CC CC CC CC CC CC CC CC CC CC CC CC CC CC CC ................
004211B0 CC CC CC CC CC CC CC CC CC CC CC CC CC CC CC CC ................
004211C0 CC CC CC CC CC CC CC CC CC CC CC CC CC CC CC CC ................
004211D0 8B 54 24 08 8D 42 0C 8B 8A 24 FF FF FF 33 C8 E8 .T$..B...$...3..
004211E0 FF 01 FF FF B8 EC 85 42 00 E9 1F 00 FF FF CC CC .......B........
004211F0 CC CC CC CC CC CC CC CC CC CC CC CC CC CC CC CC ................
00421200 8B 4D EC E9 8A 02 FF FF 8B 54 24 08 8D 42 0C 8B .M.......T$..B..
00421210 8A 18 FF FF FF 33 C8 E8 C7 01 FF FF B8 FC 84 42 .....3.........B
00421220 00 E9 E7 FF FE FF CC CC CC CC CC CC CC CC CC CC ................
00421230 8D 4D D4 E9 CB FF FE FF 8B 54 24 08 8D 42 0C 8B .M.......T$..B..
00421240 8A 98 FE FF FF 33 C8 E8 97 01 FF FF 8B 4A F8 33 .....3.......J.3
00421250 C8 E8 8D 01 FF FF B8 34 83 42 00 E9 AD FF FE FF .......4.B......
00421260 CC CC CC CC CC CC CC CC CC CC CC CC CC CC CC CC ................
00421270 8D 4D B4 E9 8B FF FE FF 8B 54 24 08 8D 42 0C 8B .M.......T$..B..
00421280 8A 98 FE FF FF 33 C8 E8 57 01 FF FF 8B 4A F8 33 .....3..W....J.3
00421290 C8 E8 4D 01 FF FF B8 A0 83 42 00 E9 6D FF FE FF ..M......B..m...
004212A0 CC CC CC CC CC CC CC CC CC CC CC CC CC CC CC CC ................
004212B0 8B 54 24 08 8D 42 0C 8B 8A 30 FF FF FF 33 C8 E8 .T$..B...0...3..
004212C0 1F 01 FF FF B8 24 85 42 00 E9 3F FF FE FF CC CC .....$.B..?.....
004212D0 CC CC CC CC CC CC CC CC CC CC CC CC CC CC CC CC ................
004212E0 8D 4D D0 E9 1E 01 FF FF 8B 54 24 08 8D 42 0C 8B .M.......T$..B..
004212F0 8A FC FE FF FF 33 C8 E8 E7 00 FF FF 8B 4A FC 33 .....3.......J.3
00421300 C8 E8 DD 00 FF FF B8 24 84 42 00 E9 FD FE FE FF .......$.B......
00421310 CC CC CC CC CC CC CC CC CC CC CC CC CC CC CC CC ................
00421320 8D 4D C8 E9 DB FE FE FF 8B 54 24 08 8D 42 0C 8B .M.......T$..B..
00421330 8A B0 FE FF FF 33 C8 E8 A7 00 FF FF 8B 4A F8 33 .....3.......J.3
00421340 C8 E8 9D 00 FF FF B8 D0 86 42 00 E9 BD FE FE FF .........B......
00421350 CC CC CC CC CC CC CC CC CC CC CC CC CC CC CC CC ................
00421360 8B 54 24 08 8D 42 0C 8B 8A 20 FF FF FF 33 C8 E8 .T$..B... ...3..
00421370 6F 00 FF FF B8 9C 85 42 00 E9 8F FE FE FF CC CC o......B........
00421380 CC CC CC CC CC CC CC CC CC CC CC CC CC CC CC CC ................
00421390 8B 54 24 08 8D 42 0C 8B 8A 20 FF FF FF 33 C8 E8 .T$..B... ...3..
004213A0 3F 00 FF FF B8 50 7E 42 00 E9 5F FE FE FF CC CC ?....P~B.._.....
004213B0 CC CC CC CC CC CC CC CC CC CC CC CC CC CC CC CC ................
004213C0 8B 54 24 08 8D 42 0C 8B 8A 24 FF FF FF 33 C8 E8 .T$..B...$...3..
004213D0 0F 00 FF FF B8 4C 85 42 00 E9 2F FE FE FF CC CC .....L.B../.....
004213E0 CC CC CC CC CC CC CC CC CC CC CC CC CC CC CC CC ................
004213F0 8B 54 24 08 8D 42 0C 8B 8A 30 FF FF FF 33 C8 E8 .T$..B...0...3..
00421400 DF FF FE FF B8 BC 87 42 00 E9 FF FD FE FF CC CC .......B........
00421410 CC CC CC CC CC CC CC CC CC CC CC CC CC CC CC CC ................
00421420 8B 54 24 08 8D 42 0C 8B 8A 2C FF FF FF 33 C8 E8 .T$..B...,...3..
00421430 AF FF FE FF B8 34 88 42 00 E9 CF FD FE FF CC CC .....4.B........
00421440 CC CC CC CC CC CC CC CC CC CC CC CC CC CC CC CC ................
00421450 8B 54 24 08 8D 42 0C 8B 8A 30 FF FF FF 33 C8 E8 .T$..B...0...3..
00421460 7F FF FE FF B8 74 85 42 00 E9 9F FD FE FF CC CC .....t.B........
00421470 CC CC CC CC CC CC CC CC CC CC CC CC CC CC CC CC ................
00421480 8B 54 24 08 8D 42 0C 8B 8A 30 FF FF FF 33 C8 E8 .T$..B...0...3..
00421490 4F FF FE FF B8 C4 85 42 00 E9 6F FD FE FF CC CC O......B..o.....
004214A0 CC CC CC CC CC CC CC CC CC CC CC CC CC CC CC CC ................
004214B0 8B 54 24 08 8D 42 0C 8B 8A 30 FF FF FF 33 C8 E8 .T$..B...0...3..
004214C0 1F FF FE FF B8 7C 84 42 00 E9 3F FD FE FF CC CC .....|.B..?.....
004214D0 CC CC CC CC CC CC CC CC CC CC CC CC CC CC CC CC ................
004214E0 8B 54 24 08 8D 42 0C 8B 8A 30 FF FF FF 33 C8 E8 .T$..B...0...3..
004214F0 EF FE FE FF B8 E4 87 42 00 E9 0F FD FE FF CC CC .......B........
00421500 CC CC CC CC CC CC CC CC CC CC CC CC CC CC CC CC ................
00421510 8B 54 24 08 8D 42 0C 8B 8A 30 FF FF FF 33 C8 E8 .T$..B...0...3..
00421520 BF FE FE FF B8 0C 88 42 00 E9 DF FC FE FF CC CC .......B........
00421530 CC CC CC CC CC CC CC CC CC CC CC CC CC CC CC CC ................
00421540 8B 54 24 08 8D 42 0C 8B 8A 30 FF FF FF 33 C8 E8 .T$..B...0...3..
00421550 8F FE FE FF B8 94 87 42 00 E9 AF FC FE FF CC CC .......B........
00421560 CC CC CC CC CC CC CC CC CC CC CC CC CC CC CC CC ................
00421570 8D 4D C8 E9 79 FF FE FF 8B 54 24 08 8D 42 0C 8B .M..y....T$..B..
00421580 8A C8 FE FF FF 33 C8 E8 57 FE FE FF 8B 4A F8 33 .....3..W....J.3
00421590 C8 E8 4D FE FE FF B8 64 87 42 00 E9 6D FC FE FF ..M....d.B..m...
004215A0 CC CC CC CC CC CC CC CC CC CC CC CC CC CC CC CC ................
004215B0 8B 54 24 08 8D 42 0C 8B 8A 30 FF FF FF 33 C8 E8 .T$..B...0...3..
004215C0 1F FE FE FF B8 CC 84 42 00 E9 3F FC FE FF CC CC .......B..?.....
004215D0 CC CC CC CC CC CC CC CC CC CC CC CC CC CC CC CC ................
004215E0 8B 54 24 08 8D 42 0C 8B 8A 30 FF FF FF 33 C8 E8 .T$..B...0...3..
004215F0 EF FD FE FF B8 00 87 42 00 E9 0F FC FE FF CC CC .......B........
00421600 CC CC CC CC CC CC CC CC CC CC CC CC CC CC CC CC ................
00421610 8B 54 24 08 8D 42 0C 8B 8A 30 FF FF FF 33 C8 E8 .T$..B...0...3..
00421620 BF FD FE FF B8 A4 84 42 00 E9 DF FB FE FF CC CC .......B........
00421630 CC CC CC CC CC CC CC CC CC CC CC CC CC CC CC CC ................
00421640 8B 4D EC E9 4A FE FE FF 8B 54 24 08 8D 42 0C 8B .M..J....T$..B..
00421650 8A 18 FF FF FF 33 C8 E8 87 FD FE FF B8 F8 7E 42 .....3........~B
00421660 00 E9 A7 FB FE FF CC CC CC CC CC CC CC CC CC CC ................
00421670 8B 54 24 08 8D 42 0C 8B 8A 24 FF FF FF 33 C8 E8 .T$..B...$...3..
00421680 5F FD FE FF B8 78 7E 42 00 E9 7F FB FE FF CC CC _....x~B........
00421690 CC CC CC CC CC CC CC CC CC CC CC CC CC CC CC CC ................
004216A0 8B 54 24 08 8D 42 0C 8B 8A 18 FF FF FF 33 C8 E8 .T$..B.......3..
004216B0 2F FD FE FF B8 38 81 42 00 E9 4F FB FE FF CC CC /....8.B..O.....
004216C0 CC CC CC CC CC CC CC CC CC CC CC CC CC CC CC CC ................
004216D0 8B 4D EC E9 2C FA FE FF 8B 54 24 08 8D 42 0C 8B .M..,....T$..B..
004216E0 8A 18 FF FF FF 33 C8 E8 F7 FC FE FF B8 B8 80 42 .....3.........B
004216F0 00 E9 17 FB FE FF CC CC CC CC CC CC CC CC CC CC ................
00421700 8B 4D EC E9 FC F9 FE FF 8B 54 24 08 8D 42 0C 8B .M.......T$..B..
00421710 8A 24 FF FF FF 33 C8 E8 C7 FC FE FF B8 10 81 42 .$...3.........B
00421720 00 E9 E7 FA FE FF CC CC CC CC CC CC CC CC CC CC ................
00421730 8B 54 24 08 8D 42 0C 8B 8A 24 FF FF FF 33 C8 E8 .T$..B...$...3..
00421740 9F FC FE FF B8 E0 80 42 00 E9 BF FA FE FF CC CC .......B........
00421750 CC CC CC CC CC CC CC CC CC CC CC CC CC CC CC CC ................
00421760 8B 54 24 08 8D 42 0C 8B 8A 24 FF FF FF 33 C8 E8 .T$..B...$...3..
00421770 6F FC FE FF B8 D8 7D 42 00 E9 8F FA FE FF CC CC o.....}B........
00421780 CC CC CC CC CC CC CC CC CC CC CC CC CC CC CC CC ................
00421790 8B 4D EC E9 CF FF FE FF 8B 54 24 08 8D 42 0C 8B .M.......T$..B..
004217A0 8A 24 FF FF FF 33 C8 E8 37 FC FE FF B8 8C 88 42 .$...3..7......B
004217B0 00 E9 57 FA FE FF CC CC CC CC CC CC CC CC CC CC ..W.............
004217C0 8B 4D EC E9 CE F8 FE FF 8B 54 24 08 8D 42 0C 8B .M.......T$..B..
004217D0 8A 24 FF FF FF 33 C8 E8 07 FC FE FF B8 44 86 42 .$...3.......D.B
004217E0 00 E9 27 FA FE FF CC CC CC CC CC CC CC CC CC CC ..'.............
004217F0 8B 54 24 08 8D 42 0C 8B 8A 24 FF FF FF 33 C8 E8 .T$..B...$...3..
00421800 DF FB FE FF B8 20 7F 42 00 E9 FF F9 FE FF CC CC ..... .B........
00421810 CC CC CC CC CC CC CC CC CC CC CC CC CC CC CC CC ................
00421820 8B 54 24 08 8D 42 0C 8B 8A 24 FF FF FF 33 C8 E8 .T$..B...$...3..
00421830 AF FB FE FF B8 D8 81 42 00 E9 CF F9 FE FF CC CC .......B........
00421840 CC CC CC CC CC CC CC CC CC CC CC CC CC CC CC CC ................
00421850 8B 54 24 08 8D 42 0C 8B 8A 24 FF FF FF 33 C8 E8 .T$..B...$...3..
00421860 7F FB FE FF B8 C8 7E 42 00 E9 9F F9 FE FF CC CC ......~B........
00421870 CC CC CC CC CC CC CC CC CC CC CC CC CC CC CC CC ................
00421880 8B 54 24 08 8D 42 0C 8B 8A 1C FF FF FF 33 C8 E8 .T$..B.......3..
00421890 4F FB FE FF B8 5C 88 42 00 E9 6F F9 FE FF CC CC O....\.B..o.....
004218A0 CC CC CC CC CC CC CC CC CC CC CC CC CC CC CC CC ................
004218B0 8B 54 24 08 8D 42 0C 8B 8A 1C FF FF FF 33 C8 E8 .T$..B.......3..
004218C0 1F FB FE FF B8 14 86 42 00 E9 3F F9 FE FF CC CC .......B..?.....
004218D0 CC CC CC CC CC CC CC CC CC CC CC CC CC CC CC CC ................
004218E0 8B 54 24 08 8D 42 0C 8B 8A 24 FF FF FF 33 C8 E8 .T$..B...$...3..
004218F0 EF FA FE FF B8 6C 86 42 00 E9 0F F9 FE FF CC CC .....l.B........
00421900 CC CC CC CC CC CC CC CC CC CC CC CC CC CC CC CC ................
00421910 8B 54 24 08 8D 42 0C 8B 8A 30 FF FF FF 33 C8 E8 .T$..B...0...3..
00421920 BF FA FE FF B8 20 7C 42 00 E9 DF F8 FE FF CC CC ..... |B........
00421930 CC CC CC CC CC CC CC CC CC CC CC CC CC CC CC CC ................
00421940 8B 54 24 08 8D 42 0C 8B 8A 18 FF FF FF 33 C8 E8 .T$..B.......3..
00421950 8F FA FE FF B8 60 81 42 00 E9 AF F8 FE FF CC CC .....`.B........
00421960 CC CC CC CC CC CC CC CC CC CC CC CC CC CC CC CC ................
00421970 8B 54 24 08 8D 42 0C 8B 8A 18 FF FF FF 33 C8 E8 .T$..B.......3..
00421980 5F FA FE FF B8 88 81 42 00 E9 7F F8 FE FF CC CC _......B........
00421990 CC CC CC CC CC CC CC CC CC CC CC CC CC CC CC CC ................
004219A0 8B 54 24 08 8D 42 0C 8B 8A 00 FF FF FF 33 C8 E8 .T$..B.......3..
004219B0 2F FA FE FF B8 B0 81 42 00 E9 4F F8 FE FF CC CC /......B..O.....
004219C0 CC CC CC CC CC CC CC CC CC CC CC CC CC CC CC CC ................
004219D0 8B 54 24 08 8D 42 0C 8B 8A 18 FF FF FF 33 C8 E8 .T$..B.......3..
004219E0 FF F9 FE FF B8 A0 82 42 00 E9 1F F8 FE FF CC CC .......B........
004219F0 CC CC CC CC CC CC CC CC CC CC CC CC CC CC CC CC ................
00421A00 8B 54 24 08 8D 42 0C 8B 8A 24 FF FF FF 33 C8 E8 .T$..B...$...3..
00421A10 CF F9 FE FF B8 C0 7F 42 00 E9 EF F7 FE FF CC CC .......B........
00421A20 CC CC CC CC CC CC CC CC CC CC CC CC CC CC CC CC ................
00421A30 8B 54 24 08 8D 42 0C 8B 8A 24 FF FF FF 33 C8 E8 .T$..B...$...3..
00421A40 9F F9 FE FF B8 E8 7F 42 00 E9 BF F7 FE FF CC CC .......B........
00421A50 CC CC CC CC CC CC CC CC CC CC CC CC CC CC CC CC ................
00421A60 8B 54 24 08 8D 42 0C 8B 8A 24 FF FF FF 33 C8 E8 .T$..B...$...3..
00421A70 6F F9 FE FF B8 10 80 42 00 E9 8F F7 FE FF CC CC o......B........
00421A80 CC CC CC CC CC CC CC CC CC CC CC CC CC CC CC CC ................
00421A90 8B 54 24 08 8D 42 0C 8B 8A 24 FF FF FF 33 C8 E8 .T$..B...$...3..
00421AA0 3F F9 FE FF B8 38 80 42 00 E9 5F F7 FE FF CC CC ?....8.B.._.....
00421AB0 CC CC CC CC CC CC CC CC CC CC CC CC CC CC CC CC ................
00421AC0 8B 54 24 08 8D 42 0C 8B 8A 24 FF FF FF 33 C8 E8 .T$..B...$...3..
00421AD0 0F F9 FE FF B8 60 80 42 00 E9 2F F7 FE FF CC CC .....`.B../.....
00421AE0 CC CC CC CC CC CC CC CC CC CC CC CC CC CC CC CC ................
00421AF0 8B 54 24 08 8D 42 0C 8B 8A 24 FF FF FF 33 C8 E8 .T$..B...$...3..
00421B00 DF F8 FE FF B8 88 80 42 00 E9 FF F6 FE FF CC CC .......B........
00421B10 CC CC CC CC CC CC CC CC CC CC CC CC CC CC CC CC ................
00421B20 8B 54 24 08 8D 42 0C 8B 8A 24 FF FF FF 33 C8 E8 .T$..B...$...3..
00421B30 AF F8 FE FF B8 70 7F 42 00 E9 CF F6 FE FF CC CC .....p.B........
00421B40 CC CC CC CC CC CC CC CC CC CC CC CC CC CC CC CC ................
00421B50 8B 54 24 08 8D 42 0C 8B 8A 24 FF FF FF 33 C8 E8 .T$..B...$...3..
00421B60 7F F8 FE FF B8 98 7F 42 00 E9 9F F6 FE FF CC CC .......B........
00421B70 CC CC CC CC CC CC CC CC CC CC CC CC CC CC CC CC ................
00421B80 8B 54 24 08 8D 42 0C 8B 8A 24 FF FF FF 33 C8 E8 .T$..B...$...3..
00421B90 4F F8 FE FF B8 48 7F 42 00 E9 6F F6 FE FF CC CC O....H.B..o.....
00421BA0 CC CC CC CC CC CC CC CC CC CC CC CC CC CC CC CC ................
00421BB0 8B 54 24 08 8D 42 0C 8B 8A 08 FF FF FF 33 C8 E8 .T$..B.......3..
00421BC0 1F F8 FE FF 8B 4A FC 33 C8 E8 15 F8 FE FF B8 00 .....J.3........
00421BD0 7E 42 00 E9 35 F6 FE FF CC CC CC CC CC CC CC CC ~B..5...........
00421BE0 CC CC CC CC CC CC CC CC CC CC CC CC CC CC CC CC ................
00421BF0 8B 54 24 08 8D 42 0C 8B 8A 08 FF FF FF 33 C8 E8 .T$..B.......3..
00421C00 DF F7 FE FF 8B 4A FC 33 C8 E8 D5 F7 FE FF B8 28 .....J.3.......(
00421C10 7E 42 00 E9 F5 F5 FE FF CC CC CC CC CC CC CC CC ~B..............
00421C20 CC CC CC CC CC CC CC CC CC CC CC CC CC CC CC CC ................
00421C30 8B 54 24 08 8D 42 0C 8B 8A 30 FF FF FF 33 C8 E8 .T$..B...0...3..
00421C40 9F F7 FE FF B8 10 7D 42 00 E9 BF F5 FE FF CC CC ......}B........
00421C50 CC CC CC CC CC CC CC CC CC CC CC CC CC CC CC CC ................
00421C60 8D 4D 08 E9 9E F7 FE FF 8B 54 24 08 8D 42 0C 8B .M.......T$..B..
00421C70 8A 30 FF FF FF 33 C8 E8 67 F7 FE FF B8 D0 82 42 .0...3..g......B
00421C80 00 E9 87 F5 FE FF CC CC CC CC CC CC CC CC CC CC ................
00421C90 8B 54 24 08 8D 42 0C 8B 8A 30 FF FF FF 33 C8 E8 .T$..B...0...3..
00421CA0 3F F7 FE FF B8 70 7C 42 00 E9 5F F5 FE FF CC CC ?....p|B.._.....
00421CB0 CC CC CC CC CC CC CC CC CC CC CC CC CC CC CC CC ................
00421CC0 8B 54 24 08 8D 42 0C 8B 8A 30 FF FF FF 33 C8 E8 .T$..B...0...3..
00421CD0 0F F7 FE FF B8 C0 7C 42 00 E9 2F F5 FE FF CC CC ......|B../.....
00421CE0 CC CC CC CC CC CC CC CC CC CC CC CC CC CC CC CC ................
00421CF0 8B 54 24 08 8D 42 0C 8B 8A 24 FF FF FF 33 C8 E8 .T$..B...$...3..
00421D00 DF F6 FE FF B8 00 82 42 00 E9 FF F4 FE FF CC CC .......B........
00421D10 CC CC CC CC CC CC CC CC CC CC CC CC CC CC CC CC ................
00421D20 8D 4D D0 E9 DE F6 FE FF 8B 54 24 08 8D 42 0C 8B .M.......T$..B..
00421D30 8A 08 FF FF FF 33 C8 E8 A7 F6 FE FF 8B 4A FC 33 .....3.......J.3
00421D40 C8 E8 9D F6 FE FF B8 54 84 42 00 E9 BD F4 FE FF .......T.B......
00421D50 CC CC CC CC CC CC CC CC CC CC CC CC CC CC CC CC ................
00421D60 8B 54 24 08 8D 42 0C 8B 8A 30 FF FF FF 33 C8 E8 .T$..B...0...3..
00421D70 6F F6 FE FF B8 B0 7D 42 00 E9 8F F4 FE FF CC CC o.....}B........
00421D80 CC CC CC CC CC CC CC CC CC CC CC CC CC CC CC CC ................
00421D90 8B 54 24 08 8D 42 0C 8B 8A 2C FF FF FF 33 C8 E8 .T$..B...,...3..
00421DA0 3F F6 FE FF B8 88 7D 42 00 E9 5F F4 FE FF CC CC ?.....}B.._.....
00421DB0 CC CC CC CC CC CC CC CC CC CC CC CC CC CC CC CC ................
00421DC0 8B 54 24 08 8D 42 0C 8B 8A 24 FF FF FF 33 C8 E8 .T$..B...$...3..
00421DD0 0F F6 FE FF B8 28 82 42 00 E9 2F F4 FE FF CC CC .....(.B../.....
00421DE0 CC CC CC CC CC CC CC CC CC CC CC CC CC CC CC CC ................
00421DF0 8B 54 24 08 8D 42 0C 8B 8A 30 FF FF FF 33 C8 E8 .T$..B...0...3..
00421E00 DF F5 FE FF B8 98 7C 42 00 E9 FF F3 FE FF CC CC ......|B........
00421E10 CC CC CC CC CC CC CC CC CC CC CC CC CC CC CC CC ................
00421E20 8B 54 24 08 8D 42 0C 8B 8A 30 FF FF FF 33 C8 E8 .T$..B...0...3..
00421E30 AF F5 FE FF B8 48 7C 42 00 E9 CF F3 FE FF CC CC .....H|B........
00421E40 CC CC CC CC CC CC CC CC CC CC CC CC CC CC CC CC ................
00421E50 8B 54 24 08 8D 42 0C 8B 8A 30 FF FF FF 33 C8 E8 .T$..B...0...3..
00421E60 7F F5 FE FF B8 A0 7E 42 00 E9 9F F3 FE FF CC CC ......~B........
00421E70 CC CC CC CC CC CC CC CC CC CC CC CC CC CC CC CC ................
00421E80 8B 54 24 08 8D 42 0C 8B 8A E4 FE FF FF 33 C8 E8 .T$..B.......3..
00421E90 4F F5 FE FF 8B 4A FC 33 C8 E8 45 F5 FE FF B8 78 O....J.3..E....x
00421EA0 82 42 00 E9 65 F3 FE FF CC CC CC CC CC CC CC CC .B..e...........
00421EB0 CC CC CC CC CC CC CC CC CC CC CC CC CC CC CC CC ................
00421EC0 8B 54 24 08 8D 42 0C 8B 8A 30 FF FF FF 33 C8 E8 .T$..B...0...3..
00421ED0 0F F5 FE FF B8 E8 7C 42 00 E9 2F F3 FE FF CC CC ......|B../.....
00421EE0 CC CC CC CC CC CC CC CC CC CC CC CC CC CC CC CC ................
00421EF0 8B 54 24 08 8D 42 0C 8B 8A 24 FF FF FF 33 C8 E8 .T$..B...$...3..
00421F00 DF F4 FE FF B8 50 82 42 00 E9 FF F2 FE FF CC CC .....P.B........
00421F10 CC CC CC CC CC CC CC CC CC CC CC CC CC CC CC CC ................
00421F20 8D 4D 08 E9 DE F4 FE FF 8D 4D D0 E9 D6 F4 FE FF .M.......M......
00421F30 8D 4D AC E9 CE F4 FE FF 68 06 14 41 00 6A 64 6A .M......h..A.jdj
00421F40 1C 8D 85 B4 F4 FF FF 50 E8 E1 F4 FE FF C3 8B 54 .......P.......T
00421F50 24 08 8D 42 0C 8B 8A BC EF FF FF 33 C8 E8 81 F4 $..B.......3....
00421F60 FE FF 8B 4A FC 33 C8 E8 77 F4 FE FF B8 F0 83 42 ...J.3..w......B
00421F70 00 E9 97 F2 FE FF CC CC CC CC CC CC CC CC CC CC ................
00421F80 CC CC CC CC CC CC CC CC CC CC CC CC CC CC CC CC ................
00421F90 8B 54 24 08 8D 42 0C 8B 8A 30 FF FF FF 33 C8 E8 .T$..B...0...3..
00421FA0 3F F4 FE FF B8 38 7D 42 00 E9 5F F2 FE FF CC CC ?....8}B.._.....
00421FB0 CC CC CC CC CC CC CC CC CC CC CC CC CC CC CC CC ................
00421FC0 8B 54 24 08 8D 42 0C 8B 8A 30 FF FF FF 33 C8 E8 .T$..B...0...3..
00421FD0 0F F4 FE FF B8 60 7D 42 00 E9 2F F2 FE FF CC CC .....`}B../.....
00421FE0 CC CC CC CC CC CC CC CC CC CC CC CC CC CC CC CC ................
00421FF0 CC CC CC CC CC CC CC CC CC CC CC CC CC CC CC CC ................
00422000 CC CC CC CC CC CC CC CC CC CC CC CC CC CC CC CC ................
00422010 CC CC CC CC CC CC CC CC CC CC CC CC CC CC CC CC ................
00422020 CC CC CC CC CC CC CC CC CC CC CC CC CC CC CC CC ................
00422030 CC CC CC CC CC CC CC CC CC CC CC CC CC CC CC CC ................
00422040 CC CC CC CC CC CC CC CC CC CC CC CC CC CC CC CC ................
00422050 CC CC CC CC CC CC CC CC CC CC CC CC CC CC CC CC ................
00422060 CC CC CC CC CC CC CC CC CC CC CC CC CC CC CC CC ................
00422070 CC CC CC CC CC CC CC CC CC CC CC CC CC CC CC CC ................
00422080 CC CC CC CC CC CC CC CC CC CC CC CC CC CC CC CC ................
00422090 CC CC CC CC CC CC CC CC CC CC CC CC CC CC CC CC ................
004220A0 CC CC CC CC CC CC CC CC CC CC CC CC CC CC CC CC ................
004220B0 CC CC CC CC CC CC CC CC CC CC CC CC CC CC CC CC ................
004220C0 CC CC CC CC CC CC CC CC CC CC CC CC CC CC CC CC ................
004220D0 CC CC CC CC CC CC CC CC CC CC CC CC CC CC CC CC ................
004220E0 CC CC CC CC CC CC CC CC CC CC CC CC CC CC CC CC ................
004220F0 CC CC CC CC CC CC CC CC CC CC CC CC CC CC CC CC ................
00422100 CC CC CC CC CC CC CC CC CC CC CC CC CC CC CC CC ................
00422110 CC CC CC CC CC CC CC CC CC CC CC CC CC CC CC CC ................
00422120 CC CC CC CC CC CC CC CC CC CC CC CC CC CC CC CC ................
00422130 CC CC CC CC CC CC CC CC CC CC CC CC CC CC CC CC ................
00422140 CC CC CC CC CC CC CC CC CC CC CC CC CC CC CC CC ................
00422150 CC CC CC CC CC CC CC CC CC CC CC CC CC CC CC CC ................
00422160 CC CC CC CC CC CC CC CC CC CC CC CC CC CC CC CC ................
00422170 CC CC CC CC CC CC CC CC CC CC CC CC CC CC CC CC ................
00422180 CC CC CC CC CC CC CC CC CC CC CC CC CC CC CC CC ................
00422190 CC CC CC CC CC CC CC CC CC CC CC CC CC CC CC CC ................
004221A0 CC CC CC CC CC CC CC CC CC CC CC CC CC CC CC CC ................
004221B0 CC CC CC CC CC CC CC CC CC CC CC CC CC CC CC CC ................
004221C0 CC CC CC CC CC CC CC CC CC CC CC CC CC CC CC CC ................
004221D0 CC CC CC CC CC CC CC CC CC CC CC CC CC CC CC CC ................
004221E0 CC CC CC CC CC CC CC CC CC CC CC CC CC CC CC CC ................
004221F0 CC CC CC CC CC CC CC CC CC CC CC CC CC CC CC CC ................
00422200 CC CC CC CC CC CC CC CC CC CC CC CC CC CC CC CC ................
00422210 CC CC CC CC CC CC CC CC CC CC CC CC CC CC CC CC ................
00422220 CC CC CC CC CC CC CC CC CC CC CC CC CC CC CC CC ................
00422230 CC CC CC CC CC CC CC CC CC CC CC CC CC CC CC CC ................
00422240 CC CC CC CC CC CC CC CC CC CC CC CC CC CC CC CC ................
00422250 CC CC CC CC CC CC CC CC CC CC CC CC CC CC CC CC ................
00422260 CC CC CC CC CC CC CC CC CC CC CC CC CC CC CC CC ................
00422270 CC CC CC CC CC CC CC CC CC CC CC CC CC CC CC CC ................
00422280 CC CC CC CC CC CC CC CC CC CC CC CC CC CC CC CC ................
00422290 CC CC CC CC CC CC CC CC CC CC CC CC CC CC CC CC ................
004222A0 CC CC CC CC CC CC CC CC CC CC CC CC CC CC CC CC ................
004222B0 CC CC CC CC CC CC CC CC CC CC CC CC CC CC CC CC ................
004222C0 CC CC CC CC CC CC CC CC CC CC CC CC CC CC CC CC ................
004222D0 CC CC CC CC CC CC CC CC CC CC CC CC CC CC CC CC ................
004222E0 CC CC CC CC CC CC CC CC CC CC CC CC CC CC CC CC ................
004222F0 CC CC CC CC CC CC CC CC CC CC CC CC CC CC CC CC ................
00422300 CC CC CC CC CC CC CC CC CC CC CC CC CC CC CC CC ................
00422310 CC CC CC CC CC CC CC CC CC CC CC CC CC CC CC CC ................
00422320 CC CC CC CC CC CC CC CC CC CC CC CC CC CC CC CC ................
00422330 CC CC CC CC CC CC CC CC CC CC CC CC CC CC CC CC ................
00422340 CC CC CC CC CC CC CC CC CC CC CC CC CC CC CC CC ................
00422350 CC CC CC CC CC CC CC CC CC CC CC CC CC CC CC CC ................
00422360 CC CC CC CC CC CC CC CC CC CC CC CC CC CC CC CC ................
00422370 CC CC CC CC CC CC CC CC CC CC CC CC CC CC CC CC ................
00422380 CC CC CC CC CC CC CC CC CC CC CC CC CC CC CC CC ................
00422390 CC CC CC CC CC CC CC CC CC CC CC CC CC CC CC CC ................
004223A0 CC CC CC CC CC CC CC CC CC CC CC CC CC CC CC CC ................
004223B0 CC CC CC CC CC CC CC CC CC CC CC CC CC CC CC CC ................
004223C0 CC CC CC CC CC CC CC CC CC CC CC CC CC CC CC CC ................
004223D0 CC CC CC CC CC CC CC CC CC CC CC CC CC CC CC CC ................
004223E0 CC CC CC CC CC CC CC CC CC CC CC CC CC CC CC CC ................
004223F0 CC CC CC CC CC CC CC CC CC CC CC CC CC CC CC CC ................
00422400 CC CC CC CC CC CC CC CC CC CC CC CC CC CC CC CC ................
00422410 CC CC CC CC CC CC CC CC CC CC CC CC CC CC CC CC ................
00422420 CC CC CC CC CC CC CC CC CC CC CC CC CC CC CC CC ................
00422430 CC CC CC CC CC CC CC CC CC CC CC CC CC CC CC CC ................
00422440 CC CC CC CC CC CC CC CC CC CC CC CC CC CC CC CC ................
00422450 CC CC CC CC CC CC CC CC CC CC CC CC CC CC CC CC ................
00422460 CC CC CC CC CC CC CC CC CC CC CC CC CC CC CC CC ................
00422470 CC CC CC CC CC CC CC CC CC CC CC CC CC CC CC CC ................
00422480 CC CC CC CC CC CC CC CC CC CC CC CC CC CC CC CC ................
00422490 CC CC CC CC CC CC CC CC CC CC CC CC CC CC CC CC ................
004224A0 CC CC CC CC CC CC CC CC CC CC CC CC CC CC CC CC ................
004224B0 CC CC CC CC CC CC CC CC CC CC CC CC CC CC CC CC ................
004224C0 CC CC CC CC CC CC CC CC CC CC CC CC CC CC CC CC ................
004224D0 CC CC CC CC CC CC CC CC CC CC CC CC CC CC CC CC ................
004224E0 CC CC CC CC CC CC CC CC CC CC CC CC CC CC CC CC ................
004224F0 CC CC CC CC CC CC CC CC CC CC CC CC CC CC CC CC ................
00422500 CC CC CC CC CC CC CC CC CC CC CC CC CC CC CC CC ................
00422510 CC CC CC CC CC CC CC CC CC CC CC CC CC CC CC CC ................
00422520 CC CC CC CC CC CC CC CC CC CC CC CC CC CC CC CC ................
00422530 CC CC CC CC CC CC CC CC CC CC CC CC CC CC CC CC ................
00422540 CC CC CC CC CC CC CC CC CC CC CC CC CC CC CC CC ................
00422550 CC CC CC CC CC CC CC CC CC CC CC CC CC CC CC CC ................
00422560 CC CC CC CC CC CC CC CC CC CC CC CC CC CC CC CC ................
00422570 CC CC CC CC CC CC CC CC CC CC CC CC CC CC CC CC ................
00422580 CC CC CC CC CC CC CC CC CC CC CC CC CC CC CC CC ................
00422590 CC CC CC CC CC CC CC CC CC CC CC CC CC CC CC CC ................
004225A0 CC CC CC CC CC CC CC CC CC CC CC CC CC CC CC CC ................
004225B0 CC CC CC CC CC CC CC CC CC CC CC CC CC CC CC CC ................
004225C0 CC CC CC CC CC CC CC CC CC CC CC CC CC CC CC CC ................
004225D0 CC CC CC CC CC CC CC CC CC CC CC CC CC CC CC CC ................
004225E0 CC CC CC CC CC CC CC CC CC CC CC CC CC CC CC CC ................
004225F0 CC CC CC CC CC CC CC CC CC CC CC CC CC CC CC CC ................
00422600 CC CC CC CC CC CC CC CC CC CC CC CC CC CC CC CC ................
00422610 CC CC CC CC CC CC CC CC CC CC CC CC CC CC CC CC ................
00422620 CC CC CC CC CC CC CC CC CC CC CC CC CC CC CC CC ................
00422630 CC CC CC CC CC CC CC CC CC CC CC CC CC CC CC CC ................
00422640 CC CC CC CC CC CC CC CC CC CC CC CC CC CC CC CC ................
00422650 CC CC CC CC CC CC CC CC CC CC CC CC CC CC CC CC ................
00422660 CC CC CC CC CC CC CC CC CC CC CC CC CC CC CC CC ................
00422670 CC CC CC CC CC CC CC CC CC CC CC CC CC CC CC CC ................
00422680 CC CC CC CC CC CC CC CC CC CC CC CC CC CC CC CC ................
00422690 CC CC CC CC CC CC CC CC CC CC CC CC CC CC CC CC ................
004226A0 CC CC CC CC CC CC CC CC CC CC CC CC CC CC CC CC ................
004226B0 CC CC CC CC CC CC CC CC CC CC CC CC CC CC CC CC ................
004226C0 CC CC CC CC CC CC CC CC CC CC CC CC CC CC CC CC ................
004226D0 CC CC CC CC CC CC CC CC CC CC CC CC CC CC CC CC ................
004226E0 CC CC CC CC CC CC CC CC CC CC CC CC CC CC CC CC ................
004226F0 CC CC CC CC CC CC CC CC CC CC CC CC CC CC CC CC ................
00422700 CC CC CC CC CC CC CC CC CC CC CC CC CC CC CC CC ................
00422710 CC CC CC CC CC CC CC CC CC CC CC CC CC CC CC CC ................
00422720 CC CC CC CC CC CC CC CC CC CC CC CC CC CC CC CC ................
00422730 CC CC CC CC CC CC CC CC CC CC CC CC CC CC CC CC ................
00422740 CC CC CC CC CC CC CC CC CC CC CC CC CC CC CC CC ................
00422750 CC CC CC CC CC CC CC CC CC CC CC CC CC CC CC CC ................
00422760 CC CC CC CC CC CC CC CC CC CC CC CC CC CC CC CC ................
00422770 CC CC CC CC CC CC CC CC CC CC CC CC CC CC CC CC ................
00422780 CC CC CC CC CC CC CC CC CC CC CC CC CC CC CC CC ................
00422790 CC CC CC CC CC CC CC CC CC CC CC CC CC CC CC CC ................
004227A0 CC CC CC CC CC CC CC CC CC CC CC CC CC CC CC CC ................
004227B0 CC CC CC CC CC CC CC CC CC CC CC CC CC CC CC CC ................
004227C0 CC CC CC CC CC CC CC CC CC CC CC CC CC CC CC CC ................
004227D0 CC CC CC CC CC CC CC CC CC CC CC CC CC CC CC CC ................
004227E0 CC CC CC CC CC CC CC CC CC CC CC CC CC CC CC CC ................
004227F0 CC CC CC CC CC CC CC CC CC CC CC CC CC CC CC CC ................
00422800 CC CC CC CC CC CC CC CC CC CC CC CC CC CC CC CC ................
00422810 CC CC CC CC CC CC CC CC CC CC CC CC CC CC CC CC ................
00422820 CC CC CC CC CC CC CC CC CC CC CC CC CC CC CC CC ................
00422830 CC CC CC CC CC CC CC CC CC CC CC CC CC CC CC CC ................
00422840 CC CC CC CC CC CC CC CC CC CC CC CC CC CC CC CC ................
00422850 CC CC CC CC CC CC CC CC CC CC CC CC CC CC CC CC ................
00422860 CC CC CC CC CC CC CC CC CC CC CC CC CC CC CC CC ................
00422870 CC CC CC CC CC CC CC CC CC CC CC CC CC CC CC CC ................
00422880 CC CC CC CC CC CC CC CC CC CC CC CC CC CC CC CC ................
00422890 CC CC CC CC CC CC CC CC CC CC CC CC CC CC CC CC ................
004228A0 CC CC CC CC CC CC CC CC CC CC CC CC CC CC CC CC ................
004228B0 CC CC CC CC CC CC CC CC CC CC CC CC CC CC CC CC ................
004228C0 CC CC CC CC CC CC CC CC CC CC CC CC CC CC CC CC ................
004228D0 CC CC CC CC CC CC CC CC CC CC CC CC CC CC CC CC ................
004228E0 CC CC CC CC CC CC CC CC CC CC CC CC CC CC CC CC ................
004228F0 CC CC CC CC CC CC CC CC CC CC CC CC CC CC CC CC ................
00422900 CC CC CC CC CC CC CC CC CC CC CC CC CC CC CC CC ................
00422910 CC CC CC CC CC CC CC CC CC CC CC CC CC CC CC CC ................
00422920 CC CC CC CC CC CC CC CC CC CC CC CC CC CC CC CC ................
00422930 CC CC CC CC CC CC CC CC CC CC CC CC CC CC CC CC ................
00422940 CC CC CC CC CC CC CC CC CC CC CC CC CC CC CC CC ................
00422950 CC CC CC CC CC CC CC CC CC CC CC CC CC CC CC CC ................
00422960 CC CC CC CC CC CC CC CC CC CC CC CC CC CC CC CC ................
00422970 CC CC CC CC CC CC CC CC CC CC CC CC CC CC CC CC ................
00422980 CC CC CC CC CC CC CC CC CC CC CC CC CC CC CC CC ................
00422990 CC CC CC CC CC CC CC CC CC CC CC CC CC CC CC CC ................
004229A0 CC CC CC CC CC CC CC CC CC CC CC CC CC CC CC CC ................
004229B0 CC CC CC CC CC CC CC CC CC CC CC CC CC CC CC CC ................
004229C0 CC CC CC CC CC CC CC CC CC CC CC CC CC CC CC CC ................
004229D0 CC CC CC CC CC CC CC CC CC CC CC CC CC CC CC CC ................
004229E0 CC CC CC CC CC CC CC CC CC CC CC CC CC CC CC CC ................
004229F0 CC CC CC CC CC CC CC CC CC CC CC CC CC CC CC CC ................
00422A00 CC CC CC CC CC CC CC CC CC CC CC CC CC CC CC CC ................
00422A10 CC CC CC CC CC CC CC CC CC CC CC CC CC CC CC CC ................
00422A20 CC CC CC CC CC CC CC CC CC CC CC CC CC CC CC CC ................
00422A30 CC CC CC CC CC CC CC CC CC CC CC CC CC CC CC CC ................
00422A40 CC CC CC CC CC CC CC CC CC CC CC CC CC CC CC CC ................
00422A50 CC CC CC CC CC CC CC CC CC CC CC CC CC CC CC CC ................
00422A60 CC CC CC CC CC CC CC CC CC CC CC CC CC CC CC CC ................
00422A70 CC CC CC CC CC CC CC CC CC CC CC CC CC CC CC CC ................
00422A80 CC CC CC CC CC CC CC CC CC CC CC CC CC CC CC CC ................
00422A90 CC CC CC CC CC CC CC CC CC CC CC CC CC CC CC CC ................
00422AA0 CC CC CC CC CC CC CC CC CC CC CC CC CC CC CC CC ................
00422AB0 CC CC CC CC CC CC CC CC CC CC CC CC CC CC CC CC ................
00422AC0 CC CC CC CC CC CC CC CC CC CC CC CC CC CC CC CC ................
00422AD0 CC CC CC CC CC CC CC CC CC CC CC CC CC CC CC CC ................
00422AE0 CC CC CC CC CC CC CC CC CC CC CC CC CC CC CC CC ................
00422AF0 CC CC CC CC CC CC CC CC CC CC CC CC CC CC CC CC ................
00422B00 CC CC CC CC CC CC CC CC CC CC CC CC CC CC CC CC ................
00422B10 CC CC CC CC CC CC CC CC CC CC CC CC CC CC CC CC ................
00422B20 CC CC CC CC CC CC CC CC CC CC CC CC CC CC CC CC ................
00422B30 CC CC CC CC CC CC CC CC CC CC CC CC CC CC CC CC ................
00422B40 CC CC CC CC CC CC CC CC CC CC CC CC CC CC CC CC ................
00422B50 CC CC CC CC CC CC CC CC CC CC CC CC CC CC CC CC ................
00422B60 CC CC CC CC CC CC CC CC CC CC CC CC CC CC CC CC ................
00422B70 CC CC CC CC CC CC CC CC CC CC CC CC CC CC CC CC ................
00422B80 CC CC CC CC CC CC CC CC CC CC CC CC CC CC CC CC ................
00422B90 CC CC CC CC CC CC CC CC CC CC CC CC CC CC CC CC ................
00422BA0 CC CC CC CC CC CC CC CC CC CC CC CC CC CC CC CC ................
00422BB0 CC CC CC CC CC CC CC CC CC CC CC CC CC CC CC CC ................
00422BC0 CC CC CC CC CC CC CC CC CC CC CC CC CC CC CC CC ................
00422BD0 CC CC CC CC CC CC CC CC CC CC CC CC CC CC CC CC ................
00422BE0 CC CC CC CC CC CC CC CC CC CC CC CC CC CC CC CC ................
00422BF0 CC CC CC CC CC CC CC CC CC CC CC CC CC CC CC CC ................
00422C00 CC CC CC CC CC CC CC CC CC CC CC CC CC CC CC CC ................
00422C10 CC CC CC CC CC CC CC CC CC CC CC CC CC CC CC CC ................
00422C20 CC CC CC CC CC CC CC CC CC CC CC CC CC CC CC CC ................
00422C30 CC CC CC CC CC CC CC CC CC CC CC CC CC CC CC CC ................
00422C40 CC CC CC CC CC CC CC CC CC CC CC CC CC CC CC CC ................
00422C50 CC CC CC CC CC CC CC CC CC CC CC CC CC CC CC CC ................
00422C60 CC CC CC CC CC CC CC CC CC CC CC CC CC CC CC CC ................
00422C70 CC CC CC CC CC CC CC CC CC CC CC CC CC CC CC CC ................
00422C80 CC CC CC CC CC CC CC CC CC CC CC CC CC CC CC CC ................
00422C90 CC CC CC CC CC CC CC CC CC CC CC CC CC CC CC CC ................
00422CA0 CC CC CC CC CC CC CC CC CC CC CC CC CC CC CC CC ................
00422CB0 CC CC CC CC CC CC CC CC CC CC CC CC CC CC CC CC ................
00422CC0 CC CC CC CC CC CC CC CC CC CC CC CC CC CC CC CC ................
00422CD0 CC CC CC CC CC CC CC CC CC CC CC CC CC CC CC CC ................
00422CE0 CC CC CC CC CC CC CC CC CC CC CC CC CC CC CC CC ................
00422CF0 CC CC CC CC CC CC CC CC CC CC CC CC CC CC CC CC ................
00422D00 CC CC CC CC CC CC CC CC CC CC CC CC CC CC CC CC ................
00422D10 CC CC CC CC CC CC CC CC CC CC CC CC CC CC CC CC ................
00422D20 CC CC CC CC CC CC CC CC CC CC CC CC CC CC CC CC ................
00422D30 CC CC CC CC CC CC CC CC CC CC CC CC CC CC CC CC ................
00422D40 CC CC CC CC CC CC CC CC CC CC CC CC CC CC CC CC ................
00422D50 CC CC CC CC CC CC CC CC CC CC CC CC CC CC CC CC ................
00422D60 CC CC CC CC CC CC CC CC CC CC CC CC CC CC CC CC ................
00422D70 CC CC CC CC CC CC CC CC CC CC CC CC CC CC CC CC ................
00422D80 CC CC CC CC CC CC CC CC CC CC CC CC CC CC CC CC ................
00422D90 CC CC CC CC CC CC CC CC CC CC CC CC CC CC CC CC ................
00422DA0 CC CC CC CC CC CC CC CC CC CC CC CC CC CC CC CC ................
00422DB0 CC CC CC CC CC CC CC CC CC CC CC CC CC CC CC CC ................
00422DC0 CC CC CC CC CC CC CC CC CC CC CC CC CC CC CC CC ................
00422DD0 CC CC CC CC CC CC CC CC CC CC CC CC CC CC CC CC ................
00422DE0 CC CC CC CC CC CC CC CC CC CC CC CC CC CC CC CC ................
00422DF0 CC CC CC CC CC CC CC CC CC CC CC CC CC CC CC CC ................
00422E00 CC CC CC CC CC CC CC CC CC CC CC CC CC CC CC CC ................
00422E10 CC CC CC CC CC CC CC CC CC CC CC CC CC CC CC CC ................
00422E20 CC CC CC CC CC CC CC CC CC CC CC CC CC CC CC CC ................
00422E30 CC CC CC CC CC CC CC CC CC CC CC CC CC CC CC CC ................
00422E40 CC CC CC CC CC CC CC CC CC CC CC CC CC CC CC CC ................
00422E50 CC CC CC CC CC CC CC CC CC CC CC CC CC CC CC CC ................
00422E60 CC CC CC CC CC CC CC CC CC CC CC CC CC CC CC CC ................
00422E70 CC CC CC CC CC CC CC CC CC CC CC CC CC CC CC CC ................
00422E80 CC CC CC CC CC CC CC CC CC CC CC CC CC CC CC CC ................
00422E90 CC CC CC CC CC CC CC CC CC CC CC CC CC CC CC CC ................
00422EA0 CC CC CC CC CC CC CC CC CC CC CC CC CC CC CC CC ................
00422EB0 CC CC CC CC CC CC CC CC CC CC CC CC CC CC CC CC ................
00422EC0 CC CC CC CC CC CC CC CC CC CC CC CC CC CC CC CC ................
00422ED0 CC CC CC CC CC CC CC CC CC CC CC CC CC CC CC CC ................
00422EE0 CC CC CC CC CC CC CC CC CC CC CC CC CC CC CC CC ................
00422EF0 CC CC CC CC CC CC CC CC CC CC CC CC CC CC CC CC ................
00422F00 CC CC CC CC CC CC CC CC CC CC CC CC CC CC CC CC ................
00422F10 CC CC CC CC CC CC CC CC CC CC CC CC CC CC CC CC ................
00422F20 CC CC CC CC CC CC CC CC CC CC CC CC CC CC CC CC ................
00422F30 CC CC CC CC CC CC CC CC CC CC CC CC CC CC CC CC ................
00422F40 CC CC CC CC CC CC CC CC CC CC CC CC CC CC CC CC ................
00422F50 CC CC CC CC CC CC CC CC CC CC CC CC CC CC CC CC ................
00422F60 CC CC CC CC CC CC CC CC CC CC CC CC CC CC CC CC ................
00422F70 CC CC CC CC CC CC CC CC CC CC CC CC CC CC CC CC ................
00422F80 CC CC CC CC CC CC CC CC CC CC CC CC CC CC CC CC ................
00422F90 CC CC CC CC CC CC CC CC CC CC CC CC CC CC CC CC ................
00422FA0 CC CC CC CC CC CC CC CC CC CC CC CC CC CC CC CC ................
00422FB0 CC CC CC CC CC CC CC CC CC CC CC CC CC CC CC CC ................
00422FC0 CC CC CC CC CC CC CC CC CC CC CC CC CC CC CC CC ................
00422FD0 CC CC CC CC CC CC CC CC CC CC CC CC CC CC CC CC ................
00422FE0 CC CC CC CC CC CC CC CC CC CC CC CC CC CC CC CC ................
00422FF0 CC CC CC CC CC CC CC CC CC CC CC CC CC CC CC CC ................
00423000 CC CC CC CC CC CC CC CC CC CC CC CC CC CC CC CC ................
00423010 CC CC CC CC CC CC CC CC CC CC CC CC CC CC CC CC ................
00423020 CC CC CC CC CC CC CC CC CC CC CC CC CC CC CC CC ................
00423030 CC CC CC CC CC CC CC CC CC CC CC CC CC CC CC CC ................
00423040 CC CC CC CC CC CC CC CC CC CC CC CC CC CC CC CC ................
00423050 CC CC CC CC CC CC CC CC CC CC CC CC CC CC CC CC ................
00423060 CC CC CC CC CC CC CC CC CC CC CC CC CC CC CC CC ................
00423070 CC CC CC CC CC CC CC CC CC CC CC CC CC CC CC CC ................
00423080 CC CC CC CC CC CC CC CC CC CC CC CC CC CC CC CC ................
00423090 CC CC CC CC CC CC CC CC CC CC CC CC CC CC CC CC ................
004230A0 CC CC CC CC CC CC CC CC CC CC CC CC CC CC CC CC ................
004230B0 55 8B EC 81 EC C0 00 00 00 53 56 57 8D BD 40 FF U........SVW..@.
004230C0 FF FF B9 30 00 00 00 B8 CC CC CC CC F3 AB B9 E0 ...0............
004230D0 92 42 00 E8 2E E3 FE FF 5F 5E 5B 81 C4 C0 00 00 .B......_^[.....
004230E0 00 3B EC E8 A0 E3 FE FF 8B E5 5D C3 CC CC CC CC .;........].....
004230F0 CC CC CC CC CC CC CC CC CC CC CC CC CC CC CC CC ................
00423100 55 8B EC 81 EC C0 00 00 00 53 56 57 8D BD 40 FF U........SVW..@.
00423110 FF FF B9 30 00 00 00 B8 CC CC CC CC F3 AB B9 FC ...0............
00423120 92 42 00 E8 DE E2 FE FF 5F 5E 5B 81 C4 C0 00 00 .B......_^[.....
00423130 00 3B EC E8 50 E3 FE FF 8B E5 5D C3 CC CC CC CC .;..P.....].....
00423140 CC CC CC CC CC CC CC CC CC CC CC CC CC CC CC CC ................
00423150 CC CC CC CC CC CC CC CC CC CC CC CC CC CC CC CC ................
00423160 CC CC CC CC CC CC CC CC CC CC CC CC CC CC CC CC ................
00423170 CC CC CC CC CC CC CC CC CC CC CC CC CC CC CC CC ................
00423180 CC CC CC CC CC CC CC CC CC CC CC CC CC CC CC CC ................
00423190 CC CC CC CC CC CC CC CC CC CC CC CC CC CC CC CC ................
004231A0 CC CC CC CC CC CC CC CC CC CC CC CC CC CC CC CC ................
004231B0 CC CC CC CC CC CC CC CC CC CC CC CC CC CC CC CC ................
004231C0 CC CC CC CC CC CC CC CC CC CC CC CC CC CC CC CC ................
004231D0 CC CC CC CC CC CC CC CC CC CC CC CC CC CC CC CC ................
004231E0 CC CC CC CC CC CC CC CC CC CC CC CC CC CC CC CC ................
004231F0 CC CC CC CC CC CC CC CC CC CC CC CC CC CC CC CC ................
00423200 CC CC CC CC CC CC CC CC CC CC CC CC CC CC CC CC ................
00423210 CC CC CC CC CC CC CC CC CC CC CC CC CC CC CC CC ................
00423220 CC CC CC CC CC CC CC CC CC CC CC CC CC CC CC CC ................
00423230 CC CC CC CC CC CC CC CC CC CC CC CC CC CC CC CC ................
00423240 CC CC CC CC CC CC CC CC CC CC CC CC CC CC CC CC ................
00423250 CC CC CC CC CC CC CC CC CC CC CC CC CC CC CC CC ................
00423260 CC CC CC CC CC CC CC CC CC CC CC CC CC CC CC CC ................
00423270 CC CC CC CC CC CC CC CC CC CC CC CC CC CC CC CC ................
00423280 CC CC CC CC CC CC CC CC CC CC CC CC CC CC CC CC ................
00423290 CC CC CC CC CC CC CC CC CC CC CC CC CC CC CC CC ................
004232A0 CC CC CC CC CC CC CC CC CC CC CC CC CC CC CC CC ................
004232B0 CC CC CC CC CC CC CC CC CC CC CC CC CC CC CC CC ................
004232C0 CC CC CC CC CC CC CC CC CC CC CC CC CC CC CC CC ................
004232D0 CC CC CC CC CC CC CC CC CC CC CC CC CC CC CC CC ................
004232E0 CC CC CC CC CC CC CC CC CC CC CC CC CC CC CC CC ................
004232F0 CC CC CC CC CC CC CC CC CC CC CC CC CC CC CC CC ................
00423300 CC CC CC CC CC CC CC CC CC CC CC CC CC CC CC CC ................
00423310 CC CC CC CC CC CC CC CC CC CC CC CC CC CC CC CC ................
00423320 CC CC CC CC CC CC CC CC CC CC CC CC CC CC CC CC ................
00423330 CC CC CC CC CC CC CC CC CC CC CC CC CC CC CC CC ................
00423340 CC CC CC CC CC CC CC CC CC CC CC CC CC CC CC CC ................
00423350 CC CC CC CC CC CC CC CC CC CC CC CC CC CC CC CC ................
00423360 CC CC CC CC CC CC CC CC CC CC CC CC CC CC CC CC ................
00423370 CC CC CC CC CC CC CC CC CC CC CC CC CC CC CC CC ................
00423380 CC CC CC CC CC CC CC CC CC CC CC CC CC CC CC CC ................
00423390 CC CC CC CC CC CC CC CC CC CC CC CC CC CC CC CC ................
004233A0 CC CC CC CC CC CC CC CC CC CC CC CC CC CC CC CC ................
004233B0 CC CC CC CC CC CC CC CC CC CC CC CC CC CC CC CC ................
004233C0 CC CC CC CC CC CC CC CC CC CC CC CC CC CC CC CC ................
004233D0 CC CC CC CC CC CC CC CC CC CC CC CC CC CC CC CC ................
004233E0 CC CC CC CC CC CC CC CC CC CC CC CC CC CC CC CC ................
004233F0 CC CC CC CC CC CC CC CC CC CC CC CC CC CC CC CC ................
00423400 CC CC CC CC CC CC CC CC CC CC CC CC CC CC CC CC ................
00423410 CC CC CC CC CC CC CC CC CC CC CC CC CC CC CC CC ................
00423420 CC CC CC CC CC CC CC CC CC CC CC CC CC CC CC CC ................
00423430 CC CC CC CC CC CC CC CC CC CC CC CC CC CC CC CC ................
00423440 CC CC CC CC CC CC CC CC CC CC CC CC CC CC CC CC ................
00423450 CC CC CC CC CC CC CC CC CC CC CC CC CC CC CC CC ................
00423460 CC CC CC CC CC CC CC CC CC CC CC CC CC CC CC CC ................
00423470 CC CC CC CC CC CC CC CC CC CC CC CC CC CC CC CC ................
00423480 CC CC CC CC CC CC CC CC CC CC CC CC CC CC CC CC ................
00423490 CC CC CC CC CC CC CC CC CC CC CC CC CC CC CC CC ................
004234A0 CC CC CC CC CC CC CC CC CC CC CC CC CC CC CC CC ................
004234B0 CC CC CC CC CC CC CC CC CC CC CC CC CC CC CC CC ................
004234C0 CC CC CC CC CC CC CC CC CC CC CC CC CC CC CC CC ................
004234D0 CC CC CC CC CC CC CC CC CC CC CC CC CC CC CC CC ................
004234E0 CC CC CC CC CC CC CC CC CC CC CC CC CC CC CC CC ................
004234F0 CC CC CC CC CC CC CC CC CC CC CC CC CC CC CC CC ................
00423500 CC CC CC CC CC CC CC CC CC CC CC CC CC CC CC CC ................
00423510 CC CC CC CC CC CC CC CC CC CC CC CC CC CC CC CC ................
00423520 CC CC CC CC CC CC CC CC CC CC CC CC CC CC CC CC ................
00423530 CC CC CC CC CC CC CC CC CC CC CC CC CC CC CC CC ................
00423540 CC CC CC CC CC CC CC CC CC CC CC CC CC CC CC CC ................
00423550 CC CC CC CC CC CC CC CC CC CC CC CC CC CC CC CC ................
00423560 CC CC CC CC CC CC CC CC CC CC CC CC CC CC CC CC ................
00423570 CC CC CC CC CC CC CC CC CC CC CC CC CC CC CC CC ................
00423580 CC CC CC CC CC CC CC CC CC CC CC CC CC CC CC CC ................
00423590 CC CC CC CC CC CC CC CC CC CC CC CC CC CC CC CC ................
004235A0 CC CC CC CC CC CC CC CC CC CC CC CC CC CC CC CC ................
004235B0 CC CC CC CC CC CC CC CC CC CC CC CC CC CC CC CC ................
004235C0 CC CC CC CC CC CC CC CC CC CC CC CC CC CC CC CC ................
004235D0 CC CC CC CC CC CC CC CC CC CC CC CC CC CC CC CC ................
004235E0 CC CC CC CC CC CC CC CC CC CC CC CC CC CC CC CC ................
004235F0 CC CC CC CC CC CC CC CC CC CC CC CC CC CC CC CC ................
00423600 CC CC CC CC CC CC CC CC CC CC CC CC CC CC CC CC ................
00423610 CC CC CC CC CC CC CC CC CC CC CC CC CC CC CC CC ................
00423620 CC CC CC CC CC CC CC CC CC CC CC CC CC CC CC CC ................
00423630 CC CC CC CC CC CC CC CC CC CC CC CC CC CC CC CC ................
00423640 CC CC CC CC CC CC CC CC CC CC CC CC CC CC CC CC ................
00423650 CC CC CC CC CC CC CC CC CC CC CC CC CC CC CC CC ................
00423660 CC CC CC CC CC CC CC CC CC CC CC CC CC CC CC CC ................
00423670 CC CC CC CC CC CC CC CC CC CC CC CC CC CC CC CC ................
00423680 CC CC CC CC CC CC CC CC CC CC CC CC CC CC CC CC ................
00423690 CC CC CC CC CC CC CC CC CC CC CC CC CC CC CC CC ................
004236A0 CC CC CC CC CC CC CC CC CC CC CC CC CC CC CC CC ................
004236B0 CC CC CC CC CC CC CC CC CC CC CC CC CC CC CC CC ................
004236C0 CC CC CC CC CC CC CC CC CC CC CC CC CC CC CC CC ................
004236D0 CC CC CC CC CC CC CC CC CC CC CC CC CC CC CC CC ................
004236E0 CC CC CC CC CC CC CC CC CC CC CC CC CC CC CC CC ................
004236F0 CC CC CC CC CC CC CC CC CC CC CC CC CC CC CC CC ................
00423700 CC CC CC CC CC CC CC CC CC CC CC CC CC CC CC CC ................
00423710 CC CC CC CC CC CC CC CC CC CC CC CC CC CC CC CC ................
00423720 CC CC CC CC CC CC CC CC CC CC CC CC CC CC CC CC ................
00423730 CC CC CC CC CC CC CC CC CC CC CC CC CC CC CC CC ................
00423740 CC CC CC CC CC CC CC CC CC CC CC CC CC CC CC CC ................
00423750 CC CC CC CC CC CC CC CC CC CC CC CC CC CC CC CC ................
00423760 CC CC CC CC CC CC CC CC CC CC CC CC CC CC CC CC ................
00423770 CC CC CC CC CC CC CC CC CC CC CC CC CC CC CC CC ................
00423780 CC CC CC CC CC CC CC CC CC CC CC CC CC CC CC CC ................
00423790 CC CC CC CC CC CC CC CC CC CC CC CC CC CC CC CC ................
004237A0 CC CC CC CC CC CC CC CC CC CC CC CC CC CC CC CC ................
004237B0 CC CC CC CC CC CC CC CC CC CC CC CC CC CC CC CC ................
004237C0 CC CC CC CC CC CC CC CC CC CC CC CC CC CC CC CC ................
004237D0 CC CC CC CC CC CC CC CC CC CC CC CC CC CC CC CC ................
004237E0 CC CC CC CC CC CC CC CC CC CC CC CC CC CC CC CC ................
004237F0 CC CC CC CC CC CC CC CC CC CC CC CC CC CC CC CC ................
00423800 CC CC CC CC CC CC CC CC CC CC CC CC CC CC CC CC ................
00423810 CC CC CC CC CC CC CC CC CC CC CC CC CC CC CC CC ................
00423820 CC CC CC CC CC CC CC CC CC CC CC CC CC CC CC CC ................
00423830 CC CC CC CC CC CC CC CC CC CC CC CC CC CC CC CC ................
00423840 CC CC CC CC CC CC CC CC CC CC CC CC CC CC CC CC ................
00423850 CC CC CC CC CC CC CC CC CC CC CC CC CC CC CC CC ................
00423860 CC CC CC CC CC CC CC CC CC CC CC CC CC CC CC CC ................
00423870 CC CC CC CC CC CC CC CC CC CC CC CC CC CC CC CC ................
00423880 CC CC CC CC CC CC CC CC CC CC CC CC CC CC CC CC ................
00423890 CC CC CC CC CC CC CC CC CC CC CC CC CC CC CC CC ................
004238A0 CC CC CC CC CC CC CC CC CC CC CC CC CC CC CC CC ................
004238B0 CC CC CC CC CC CC CC CC CC CC CC CC CC CC CC CC ................
004238C0 CC CC CC CC CC CC CC CC CC CC CC CC CC CC CC CC ................
004238D0 CC CC CC CC CC CC CC CC CC CC CC CC CC CC CC CC ................
004238E0 CC CC CC CC CC CC CC CC CC CC CC CC CC CC CC CC ................
004238F0 CC CC CC CC CC CC CC CC CC CC CC CC CC CC CC CC ................
00423900 CC CC CC CC CC CC CC CC CC CC CC CC CC CC CC CC ................
00423910 CC CC CC CC CC CC CC CC CC CC CC CC CC CC CC CC ................
00423920 CC CC CC CC CC CC CC CC CC CC CC CC CC CC CC CC ................
00423930 CC CC CC CC CC CC CC CC CC CC CC CC CC CC CC CC ................
00423940 CC CC CC CC CC CC CC CC CC CC CC CC CC CC CC CC ................
00423950 CC CC CC CC CC CC CC CC CC CC CC CC CC CC CC CC ................
00423960 CC CC CC CC CC CC CC CC CC CC CC CC CC CC CC CC ................
00423970 CC CC CC CC CC CC CC CC CC CC CC CC CC CC CC CC ................
00423980 CC CC CC CC CC CC CC CC CC CC CC CC CC CC CC CC ................
00423990 CC CC CC CC CC CC CC CC CC CC CC CC CC CC CC CC ................
004239A0 CC CC CC CC CC CC CC CC CC CC CC CC CC CC CC CC ................
004239B0 CC CC CC CC CC CC CC CC CC CC CC CC CC CC CC CC ................
004239C0 CC CC CC CC CC CC CC CC CC CC CC CC CC CC CC CC ................
004239D0 CC CC CC CC CC CC CC CC CC CC CC CC CC CC CC CC ................
004239E0 CC CC CC CC CC CC CC CC CC CC CC CC CC CC CC CC ................
004239F0 CC CC CC CC CC CC CC CC CC CC CC CC CC CC CC CC ................
00423A00 CC CC CC CC CC CC CC CC CC CC CC CC CC CC CC CC ................
00423A10 CC CC CC CC CC CC CC CC CC CC CC CC CC CC CC CC ................
00423A20 CC CC CC CC CC CC CC CC CC CC CC CC CC CC CC CC ................
00423A30 CC CC CC CC CC CC CC CC CC CC CC CC CC CC CC CC ................
00423A40 CC CC CC CC CC CC CC CC CC CC CC CC CC CC CC CC ................
00423A50 CC CC CC CC CC CC CC CC CC CC CC CC CC CC CC CC ................
00423A60 CC CC CC CC CC CC CC CC CC CC CC CC CC CC CC CC ................
00423A70 CC CC CC CC CC CC CC CC CC CC CC CC CC CC CC CC ................
00423A80 CC CC CC CC CC CC CC CC CC CC CC CC CC CC CC CC ................
00423A90 CC CC CC CC CC CC CC CC CC CC CC CC CC CC CC CC ................
00423AA0 CC CC CC CC CC CC CC CC CC CC CC CC CC CC CC CC ................
00423AB0 CC CC CC CC CC CC CC CC CC CC CC CC CC CC CC CC ................
00423AC0 CC CC CC CC CC CC CC CC CC CC CC CC CC CC CC CC ................
00423AD0 CC CC CC CC CC CC CC CC CC CC CC CC CC CC CC CC ................
00423AE0 CC CC CC CC CC CC CC CC CC CC CC CC CC CC CC CC ................
00423AF0 CC CC CC CC CC CC CC CC CC CC CC CC CC CC CC CC ................
00423B00 CC CC CC CC CC CC CC CC CC CC CC CC CC CC CC CC ................
00423B10 CC CC CC CC CC CC CC CC CC CC CC CC CC CC CC CC ................
00423B20 CC CC CC CC CC CC CC CC CC CC CC CC CC CC CC CC ................
00423B30 CC CC CC CC CC CC CC CC CC CC CC CC CC CC CC CC ................
00423B40 CC CC CC CC CC CC CC CC CC CC CC CC CC CC CC CC ................
00423B50 CC CC CC CC CC CC CC CC CC CC CC CC CC CC CC CC ................
00423B60 CC CC CC CC CC CC CC CC CC CC CC CC CC CC CC CC ................
00423B70 CC CC CC CC CC CC CC CC CC CC CC CC CC CC CC CC ................
00423B80 CC CC CC CC CC CC CC CC CC CC CC CC CC CC CC CC ................
00423B90 CC CC CC CC CC CC CC CC CC CC CC CC CC CC CC CC ................
00423BA0 CC CC CC CC CC CC CC CC CC CC CC CC CC CC CC CC ................
00423BB0 CC CC CC CC CC CC CC CC CC CC CC CC CC CC CC CC ................
00423BC0 CC CC CC CC CC CC CC CC CC CC CC CC CC CC CC CC ................
00423BD0 CC CC CC CC CC CC CC CC CC CC CC CC CC CC CC CC ................
00423BE0 CC CC CC CC CC CC CC CC CC CC CC CC CC CC CC CC ................
00423BF0 CC CC CC CC CC CC CC CC CC CC CC CC CC CC CC CC ................
00423C00 CC CC CC CC CC CC CC CC CC CC CC CC CC CC CC CC ................
00423C10 CC CC CC CC CC CC CC CC CC CC CC CC CC CC CC CC ................
00423C20 CC CC CC CC CC CC CC CC CC CC CC CC CC CC CC CC ................
00423C30 CC CC CC CC CC CC CC CC CC CC CC CC CC CC CC CC ................
00423C40 CC CC CC CC CC CC CC CC CC CC CC CC CC CC CC CC ................
00423C50 CC CC CC CC CC CC CC CC CC CC CC CC CC CC CC CC ................
00423C60 CC CC CC CC CC CC CC CC CC CC CC CC CC CC CC CC ................
00423C70 CC CC CC CC CC CC CC CC CC CC CC CC CC CC CC CC ................
00423C80 CC CC CC CC CC CC CC CC CC CC CC CC CC CC CC CC ................
00423C90 CC CC CC CC CC CC CC CC CC CC CC CC CC CC CC CC ................
00423CA0 CC CC CC CC CC CC CC CC CC CC CC CC CC CC CC CC ................
00423CB0 CC CC CC CC CC CC CC CC CC CC CC CC CC CC CC CC ................
00423CC0 CC CC CC CC CC CC CC CC CC CC CC CC CC CC CC CC ................
00423CD0 CC CC CC CC CC CC CC CC CC CC CC CC CC CC CC CC ................
00423CE0 CC CC CC CC CC CC CC CC CC CC CC CC CC CC CC CC ................
00423CF0 CC CC CC CC CC CC CC CC CC CC CC CC CC CC CC CC ................
00423D00 CC CC CC CC CC CC CC CC CC CC CC CC CC CC CC CC ................
00423D10 CC CC CC CC CC CC CC CC CC CC CC CC CC CC CC CC ................
00423D20 CC CC CC CC CC CC CC CC CC CC CC CC CC CC CC CC ................
00423D30 CC CC CC CC CC CC CC CC CC CC CC CC CC CC CC CC ................
00423D40 CC CC CC CC CC CC CC CC CC CC CC CC CC CC CC CC ................
00423D50 CC CC CC CC CC CC CC CC CC CC CC CC CC CC CC CC ................
00423D60 CC CC CC CC CC CC CC CC CC CC CC CC CC CC CC CC ................
00423D70 CC CC CC CC CC CC CC CC CC CC CC CC CC CC CC CC ................
00423D80 CC CC CC CC CC CC CC CC CC CC CC CC CC CC CC CC ................
00423D90 CC CC CC CC CC CC CC CC CC CC CC CC CC CC CC CC ................
00423DA0 CC CC CC CC CC CC CC CC CC CC CC CC CC CC CC CC ................
00423DB0 CC CC CC CC CC CC CC CC CC CC CC CC CC CC CC CC ................
00423DC0 CC CC CC CC CC CC CC CC CC CC CC CC CC CC CC CC ................
00423DD0 CC CC CC CC CC CC CC CC CC CC CC CC CC CC CC CC ................
00423DE0 CC CC CC CC CC CC CC CC CC CC CC CC CC CC CC CC ................
00423DF0 CC CC CC CC CC CC CC CC CC CC CC CC CC CC CC CC ................
00423E00 CC CC CC CC CC CC CC CC CC CC CC CC CC CC CC CC ................
00423E10 CC CC CC CC CC CC CC CC CC CC CC CC CC CC CC CC ................
00423E20 CC CC CC CC CC CC CC CC CC CC CC CC CC CC CC CC ................
00423E30 CC CC CC CC CC CC CC CC CC CC CC CC CC CC CC CC ................
00423E40 CC CC CC CC CC CC CC CC CC CC CC CC CC CC CC CC ................
00423E50 CC CC CC CC CC CC CC CC CC CC CC CC CC CC CC CC ................
00423E60 CC CC CC CC CC CC CC CC CC CC CC CC CC CC CC CC ................
00423E70 CC CC CC CC CC CC CC CC CC CC CC CC CC CC CC CC ................
00423E80 CC CC CC CC CC CC CC CC CC CC CC CC CC CC CC CC ................
00423E90 CC CC CC CC CC CC CC CC CC CC CC CC CC CC CC CC ................
00423EA0 CC CC CC CC CC CC CC CC CC CC CC CC CC CC CC CC ................
00423EB0 CC CC CC CC CC CC CC CC CC CC CC CC CC CC CC CC ................
00423EC0 CC CC CC CC CC CC CC CC CC CC CC CC CC CC CC CC ................
00423ED0 CC CC CC CC CC CC CC CC CC CC CC CC CC CC CC CC ................
00423EE0 CC CC CC CC CC CC CC CC CC CC CC CC CC CC CC CC ................
00423EF0 CC CC CC CC CC CC CC CC CC CC CC CC CC CC CC CC ................
00423F00 CC CC CC CC CC CC CC CC CC CC CC CC CC CC CC CC ................
00423F10 CC CC CC CC CC CC CC CC CC CC CC CC CC CC CC CC ................
00423F20 CC CC CC CC CC CC CC CC CC CC CC CC CC CC CC CC ................
00423F30 CC CC CC CC CC CC CC CC CC CC CC CC CC CC CC CC ................
00423F40 CC CC CC CC CC CC CC CC CC CC CC CC CC CC CC CC ................
00423F50 CC CC CC CC CC CC CC CC CC CC CC CC CC CC CC CC ................
00423F60 CC CC CC CC CC CC CC CC CC CC CC CC CC CC CC CC ................
00423F70 CC CC CC CC CC CC CC CC CC CC CC CC CC CC CC CC ................
00423F80 CC CC CC CC CC CC CC CC CC CC CC CC CC CC CC CC ................
00423F90 CC CC CC CC CC CC CC CC CC CC CC CC CC CC CC CC ................
00423FA0 CC CC CC CC CC CC CC CC CC CC CC CC CC CC CC CC ................
00423FB0 CC CC CC CC CC CC CC CC CC CC CC CC CC CC CC CC ................
00423FC0 CC CC CC CC CC CC CC CC CC CC CC CC CC CC CC CC ................
00423FD0 CC CC CC CC CC CC CC CC CC CC CC CC CC CC CC CC ................
00423FE0 CC CC CC CC CC CC CC CC CC CC CC CC CC CC CC CC ................
00423FF0 CC CC CC CC CC CC CC CC CC CC CC CC CC CC CC CC ................
00424000 CC CC CC CC CC CC CC CC CC CC CC CC CC CC CC CC ................
00424010 CC CC CC CC CC CC CC CC CC CC CC CC CC CC CC CC ................
00424020 CC CC CC CC CC CC CC CC CC CC CC CC CC CC CC CC ................
00424030 CC CC CC CC CC CC CC CC CC CC CC CC CC CC CC CC ................
00424040 CC CC CC CC CC CC CC CC CC CC CC CC CC CC CC CC ................
00424050 CC CC CC CC CC CC CC CC CC CC CC CC CC CC CC CC ................
00424060 CC CC CC CC CC CC CC CC CC CC CC CC CC CC CC CC ................
00424070 CC CC CC CC CC CC CC CC CC CC CC CC CC CC CC CC ................
00424080 CC CC CC CC CC CC CC CC CC CC CC CC CC CC CC CC ................
00424090 CC CC CC CC CC CC CC CC CC CC CC CC CC CC CC CC ................
004240A0 CC CC CC CC CC CC CC CC CC CC CC CC CC CC CC CC ................
004240B0 CC CC CC CC CC CC CC CC CC CC CC CC CC CC CC CC ................
004240C0 CC CC CC CC CC CC CC CC CC CC CC CC CC CC CC CC ................
004240D0 CC CC CC CC CC CC CC CC CC CC CC CC CC CC CC CC ................
004240E0 CC CC CC CC CC CC CC CC CC CC CC CC CC CC CC CC ................
004240F0 CC CC CC CC CC CC CC CC CC CC CC CC CC CC CC CC ................
00424100 CC CC CC CC CC CC CC CC CC CC CC CC CC CC CC CC ................
00424110 CC CC CC CC CC CC CC CC CC CC CC CC CC CC CC CC ................
00424120 CC CC CC CC CC CC CC CC CC CC CC CC CC CC CC CC ................
00424130 CC CC CC CC CC CC CC CC CC CC CC CC CC CC CC CC ................
00424140 CC CC CC CC CC CC CC CC CC CC CC CC 00 00 00 00 ................
00424150 00 00 00 00 00 00 00 00 00 00 00 00 00 00 00 00 ................
; ...
;;; Segment .rdata (00425000)
00425000 00 00 00 00 00 00 00 00 00 00 00 00 00 00 00 00 ................
; ...
00425100 00 00 00 00 E0 D1 41 00 00 00 00 00 00 00 00 00 ......A.........
00425110 00 00 00 00 00 00 00 00 00 00 00 00 00 00 00 00 ................
; ...
00425200 00 00 00 00 00 00 00 00 20 1F 41 00 90 1F 41 00 ........ .A...A.
00425210 00 00 00 00 00 00 00 00 00 00 00 00 00 00 00 00 ................
; ...
00425510 00 00 00 00 00 00 00 00 00 00 00 00 F0 D0 41 00 ..............A.
00425520 00 00 00 00 00 00 00 00 00 00 00 00 00 00 00 00 ................
; ...
00425620 D0 D1 41 00 00 00 00 00 00 00 00 00 00 00 00 00 ..A.............
00425630 00 00 00 00 00 00 00 00 00 00 00 00 00 00 00 00 ................
; ...
00425C40 69 6E 76 61 6C 69 64 20 61 72 67 75 6D 65 6E 74 invalid argument
00425C50 00 00 00 00 25 73 00 00 22 00 69 00 6E 00 76 00 ....%s..".i.n.v.
00425C60 61 00 6C 00 69 00 64 00 20 00 61 00 72 00 67 00 a.l.i.d. .a.r.g.
00425C70 75 00 6D 00 65 00 6E 00 74 00 22 00 00 00 00 00 u.m.e.n.t.".....
00425C80 00 00 00 00 00 00 00 00 63 3A 5C 70 72 6F 67 72 ........c:\progr
00425C90 61 6D 20 66 69 6C 65 73 20 28 78 38 36 29 5C 6D am files (x86)\m
00425CA0 69 63 72 6F 73 6F 66 74 20 76 69 73 75 61 6C 20 icrosoft visual 
00425CB0 73 74 75 64 69 6F 5C 32 30 31 37 5C 63 6F 6D 6D studio\2017\comm
00425CC0 75 6E 69 74 79 5C 76 63 5C 74 6F 6F 6C 73 5C 6D unity\vc\tools\m
00425CD0 73 76 63 5C 31 34 2E 31 36 2E 32 37 30 32 33 5C svc\14.16.27023\
00425CE0 69 6E 63 6C 75 64 65 5C 78 6D 65 6D 6F 72 79 30 include\xmemory0
00425CF0 00 00 00 00 00 00 00 00 00 00 00 00 00 00 00 00 ................
00425D00 00 00 00 00 00 00 00 00 63 00 3A 00 5C 00 70 00 ........c.:.\.p.
00425D10 72 00 6F 00 67 00 72 00 61 00 6D 00 20 00 66 00 r.o.g.r.a.m. .f.
00425D20 69 00 6C 00 65 00 73 00 20 00 28 00 78 00 38 00 i.l.e.s. .(.x.8.
00425D30 36 00 29 00 5C 00 6D 00 69 00 63 00 72 00 6F 00 6.).\.m.i.c.r.o.
00425D40 73 00 6F 00 66 00 74 00 20 00 76 00 69 00 73 00 s.o.f.t. .v.i.s.
00425D50 75 00 61 00 6C 00 20 00 73 00 74 00 75 00 64 00 u.a.l. .s.t.u.d.
00425D60 69 00 6F 00 5C 00 32 00 30 00 31 00 37 00 5C 00 i.o.\.2.0.1.7.\.
00425D70 63 00 6F 00 6D 00 6D 00 75 00 6E 00 69 00 74 00 c.o.m.m.u.n.i.t.
00425D80 79 00 5C 00 76 00 63 00 5C 00 74 00 6F 00 6F 00 y.\.v.c.\.t.o.o.
00425D90 6C 00 73 00 5C 00 6D 00 73 00 76 00 63 00 5C 00 l.s.\.m.s.v.c.\.
00425DA0 31 00 34 00 2E 00 31 00 36 00 2E 00 32 00 37 00 1.4...1.6...2.7.
00425DB0 30 00 32 00 33 00 5C 00 69 00 6E 00 63 00 6C 00 0.2.3.\.i.n.c.l.
00425DC0 75 00 64 00 65 00 5C 00 78 00 6D 00 65 00 6D 00 u.d.e.\.x.m.e.m.
00425DD0 6F 00 72 00 79 00 30 00 00 00 00 00 00 00 00 00 o.r.y.0.........
00425DE0 00 00 00 00 00 00 00 00 00 00 00 00 00 00 00 00 ................
; ...
00425E00 00 00 00 00 00 00 00 00 73 00 74 00 64 00 3A 00 ........s.t.d.:.
00425E10 3A 00 5F 00 41 00 64 00 6A 00 75 00 73 00 74 00 :._.A.d.j.u.s.t.
00425E20 5F 00 6D 00 61 00 6E 00 75 00 61 00 6C 00 6C 00 _.m.a.n.u.a.l.l.
00425E30 79 00 5F 00 76 00 65 00 63 00 74 00 6F 00 72 00 y._.v.e.c.t.o.r.
00425E40 5F 00 61 00 6C 00 69 00 67 00 6E 00 65 00 64 00 _.a.l.i.g.n.e.d.
00425E50 00 00 00 00 00 00 00 00 00 00 00 00 00 00 00 00 ................
00425E60 00 00 00 00 30 31 30 30 30 30 30 31 00 00 00 00 ....01000001....
00425E70 30 31 30 30 30 30 31 30 00 00 00 00 30 31 30 30 01000010....0100
00425E80 30 30 31 31 00 00 00 00 30 31 30 30 30 31 30 30 0011....01000100
00425E90 00 00 00 00 30 31 30 30 30 31 30 31 00 00 00 00 ....01000101....
00425EA0 30 31 30 30 30 31 31 30 00 00 00 00 30 31 30 30 01000110....0100
00425EB0 30 31 31 31 00 00 00 00 30 31 30 30 31 30 30 30 0111....01001000
00425EC0 00 00 00 00 30 31 30 30 31 30 30 31 00 00 00 00 ....01001001....
00425ED0 30 31 30 30 31 30 31 30 00 00 00 00 30 31 30 30 01001010....0100
00425EE0 31 30 31 31 00 00 00 00 30 31 30 30 31 31 30 30 1011....01001100
00425EF0 00 00 00 00 30 31 30 30 31 31 30 31 00 00 00 00 ....01001101....
00425F00 30 31 30 30 31 31 31 30 00 00 00 00 30 31 30 30 01001110....0100
00425F10 31 31 31 31 00 00 00 00 30 31 30 31 30 30 30 30 1111....01010000
00425F20 00 00 00 00 30 31 30 31 30 30 30 31 00 00 00 00 ....01010001....
00425F30 30 31 30 31 30 30 31 30 00 00 00 00 30 31 30 31 01010010....0101
00425F40 30 30 31 31 00 00 00 00 30 31 30 31 30 31 30 30 0011....01010100
00425F50 00 00 00 00 30 31 30 31 30 31 30 31 00 00 00 00 ....01010101....
00425F60 30 31 30 31 30 31 31 30 00 00 00 00 30 31 30 31 01010110....0101
00425F70 30 31 31 31 00 00 00 00 30 31 30 31 31 30 30 30 0111....01011000
00425F80 00 00 00 00 30 31 30 31 31 30 30 31 00 00 00 00 ....01011001....
00425F90 30 31 30 31 31 30 31 30 00 00 00 00 30 31 31 30 01011010....0110
00425FA0 30 30 30 31 00 00 00 00 30 31 31 30 30 30 31 30 0001....01100010
00425FB0 00 00 00 00 30 31 31 30 30 30 31 31 00 00 00 00 ....01100011....
00425FC0 30 31 31 30 30 31 30 30 00 00 00 00 30 31 31 30 01100100....0110
00425FD0 30 31 30 31 00 00 00 00 30 31 31 30 30 31 31 30 0101....01100110
00425FE0 00 00 00 00 30 31 31 30 30 31 31 31 00 00 00 00 ....01100111....
00425FF0 30 31 31 30 31 30 30 30 00 00 00 00 30 31 31 30 01101000....0110
00426000 31 30 30 31 00 00 00 00 30 31 31 30 31 30 31 30 1001....01101010
00426010 00 00 00 00 30 31 31 30 31 30 31 31 00 00 00 00 ....01101011....
00426020 30 31 31 30 31 31 30 30 00 00 00 00 30 31 31 30 01101100....0110
00426030 31 31 30 31 00 00 00 00 30 31 31 30 31 31 31 30 1101....01101110
00426040 00 00 00 00 30 31 31 30 31 31 31 31 00 00 00 00 ....01101111....
00426050 30 31 31 31 30 30 30 30 00 00 00 00 30 31 31 31 01110000....0111
00426060 30 30 30 31 00 00 00 00 30 31 31 31 30 30 31 30 0001....01110010
00426070 00 00 00 00 30 31 31 31 30 30 31 31 00 00 00 00 ....01110011....
00426080 30 31 31 31 30 31 30 30 00 00 00 00 30 31 31 31 01110100....0111
00426090 30 31 30 31 00 00 00 00 30 31 31 31 30 31 31 30 0101....01110110
004260A0 00 00 00 00 30 31 31 31 30 31 31 31 00 00 00 00 ....01110111....
004260B0 30 31 31 31 31 30 30 30 00 00 00 00 30 31 31 31 01111000....0111
004260C0 31 30 30 31 00 00 00 00 30 31 31 31 31 30 31 30 1001....01111010
004260D0 00 00 00 00 30 30 31 30 30 30 30 30 00 00 00 00 ....00100000....
004260E0 52 65 73 75 6C 74 3A 00 00 00 00 00 20 3D 3E 20 Result:..... => 
004260F0 00 00 00 00 57 68 61 74 20 77 6F 75 6C 64 20 79 ....What would y
00426100 6F 75 20 6C 69 6B 65 20 74 6F 20 63 6F 6E 76 65 ou like to conve
00426110 72 74 3F 20 0A 55 73 65 20 2F 71 20 74 6F 20 71 rt? .Use /q to q
00426120 75 69 74 00 00 00 00 00 00 00 00 00 00 00 00 00 uit.............
00426130 63 6C 73 00 2F 71 00 00 51 75 69 74 74 69 6E 67 cls./q..Quitting
00426140 2E 2E 2E 00 00 00 00 00 43 6F 6E 76 65 72 74 69 ........Converti
00426150 6E 67 3A 20 00 00 00 00 61 73 63 69 69 20 3D 3E ng: ....ascii =>
00426160 20 43 6F 6E 76 65 72 74 20 74 6F 20 41 53 43 49  Convert to ASCI
00426170 49 00 00 00 00 00 00 00 62 69 6E 61 72 79 20 3D I.......binary =
00426180 3E 20 43 6F 6E 76 65 72 74 20 74 6F 20 42 69 6E > Convert to Bin
00426190 61 72 79 00 00 00 00 00 00 00 00 00 57 68 61 74 ary.........What
004261A0 20 77 6F 75 6C 64 20 79 6F 75 20 6C 69 6B 65 20  would you like 
004261B0 74 6F 20 64 6F 3F 00 00 00 00 00 00 61 73 63 69 to do?......asci
004261C0 69 00 00 00 62 69 6E 61 72 79 00 00 73 74 72 69 i...binary..stri
004261D0 6E 67 20 73 75 62 73 63 72 69 70 74 20 6F 75 74 ng subscript out
004261E0 20 6F 66 20 72 61 6E 67 65 00 00 00 00 00 00 00  of range.......
004261F0 63 3A 5C 70 72 6F 67 72 61 6D 20 66 69 6C 65 73 c:\program files
00426200 20 28 78 38 36 29 5C 6D 69 63 72 6F 73 6F 66 74  (x86)\microsoft
00426210 20 76 69 73 75 61 6C 20 73 74 75 64 69 6F 5C 32  visual studio\2
00426220 30 31 37 5C 63 6F 6D 6D 75 6E 69 74 79 5C 76 63 017\community\vc
00426230 5C 74 6F 6F 6C 73 5C 6D 73 76 63 5C 31 34 2E 31 \tools\msvc\14.1
00426240 36 2E 32 37 30 32 33 5C 69 6E 63 6C 75 64 65 5C 6.27023\include\
00426250 78 73 74 72 69 6E 67 00 00 00 00 00 00 00 00 00 xstring.........
00426260 00 00 00 00 00 00 00 00 00 00 00 00 00 00 00 00 ................
00426270 63 00 3A 00 5C 00 70 00 72 00 6F 00 67 00 72 00 c.:.\.p.r.o.g.r.
00426280 61 00 6D 00 20 00 66 00 69 00 6C 00 65 00 73 00 a.m. .f.i.l.e.s.
00426290 20 00 28 00 78 00 38 00 36 00 29 00 5C 00 6D 00  .(.x.8.6.).\.m.
004262A0 69 00 63 00 72 00 6F 00 73 00 6F 00 66 00 74 00 i.c.r.o.s.o.f.t.
004262B0 20 00 76 00 69 00 73 00 75 00 61 00 6C 00 20 00  .v.i.s.u.a.l. .
004262C0 73 00 74 00 75 00 64 00 69 00 6F 00 5C 00 32 00 s.t.u.d.i.o.\.2.
004262D0 30 00 31 00 37 00 5C 00 63 00 6F 00 6D 00 6D 00 0.1.7.\.c.o.m.m.
004262E0 75 00 6E 00 69 00 74 00 79 00 5C 00 76 00 63 00 u.n.i.t.y.\.v.c.
004262F0 5C 00 74 00 6F 00 6F 00 6C 00 73 00 5C 00 6D 00 \.t.o.o.l.s.\.m.
00426300 73 00 76 00 63 00 5C 00 31 00 34 00 2E 00 31 00 s.v.c.\.1.4...1.
00426310 36 00 2E 00 32 00 37 00 30 00 32 00 33 00 5C 00 6...2.7.0.2.3.\.
00426320 69 00 6E 00 63 00 6C 00 75 00 64 00 65 00 5C 00 i.n.c.l.u.d.e.\.
00426330 78 00 73 00 74 00 72 00 69 00 6E 00 67 00 00 00 x.s.t.r.i.n.g...
00426340 00 00 00 00 00 00 00 00 00 00 00 00 00 00 00 00 ................
; ...
00426370 73 00 74 00 64 00 3A 00 3A 00 62 00 61 00 73 00 s.t.d.:.:.b.a.s.
00426380 69 00 63 00 5F 00 73 00 74 00 72 00 69 00 6E 00 i.c._.s.t.r.i.n.
00426390 67 00 3C 00 63 00 68 00 61 00 72 00 2C 00 73 00 g.<.c.h.a.r.,.s.
004263A0 74 00 72 00 75 00 63 00 74 00 20 00 73 00 74 00 t.r.u.c.t. .s.t.
004263B0 64 00 3A 00 3A 00 63 00 68 00 61 00 72 00 5F 00 d.:.:.c.h.a.r._.
004263C0 74 00 72 00 61 00 69 00 74 00 73 00 3C 00 63 00 t.r.a.i.t.s.<.c.
004263D0 68 00 61 00 72 00 3E 00 2C 00 63 00 6C 00 61 00 h.a.r.>.,.c.l.a.
004263E0 73 00 73 00 20 00 73 00 74 00 64 00 3A 00 3A 00 s.s. .s.t.d.:.:.
004263F0 61 00 6C 00 6C 00 6F 00 63 00 61 00 74 00 6F 00 a.l.l.o.c.a.t.o.
00426400 72 00 3C 00 63 00 68 00 61 00 72 00 3E 00 20 00 r.<.c.h.a.r.>. .
00426410 3E 00 3A 00 3A 00 6F 00 70 00 65 00 72 00 61 00 >.:.:.o.p.e.r.a.
00426420 74 00 6F 00 72 00 20 00 5B 00 5D 00 00 00 00 00 t.o.r. .[.].....
00426430 00 00 00 00 00 00 00 00 00 00 00 00 00 00 00 00 ................
; ...
00426450 00 00 00 00 00 00 00 00 22 00 73 00 74 00 72 00 ........".s.t.r.
00426460 69 00 6E 00 67 00 20 00 73 00 75 00 62 00 73 00 i.n.g. .s.u.b.s.
00426470 63 00 72 00 69 00 70 00 74 00 20 00 6F 00 75 00 c.r.i.p.t. .o.u.
00426480 74 00 20 00 6F 00 66 00 20 00 72 00 61 00 6E 00 t. .o.f. .r.a.n.
00426490 67 00 65 00 22 00 00 00 00 00 00 00 00 00 00 00 g.e."...........
004264A0 00 00 00 00 69 6E 76 61 6C 69 64 20 73 74 72 69 ....invalid stri
004264B0 6E 67 20 70 6F 73 69 74 69 6F 6E 00 00 00 00 00 ng position.....
004264C0 73 74 72 69 6E 67 20 74 6F 6F 20 6C 6F 6E 67 00 string too long.
004264D0 00 00 00 00 00 00 00 00 73 00 74 00 64 00 3A 00 ........s.t.d.:.
004264E0 3A 00 5F 00 41 00 6C 00 6C 00 6F 00 63 00 61 00 :._.A.l.l.o.c.a.
004264F0 74 00 65 00 5F 00 6D 00 61 00 6E 00 75 00 61 00 t.e._.m.a.n.u.a.
00426500 6C 00 6C 00 79 00 5F 00 76 00 65 00 63 00 74 00 l.l.y._.v.e.c.t.
00426510 6F 00 72 00 5F 00 61 00 6C 00 69 00 67 00 6E 00 o.r._.a.l.i.g.n.
00426520 65 00 64 00 00 00 00 00 00 00 00 00 00 00 00 00 e.d.............
00426530 00 00 00 00 00 00 00 00 08 72 42 00 70 13 41 00 .........rB.p.A.
00426540 C2 16 41 00 00 00 00 00 55 6E 6B 6E 6F 77 6E 20 ..A.....Unknown 
00426550 65 78 63 65 70 74 69 6F 6E 00 00 00 00 00 00 00 exception.......
00426560 60 72 42 00 FD 12 41 00 C2 16 41 00 00 00 00 00 `rB...A...A.....
00426570 62 61 64 20 61 6C 6C 6F 63 61 74 69 6F 6E 00 00 bad allocation..
00426580 00 00 00 00 BC 72 42 00 32 15 41 00 C2 16 41 00 .....rB.2.A...A.
00426590 00 00 00 00 62 61 64 20 61 72 72 61 79 20 6E 65 ....bad array ne
004265A0 77 20 6C 65 6E 67 74 68 00 00 00 00 00 00 00 00 w length........
004265B0 70 66 42 00 80 67 42 00 D8 68 42 00 FC 68 42 00 pfB..gB..hB..hB.
004265C0 3C 69 42 00 70 69 42 00 01 00 00 00 00 00 00 00 <iB.piB.........
004265D0 01 00 00 00 01 00 00 00 01 00 00 00 01 00 00 00 ................
004265E0 53 74 61 63 6B 20 61 72 6F 75 6E 64 20 74 68 65 Stack around the
004265F0 20 76 61 72 69 61 62 6C 65 20 27 00 27 20 77 61  variable '.' wa
00426600 73 20 63 6F 72 72 75 70 74 65 64 2E 00 00 00 00 s corrupted.....
00426610 54 68 65 20 76 61 72 69 61 62 6C 65 20 27 00 00 The variable '..
00426620 27 20 69 73 20 62 65 69 6E 67 20 75 73 65 64 20 ' is being used 
00426630 77 69 74 68 6F 75 74 20 62 65 69 6E 67 20 69 6E without being in
00426640 69 74 69 61 6C 69 7A 65 64 2E 00 00 00 00 00 00 itialized.......
00426650 00 00 00 00 00 00 00 00 00 00 00 00 00 00 00 00 ................
; ...
00426670 54 68 65 20 76 61 6C 75 65 20 6F 66 20 45 53 50 The value of ESP
00426680 20 77 61 73 20 6E 6F 74 20 70 72 6F 70 65 72 6C  was not properl
00426690 79 20 73 61 76 65 64 20 61 63 72 6F 73 73 20 61 y saved across a
004266A0 20 66 75 6E 63 74 69 6F 6E 20 63 61 6C 6C 2E 20  function call. 
004266B0 20 54 68 69 73 20 69 73 20 75 73 75 61 6C 6C 79  This is usually
004266C0 20 61 20 72 65 73 75 6C 74 20 6F 66 20 63 61 6C  a result of cal
004266D0 6C 69 6E 67 20 61 20 66 75 6E 63 74 69 6F 6E 20 ling a function 
004266E0 64 65 63 6C 61 72 65 64 20 77 69 74 68 20 6F 6E declared with on
004266F0 65 20 63 61 6C 6C 69 6E 67 20 63 6F 6E 76 65 6E e calling conven
00426700 74 69 6F 6E 20 77 69 74 68 20 61 20 66 75 6E 63 tion with a func
00426710 74 69 6F 6E 20 70 6F 69 6E 74 65 72 20 64 65 63 tion pointer dec
00426720 6C 61 72 65 64 20 77 69 74 68 20 61 20 64 69 66 lared with a dif
00426730 66 65 72 65 6E 74 20 63 61 6C 6C 69 6E 67 20 63 ferent calling c
00426740 6F 6E 76 65 6E 74 69 6F 6E 2E 0A 0D 00 00 00 00 onvention.......
00426750 00 00 00 00 00 00 00 00 00 00 00 00 00 00 00 00 ................
; ...
00426780 41 20 63 61 73 74 20 74 6F 20 61 20 73 6D 61 6C A cast to a smal
00426790 6C 65 72 20 64 61 74 61 20 74 79 70 65 20 68 61 ler data type ha
004267A0 73 20 63 61 75 73 65 64 20 61 20 6C 6F 73 73 20 s caused a loss 
004267B0 6F 66 20 64 61 74 61 2E 20 20 49 66 20 74 68 69 of data.  If thi
004267C0 73 20 77 61 73 20 69 6E 74 65 6E 74 69 6F 6E 61 s was intentiona
004267D0 6C 2C 20 79 6F 75 20 73 68 6F 75 6C 64 20 6D 61 l, you should ma
004267E0 73 6B 20 74 68 65 20 73 6F 75 72 63 65 20 6F 66 sk the source of
004267F0 20 74 68 65 20 63 61 73 74 20 77 69 74 68 20 74  the cast with t
00426800 68 65 20 61 70 70 72 6F 70 72 69 61 74 65 20 62 he appropriate b
00426810 69 74 6D 61 73 6B 2E 20 20 46 6F 72 20 65 78 61 itmask.  For exa
00426820 6D 70 6C 65 3A 20 20 0A 0D 09 63 68 61 72 20 63 mple:  ...char c
00426830 20 3D 20 28 69 20 26 20 30 78 46 46 29 3B 0A 0D  = (i & 0xFF);..
00426840 43 68 61 6E 67 69 6E 67 20 74 68 65 20 63 6F 64 Changing the cod
00426850 65 20 69 6E 20 74 68 69 73 20 77 61 79 20 77 69 e in this way wi
00426860 6C 6C 20 6E 6F 74 20 61 66 66 65 63 74 20 74 68 ll not affect th
00426870 65 20 71 75 61 6C 69 74 79 20 6F 66 20 74 68 65 e quality of the
00426880 20 72 65 73 75 6C 74 69 6E 67 20 6F 70 74 69 6D  resulting optim
00426890 69 7A 65 64 20 63 6F 64 65 2E 0A 0D 00 00 00 00 ized code.......
004268A0 00 00 00 00 00 00 00 00 00 00 00 00 00 00 00 00 ................
; ...
004268D0 00 00 00 00 00 00 00 00 53 74 61 63 6B 20 6D 65 ........Stack me
004268E0 6D 6F 72 79 20 77 61 73 20 63 6F 72 72 75 70 74 mory was corrupt
004268F0 65 64 0A 0D 00 00 00 00 00 00 00 00 41 20 6C 6F ed..........A lo
00426900 63 61 6C 20 76 61 72 69 61 62 6C 65 20 77 61 73 cal variable was
00426910 20 75 73 65 64 20 62 65 66 6F 72 65 20 69 74 20  used before it 
00426920 77 61 73 20 69 6E 69 74 69 61 6C 69 7A 65 64 0A was initialized.
00426930 0D 00 00 00 00 00 00 00 00 00 00 00 53 74 61 63 ............Stac
00426940 6B 20 6D 65 6D 6F 72 79 20 61 72 6F 75 6E 64 20 k memory around 
00426950 5F 61 6C 6C 6F 63 61 20 77 61 73 20 63 6F 72 72 _alloca was corr
00426960 75 70 74 65 64 0A 0D 00 00 00 00 00 00 00 00 00 upted...........
00426970 55 6E 6B 6E 6F 77 6E 20 52 75 6E 74 69 6D 65 20 Unknown Runtime 
00426980 43 68 65 63 6B 20 45 72 72 6F 72 0A 0D 00 00 00 Check Error.....
00426990 00 00 00 00 00 00 00 00 52 00 75 00 6E 00 74 00 ........R.u.n.t.
004269A0 69 00 6D 00 65 00 20 00 43 00 68 00 65 00 63 00 i.m.e. .C.h.e.c.
004269B0 6B 00 20 00 45 00 72 00 72 00 6F 00 72 00 2E 00 k. .E.r.r.o.r...
004269C0 0A 00 0D 00 20 00 55 00 6E 00 61 00 62 00 6C 00 .... .U.n.a.b.l.
004269D0 65 00 20 00 74 00 6F 00 20 00 64 00 69 00 73 00 e. .t.o. .d.i.s.
004269E0 70 00 6C 00 61 00 79 00 20 00 52 00 54 00 43 00 p.l.a.y. .R.T.C.
004269F0 20 00 4D 00 65 00 73 00 73 00 61 00 67 00 65 00  .M.e.s.s.a.g.e.
00426A00 2E 00 00 00 00 00 00 00 00 00 00 00 00 00 00 00 ................
00426A10 00 00 00 00 00 00 00 00 00 00 00 00 00 00 00 00 ................
00426A20 52 00 75 00 6E 00 2D 00 54 00 69 00 6D 00 65 00 R.u.n.-.T.i.m.e.
00426A30 20 00 43 00 68 00 65 00 63 00 6B 00 20 00 46 00  .C.h.e.c.k. .F.
00426A40 61 00 69 00 6C 00 75 00 72 00 65 00 20 00 23 00 a.i.l.u.r.e. .#.
00426A50 25 00 64 00 20 00 2D 00 20 00 25 00 73 00 00 00 %.d. .-. .%.s...
00426A60 00 00 00 00 00 00 00 00 00 00 00 00 55 6E 6B 6E ............Unkn
00426A70 6F 77 6E 20 46 69 6C 65 6E 61 6D 65 00 00 00 00 own Filename....
00426A80 55 6E 6B 6E 6F 77 6E 20 4D 6F 64 75 6C 65 20 4E Unknown Module N
00426A90 61 6D 65 00 00 00 00 00 52 75 6E 2D 54 69 6D 65 ame.....Run-Time
00426AA0 20 43 68 65 63 6B 20 46 61 69 6C 75 72 65 20 23  Check Failure #
00426AB0 25 64 20 2D 20 25 73 00 00 00 00 00 00 00 00 00 %d - %s.........
00426AC0 53 74 61 63 6B 20 63 6F 72 72 75 70 74 65 64 20 Stack corrupted 
00426AD0 6E 65 61 72 20 75 6E 6B 6E 6F 77 6E 20 76 61 72 near unknown var
00426AE0 69 61 62 6C 65 00 00 00 00 00 00 00 00 00 00 00 iable...........
00426AF0 25 2E 32 58 20 00 00 00 53 74 61 63 6B 20 61 72 %.2X ...Stack ar
00426B00 65 61 20 61 72 6F 75 6E 64 20 5F 61 6C 6C 6F 63 ea around _alloc
00426B10 61 20 6D 65 6D 6F 72 79 20 72 65 73 65 72 76 65 a memory reserve
00426B20 64 20 62 79 20 74 68 69 73 20 66 75 6E 63 74 69 d by this functi
00426B30 6F 6E 20 69 73 20 63 6F 72 72 75 70 74 65 64 0A on is corrupted.
00426B40 00 00 00 00 00 00 00 00 00 00 00 00 00 00 00 00 ................
00426B50 0A 00 00 00 3E 20 00 00 0A 44 61 74 61 3A 20 3C ....> ...Data: <
00426B60 00 00 00 00 0A 41 6C 6C 6F 63 61 74 69 6F 6E 20 .....Allocation 
00426B70 6E 75 6D 62 65 72 20 77 69 74 68 69 6E 20 74 68 number within th
00426B80 69 73 20 66 75 6E 63 74 69 6F 6E 3A 20 00 00 00 is function: ...
00426B90 00 00 00 00 00 00 00 00 0A 53 69 7A 65 3A 20 00 .........Size: .
00426BA0 00 00 00 00 0A 41 64 64 72 65 73 73 3A 20 30 78 .....Address: 0x
00426BB0 00 00 00 00 00 00 00 00 53 74 61 63 6B 20 61 72 ........Stack ar
00426BC0 65 61 20 61 72 6F 75 6E 64 20 5F 61 6C 6C 6F 63 ea around _alloc
00426BD0 61 20 6D 65 6D 6F 72 79 20 72 65 73 65 72 76 65 a memory reserve
00426BE0 64 20 62 79 20 74 68 69 73 20 66 75 6E 63 74 69 d by this functi
00426BF0 6F 6E 20 69 73 20 63 6F 72 72 75 70 74 65 64 00 on is corrupted.
00426C00 00 00 00 00 00 00 00 00 00 00 00 00 00 00 00 00 ................
00426C10 25 73 25 73 25 70 25 73 25 7A 64 25 73 25 64 25 %s%s%p%s%zd%s%d%
00426C20 73 25 73 25 73 25 73 25 73 00 00 00 00 00 00 00 s%s%s%s%s.......
00426C30 41 20 76 61 72 69 61 62 6C 65 20 69 73 20 62 65 A variable is be
00426C40 69 6E 67 20 75 73 65 64 20 77 69 74 68 6F 75 74 ing used without
00426C50 20 62 65 69 6E 67 20 69 6E 69 74 69 61 6C 69 7A  being initializ
00426C60 65 64 2E 00 00 00 00 00 00 00 00 00 00 00 00 00 ed..............
00426C70 70 93 42 00 C0 93 42 00 00 00 00 00 94 6C 42 00 p.B...B......lB.
00426C80 B4 6C 42 00 E8 6C 42 00 04 6D 42 00 38 6D 42 00 .lB..lB..mB.8mB.
00426C90 00 00 00 00 53 74 61 63 6B 20 70 6F 69 6E 74 65 ....Stack pointe
00426CA0 72 20 63 6F 72 72 75 70 74 69 6F 6E 00 00 00 00 r corruption....
00426CB0 00 00 00 00 43 61 73 74 20 74 6F 20 73 6D 61 6C ....Cast to smal
00426CC0 6C 65 72 20 74 79 70 65 20 63 61 75 73 69 6E 67 ler type causing
00426CD0 20 6C 6F 73 73 20 6F 66 20 64 61 74 61 00 00 00  loss of data...
00426CE0 00 00 00 00 00 00 00 00 53 74 61 63 6B 20 6D 65 ........Stack me
00426CF0 6D 6F 72 79 20 63 6F 72 72 75 70 74 69 6F 6E 00 mory corruption.
00426D00 00 00 00 00 4C 6F 63 61 6C 20 76 61 72 69 61 62 ....Local variab
00426D10 6C 65 20 75 73 65 64 20 62 65 66 6F 72 65 20 69 le used before i
00426D20 6E 69 74 69 61 6C 69 7A 61 74 69 6F 6E 00 00 00 nitialization...
00426D30 00 00 00 00 00 00 00 00 53 74 61 63 6B 20 61 72 ........Stack ar
00426D40 6F 75 6E 64 20 5F 61 6C 6C 6F 63 61 20 63 6F 72 ound _alloca cor
00426D50 72 75 70 74 65 64 00 00 00 00 00 00 00 00 00 00 rupted..........
00426D60 1C 73 42 00 1C 12 41 00 00 00 00 00 62 00 69 00 .sB...A.....b.i.
00426D70 6E 00 5C 00 4D 00 53 00 50 00 44 00 42 00 31 00 n.\.M.S.P.D.B.1.
00426D80 34 00 30 00 2E 00 44 00 4C 00 4C 00 00 00 00 00 4.0...D.L.L.....
00426D90 56 00 43 00 52 00 55 00 4E 00 54 00 49 00 4D 00 V.C.R.U.N.T.I.M.
00426DA0 45 00 31 00 34 00 30 00 44 00 2E 00 64 00 6C 00 E.1.4.0.D...d.l.
00426DB0 6C 00 00 00 00 00 00 00 00 00 00 00 00 00 00 00 l...............
00426DC0 00 00 00 00 00 00 00 00 61 00 70 00 69 00 2D 00 ........a.p.i.-.
00426DD0 6D 00 73 00 2D 00 77 00 69 00 6E 00 2D 00 63 00 m.s.-.w.i.n.-.c.
00426DE0 6F 00 72 00 65 00 2D 00 72 00 65 00 67 00 69 00 o.r.e.-.r.e.g.i.
00426DF0 73 00 74 00 72 00 79 00 2D 00 6C 00 31 00 2D 00 s.t.r.y.-.l.1.-.
00426E00 31 00 2D 00 30 00 2E 00 64 00 6C 00 6C 00 00 00 1.-.0...d.l.l...
00426E10 00 00 00 00 00 00 00 00 00 00 00 00 00 00 00 00 ................
00426E20 61 00 64 00 76 00 61 00 70 00 69 00 33 00 32 00 a.d.v.a.p.i.3.2.
00426E30 2E 00 64 00 6C 00 6C 00 00 00 00 00 00 00 00 00 ..d.l.l.........
00426E40 52 65 67 4F 70 65 6E 4B 65 79 45 78 57 00 00 00 RegOpenKeyExW...
00426E50 52 65 67 51 75 65 72 79 56 61 6C 75 65 45 78 57 RegQueryValueExW
00426E60 00 00 00 00 52 65 67 43 6C 6F 73 65 4B 65 79 00 ....RegCloseKey.
00426E70 00 00 00 00 00 00 00 00 53 00 4F 00 46 00 54 00 ........S.O.F.T.
00426E80 57 00 41 00 52 00 45 00 5C 00 57 00 6F 00 77 00 W.A.R.E.\.W.o.w.
00426E90 36 00 34 00 33 00 32 00 4E 00 6F 00 64 00 65 00 6.4.3.2.N.o.d.e.
00426EA0 5C 00 4D 00 69 00 63 00 72 00 6F 00 73 00 6F 00 \.M.i.c.r.o.s.o.
00426EB0 66 00 74 00 5C 00 56 00 69 00 73 00 75 00 61 00 f.t.\.V.i.s.u.a.
00426EC0 6C 00 53 00 74 00 75 00 64 00 69 00 6F 00 5C 00 l.S.t.u.d.i.o.\.
00426ED0 31 00 34 00 2E 00 30 00 5C 00 53 00 65 00 74 00 1.4...0.\.S.e.t.
00426EE0 75 00 70 00 5C 00 56 00 43 00 00 00 00 00 00 00 u.p.\.V.C.......
00426EF0 00 00 00 00 00 00 00 00 00 00 00 00 00 00 00 00 ................
00426F00 00 00 00 00 50 00 72 00 6F 00 64 00 75 00 63 00 ....P.r.o.d.u.c.
00426F10 74 00 44 00 69 00 72 00 00 00 00 00 00 00 00 00 t.D.i.r.........
00426F20 44 00 4C 00 4C 00 00 00 00 00 00 00 4D 00 53 00 D.L.L.......M.S.
00426F30 50 00 44 00 42 00 31 00 34 00 30 00 00 00 00 00 P.D.B.1.4.0.....
00426F40 00 00 00 00 4D 00 53 00 50 00 44 00 42 00 31 00 ....M.S.P.D.B.1.
00426F50 34 00 30 00 00 00 00 00 00 00 00 00 50 44 42 4F 4.0.........PDBO
00426F60 70 65 6E 56 61 6C 69 64 61 74 65 35 00 00 00 00 penValidate5....
00426F70 72 00 00 00 00 00 00 00 00 00 00 00 00 00 00 00 r...............
00426F80 00 00 00 00 22 64 38 5F 00 00 00 00 02 00 00 00 ...."d8_........
00426F90 60 00 00 00 7C 74 02 00 7C 5A 01 00 00 00 00 00 `...|t..|Z......
00426FA0 22 64 38 5F 00 00 00 00 0C 00 00 00 14 00 00 00 "d8_............
00426FB0 DC 74 02 00 DC 5A 01 00 A0 00 00 00 00 00 00 00 .t...Z..........
00426FC0 00 00 00 00 00 00 00 00 00 00 00 00 00 00 00 00 ................
; ...
00426FF0 00 00 00 00 14 90 42 00 00 00 00 00 00 00 00 00 ......B.........
00427000 00 D0 42 00 00 00 00 00 00 00 00 00 00 00 00 00 ..B.............
00427010 00 01 00 00 00 00 00 00 00 00 00 00 00 00 00 00 ................
00427020 00 00 00 00 00 00 00 00 00 00 00 00 00 00 00 00 ................
; ...
00427210 00 00 00 00 6C 91 42 00 20 72 42 00 00 00 00 00 ....l.B. rB.....
00427220 00 00 00 00 00 00 00 00 01 00 00 00 34 72 42 00 ............4rB.
00427230 00 00 00 00 3C 72 42 00 00 00 00 00 6C 91 42 00 ....<rB.....l.B.
00427240 00 00 00 00 00 00 00 00 FF FF FF FF 00 00 00 00 ................
00427250 40 00 00 00 20 72 42 00 00 00 00 00 00 00 00 00 @... rB.........
00427260 00 00 00 00 00 00 00 00 00 00 00 00 48 91 42 00 ............H.B.
00427270 78 72 42 00 00 00 00 00 00 00 00 00 00 00 00 00 xrB.............
00427280 02 00 00 00 8C 72 42 00 00 00 00 00 98 72 42 00 .....rB......rB.
00427290 3C 72 42 00 00 00 00 00 48 91 42 00 01 00 00 00 <rB.....H.B.....
004272A0 00 00 00 00 FF FF FF FF 00 00 00 00 40 00 00 00 ............@...
004272B0 78 72 42 00 00 00 00 00 00 00 00 00 00 00 00 00 xrB.............
004272C0 00 00 00 00 00 00 00 00 90 91 42 00 D4 72 42 00 ..........B..rB.
004272D0 00 00 00 00 00 00 00 00 00 00 00 00 03 00 00 00 ................
004272E0 E8 72 42 00 00 00 00 00 F8 72 42 00 98 72 42 00 .rB......rB..rB.
004272F0 3C 72 42 00 00 00 00 00 90 91 42 00 02 00 00 00 <rB.......B.....
00427300 00 00 00 00 FF FF FF FF 00 00 00 00 40 00 00 00 ............@...
00427310 D4 72 42 00 00 00 00 00 00 00 00 00 00 00 00 00 .rB.............
00427320 00 00 00 00 00 00 00 00 C0 91 42 00 34 73 42 00 ..........B.4sB.
00427330 00 00 00 00 00 00 00 00 00 00 00 00 01 00 00 00 ................
00427340 48 73 42 00 00 00 00 00 50 73 42 00 00 00 00 00 HsB.....PsB.....
00427350 C0 91 42 00 00 00 00 00 00 00 00 00 FF FF FF FF ..B.............
00427360 00 00 00 00 40 00 00 00 34 73 42 00 00 00 00 00 ....@...4sB.....
00427370 00 00 00 00 00 00 00 00 00 00 00 00 00 00 00 00 ................
; ...
00427470 00 00 00 00 00 00 00 00 00 00 00 00 52 53 44 53 ............RSDS
00427480 45 8D 92 94 18 99 1D 47 94 69 B2 9E 4B 99 3E 3C E......G.i..K.><
00427490 03 00 00 00 43 3A 5C 55 73 65 72 73 5C 61 70 70 ....C:\Users\app
004274A0 6C 65 5C 73 6F 75 72 63 65 5C 72 65 70 6F 73 5C le\source\repos\
004274B0 42 69 6E 61 72 79 5F 63 6F 6E 76 65 72 74 65 72 Binary_converter
004274C0 5C 44 65 62 75 67 5C 42 69 6E 61 72 79 5F 63 6F \Debug\Binary_co
004274D0 6E 76 65 72 74 65 72 2E 70 64 62 00 00 00 00 00 nverter.pdb.....
004274E0 2D 00 00 00 2D 00 00 00 01 00 00 00 2C 00 00 00 -...-.......,...
004274F0 00 00 00 00 00 00 00 00 00 00 00 00 00 00 00 00 ................
; ...
00427700 00 00 00 00 00 00 00 00 00 00 00 00 AA 15 41 00 ..............A.
00427710 00 00 00 00 00 00 00 00 00 00 00 00 00 00 00 00 ................
; ...
00427A10 00 00 00 00 00 00 00 00 25 13 41 00 00 00 00 00 ........%.A.....
00427A20 00 00 00 00 00 00 00 00 00 00 00 00 00 00 00 00 ................
; ...
00427C20 22 05 93 19 00 00 00 00 00 00 00 00 00 00 00 00 "...............
00427C30 00 00 00 00 00 00 00 00 00 00 00 00 00 00 00 00 ................
00427C40 05 00 00 00 00 00 00 00 22 05 93 19 00 00 00 00 ........".......
00427C50 00 00 00 00 00 00 00 00 00 00 00 00 00 00 00 00 ................
00427C60 00 00 00 00 00 00 00 00 05 00 00 00 00 00 00 00 ................
00427C70 22 05 93 19 00 00 00 00 00 00 00 00 00 00 00 00 "...............
00427C80 00 00 00 00 00 00 00 00 00 00 00 00 00 00 00 00 ................
00427C90 05 00 00 00 00 00 00 00 22 05 93 19 00 00 00 00 ........".......
00427CA0 00 00 00 00 00 00 00 00 00 00 00 00 00 00 00 00 ................
00427CB0 00 00 00 00 00 00 00 00 05 00 00 00 00 00 00 00 ................
00427CC0 22 05 93 19 00 00 00 00 00 00 00 00 00 00 00 00 "...............
00427CD0 00 00 00 00 00 00 00 00 00 00 00 00 00 00 00 00 ................
00427CE0 05 00 00 00 00 00 00 00 22 05 93 19 00 00 00 00 ........".......
00427CF0 00 00 00 00 00 00 00 00 00 00 00 00 00 00 00 00 ................
00427D00 00 00 00 00 00 00 00 00 05 00 00 00 00 00 00 00 ................
00427D10 22 05 93 19 00 00 00 00 00 00 00 00 00 00 00 00 "...............
00427D20 00 00 00 00 00 00 00 00 00 00 00 00 00 00 00 00 ................
00427D30 05 00 00 00 00 00 00 00 22 05 93 19 00 00 00 00 ........".......
00427D40 00 00 00 00 00 00 00 00 00 00 00 00 00 00 00 00 ................
00427D50 00 00 00 00 00 00 00 00 05 00 00 00 00 00 00 00 ................
00427D60 22 05 93 19 00 00 00 00 00 00 00 00 00 00 00 00 "...............
00427D70 00 00 00 00 00 00 00 00 00 00 00 00 00 00 00 00 ................
00427D80 05 00 00 00 00 00 00 00 22 05 93 19 00 00 00 00 ........".......
00427D90 00 00 00 00 00 00 00 00 00 00 00 00 00 00 00 00 ................
00427DA0 00 00 00 00 00 00 00 00 05 00 00 00 00 00 00 00 ................
00427DB0 22 05 93 19 00 00 00 00 00 00 00 00 00 00 00 00 "...............
00427DC0 00 00 00 00 00 00 00 00 00 00 00 00 00 00 00 00 ................
00427DD0 05 00 00 00 00 00 00 00 22 05 93 19 00 00 00 00 ........".......
00427DE0 00 00 00 00 00 00 00 00 00 00 00 00 00 00 00 00 ................
00427DF0 00 00 00 00 00 00 00 00 05 00 00 00 00 00 00 00 ................
00427E00 22 05 93 19 00 00 00 00 00 00 00 00 00 00 00 00 "...............
00427E10 00 00 00 00 00 00 00 00 00 00 00 00 00 00 00 00 ................
00427E20 05 00 00 00 00 00 00 00 22 05 93 19 00 00 00 00 ........".......
00427E30 00 00 00 00 00 00 00 00 00 00 00 00 00 00 00 00 ................
00427E40 00 00 00 00 00 00 00 00 05 00 00 00 00 00 00 00 ................
00427E50 22 05 93 19 00 00 00 00 00 00 00 00 00 00 00 00 "...............
00427E60 00 00 00 00 00 00 00 00 00 00 00 00 00 00 00 00 ................
00427E70 05 00 00 00 00 00 00 00 22 05 93 19 00 00 00 00 ........".......
00427E80 00 00 00 00 00 00 00 00 00 00 00 00 00 00 00 00 ................
00427E90 00 00 00 00 00 00 00 00 05 00 00 00 00 00 00 00 ................
00427EA0 22 05 93 19 00 00 00 00 00 00 00 00 00 00 00 00 "...............
00427EB0 00 00 00 00 00 00 00 00 00 00 00 00 00 00 00 00 ................
00427EC0 05 00 00 00 00 00 00 00 22 05 93 19 00 00 00 00 ........".......
00427ED0 00 00 00 00 00 00 00 00 00 00 00 00 00 00 00 00 ................
00427EE0 00 00 00 00 00 00 00 00 05 00 00 00 00 00 00 00 ................
00427EF0 FF FF FF FF 40 16 42 00 22 05 93 19 01 00 00 00 ....@.B.".......
00427F00 F0 7E 42 00 00 00 00 00 00 00 00 00 00 00 00 00 .~B.............
00427F10 00 00 00 00 00 00 00 00 01 00 00 00 00 00 00 00 ................
00427F20 22 05 93 19 00 00 00 00 00 00 00 00 00 00 00 00 "...............
00427F30 00 00 00 00 00 00 00 00 00 00 00 00 00 00 00 00 ................
00427F40 05 00 00 00 00 00 00 00 22 05 93 19 00 00 00 00 ........".......
00427F50 00 00 00 00 00 00 00 00 00 00 00 00 00 00 00 00 ................
00427F60 00 00 00 00 00 00 00 00 05 00 00 00 00 00 00 00 ................
00427F70 22 05 93 19 00 00 00 00 00 00 00 00 00 00 00 00 "...............
00427F80 00 00 00 00 00 00 00 00 00 00 00 00 00 00 00 00 ................
00427F90 05 00 00 00 00 00 00 00 22 05 93 19 00 00 00 00 ........".......
00427FA0 00 00 00 00 00 00 00 00 00 00 00 00 00 00 00 00 ................
00427FB0 00 00 00 00 00 00 00 00 05 00 00 00 00 00 00 00 ................
00427FC0 22 05 93 19 00 00 00 00 00 00 00 00 00 00 00 00 "...............
00427FD0 00 00 00 00 00 00 00 00 00 00 00 00 00 00 00 00 ................
00427FE0 05 00 00 00 00 00 00 00 22 05 93 19 00 00 00 00 ........".......
00427FF0 00 00 00 00 00 00 00 00 00 00 00 00 00 00 00 00 ................
00428000 00 00 00 00 00 00 00 00 05 00 00 00 00 00 00 00 ................
00428010 22 05 93 19 00 00 00 00 00 00 00 00 00 00 00 00 "...............
00428020 00 00 00 00 00 00 00 00 00 00 00 00 00 00 00 00 ................
00428030 05 00 00 00 00 00 00 00 22 05 93 19 00 00 00 00 ........".......
00428040 00 00 00 00 00 00 00 00 00 00 00 00 00 00 00 00 ................
00428050 00 00 00 00 00 00 00 00 05 00 00 00 00 00 00 00 ................
00428060 22 05 93 19 00 00 00 00 00 00 00 00 00 00 00 00 "...............
00428070 00 00 00 00 00 00 00 00 00 00 00 00 00 00 00 00 ................
00428080 05 00 00 00 00 00 00 00 22 05 93 19 00 00 00 00 ........".......
00428090 00 00 00 00 00 00 00 00 00 00 00 00 00 00 00 00 ................
004280A0 00 00 00 00 00 00 00 00 05 00 00 00 00 00 00 00 ................
004280B0 FF FF FF FF D0 16 42 00 22 05 93 19 01 00 00 00 ......B.".......
004280C0 B0 80 42 00 00 00 00 00 00 00 00 00 00 00 00 00 ..B.............
004280D0 00 00 00 00 00 00 00 00 01 00 00 00 00 00 00 00 ................
004280E0 22 05 93 19 00 00 00 00 00 00 00 00 00 00 00 00 "...............
004280F0 00 00 00 00 00 00 00 00 00 00 00 00 00 00 00 00 ................
00428100 05 00 00 00 00 00 00 00 FF FF FF FF 00 17 42 00 ..............B.
00428110 22 05 93 19 01 00 00 00 08 81 42 00 00 00 00 00 ".........B.....
00428120 00 00 00 00 00 00 00 00 00 00 00 00 00 00 00 00 ................
00428130 01 00 00 00 00 00 00 00 22 05 93 19 00 00 00 00 ........".......
00428140 00 00 00 00 00 00 00 00 00 00 00 00 00 00 00 00 ................
00428150 00 00 00 00 00 00 00 00 05 00 00 00 00 00 00 00 ................
00428160 22 05 93 19 00 00 00 00 00 00 00 00 00 00 00 00 "...............
00428170 00 00 00 00 00 00 00 00 00 00 00 00 00 00 00 00 ................
00428180 05 00 00 00 00 00 00 00 22 05 93 19 00 00 00 00 ........".......
00428190 00 00 00 00 00 00 00 00 00 00 00 00 00 00 00 00 ................
004281A0 00 00 00 00 00 00 00 00 05 00 00 00 00 00 00 00 ................
004281B0 22 05 93 19 00 00 00 00 00 00 00 00 00 00 00 00 "...............
004281C0 00 00 00 00 00 00 00 00 00 00 00 00 00 00 00 00 ................
004281D0 05 00 00 00 00 00 00 00 22 05 93 19 00 00 00 00 ........".......
004281E0 00 00 00 00 00 00 00 00 00 00 00 00 00 00 00 00 ................
004281F0 00 00 00 00 00 00 00 00 05 00 00 00 00 00 00 00 ................
00428200 22 05 93 19 00 00 00 00 00 00 00 00 00 00 00 00 "...............
00428210 00 00 00 00 00 00 00 00 00 00 00 00 00 00 00 00 ................
00428220 05 00 00 00 00 00 00 00 22 05 93 19 00 00 00 00 ........".......
00428230 00 00 00 00 00 00 00 00 00 00 00 00 00 00 00 00 ................
00428240 00 00 00 00 00 00 00 00 05 00 00 00 00 00 00 00 ................
00428250 22 05 93 19 00 00 00 00 00 00 00 00 00 00 00 00 "...............
00428260 00 00 00 00 00 00 00 00 00 00 00 00 00 00 00 00 ................
00428270 05 00 00 00 00 00 00 00 22 05 93 19 00 00 00 00 ........".......
00428280 00 00 00 00 00 00 00 00 00 00 00 00 00 00 00 00 ................
00428290 00 00 00 00 00 00 00 00 05 00 00 00 00 00 00 00 ................
004282A0 22 05 93 19 00 00 00 00 00 00 00 00 00 00 00 00 "...............
004282B0 00 00 00 00 00 00 00 00 00 00 00 00 00 00 00 00 ................
004282C0 05 00 00 00 00 00 00 00 FF FF FF FF 60 1C 42 00 ............`.B.
004282D0 22 05 93 19 01 00 00 00 C8 82 42 00 00 00 00 00 ".........B.....
004282E0 00 00 00 00 00 00 00 00 00 00 00 00 00 00 00 00 ................
004282F0 01 00 00 00 00 00 00 00 40 00 00 00 00 00 00 00 ........@.......
00428300 00 00 00 00 FF 39 41 00 01 00 00 00 01 00 00 00 .....9A.........
00428310 02 00 00 00 01 00 00 00 F8 82 42 00 FF FF FF FF ..........B.....
00428320 30 12 42 00 00 00 00 00 00 00 00 00 00 00 00 00 0.B.............
00428330 00 00 00 00 22 05 93 19 03 00 00 00 1C 83 42 00 ....".........B.
00428340 01 00 00 00 08 83 42 00 00 00 00 00 00 00 00 00 ......B.........
00428350 00 00 00 00 01 00 00 00 00 00 00 00 00 00 00 00 ................
00428360 00 00 00 00 40 00 00 00 00 00 00 00 00 00 00 00 ....@...........
00428370 F4 3F 41 00 01 00 00 00 01 00 00 00 02 00 00 00 .?A.............
00428380 01 00 00 00 64 83 42 00 FF FF FF FF 70 12 42 00 ....d.B.....p.B.
00428390 00 00 00 00 00 00 00 00 00 00 00 00 00 00 00 00 ................
004283A0 22 05 93 19 03 00 00 00 88 83 42 00 01 00 00 00 ".........B.....
004283B0 74 83 42 00 00 00 00 00 00 00 00 00 00 00 00 00 t.B.............
004283C0 01 00 00 00 00 00 00 00 00 00 00 00 00 00 00 00 ................
004283D0 FF FF FF FF 20 1F 42 00 00 00 00 00 28 1F 42 00 .... .B.....(.B.
004283E0 01 00 00 00 30 1F 42 00 02 00 00 00 38 1F 42 00 ....0.B.....8.B.
004283F0 22 05 93 19 04 00 00 00 D0 83 42 00 00 00 00 00 ".........B.....
00428400 00 00 00 00 00 00 00 00 00 00 00 00 00 00 00 00 ................
00428410 01 00 00 00 00 00 00 00 00 00 00 00 FF FF FF FF ................
00428420 E0 12 42 00 22 05 93 19 01 00 00 00 1C 84 42 00 ..B.".........B.
00428430 00 00 00 00 00 00 00 00 00 00 00 00 00 00 00 00 ................
00428440 00 00 00 00 01 00 00 00 00 00 00 00 FF FF FF FF ................
00428450 20 1D 42 00 22 05 93 19 01 00 00 00 4C 84 42 00  .B.".......L.B.
00428460 00 00 00 00 00 00 00 00 00 00 00 00 00 00 00 00 ................
00428470 00 00 00 00 01 00 00 00 00 00 00 00 22 05 93 19 ............"...
00428480 00 00 00 00 00 00 00 00 00 00 00 00 00 00 00 00 ................
00428490 00 00 00 00 00 00 00 00 00 00 00 00 05 00 00 00 ................
004284A0 00 00 00 00 22 05 93 19 00 00 00 00 00 00 00 00 ...."...........
004284B0 00 00 00 00 00 00 00 00 00 00 00 00 00 00 00 00 ................
004284C0 00 00 00 00 05 00 00 00 00 00 00 00 22 05 93 19 ............"...
004284D0 00 00 00 00 00 00 00 00 00 00 00 00 00 00 00 00 ................
004284E0 00 00 00 00 00 00 00 00 00 00 00 00 05 00 00 00 ................
004284F0 00 00 00 00 FF FF FF FF 00 12 42 00 22 05 93 19 ..........B."...
00428500 01 00 00 00 F4 84 42 00 00 00 00 00 00 00 00 00 ......B.........
00428510 00 00 00 00 00 00 00 00 00 00 00 00 01 00 00 00 ................
00428520 00 00 00 00 22 05 93 19 00 00 00 00 00 00 00 00 ...."...........
00428530 00 00 00 00 00 00 00 00 00 00 00 00 00 00 00 00 ................
00428540 00 00 00 00 05 00 00 00 00 00 00 00 22 05 93 19 ............"...
00428550 00 00 00 00 00 00 00 00 00 00 00 00 00 00 00 00 ................
00428560 00 00 00 00 00 00 00 00 00 00 00 00 05 00 00 00 ................
00428570 00 00 00 00 22 05 93 19 00 00 00 00 00 00 00 00 ...."...........
00428580 00 00 00 00 00 00 00 00 00 00 00 00 00 00 00 00 ................
00428590 00 00 00 00 05 00 00 00 00 00 00 00 22 05 93 19 ............"...
004285A0 00 00 00 00 00 00 00 00 00 00 00 00 00 00 00 00 ................
004285B0 00 00 00 00 00 00 00 00 00 00 00 00 05 00 00 00 ................
004285C0 00 00 00 00 22 05 93 19 00 00 00 00 00 00 00 00 ...."...........
004285D0 00 00 00 00 00 00 00 00 00 00 00 00 00 00 00 00 ................
004285E0 00 00 00 00 05 00 00 00 00 00 00 00 22 05 93 19 ............"...
004285F0 00 00 00 00 00 00 00 00 00 00 00 00 00 00 00 00 ................
00428600 00 00 00 00 00 00 00 00 00 00 00 00 05 00 00 00 ................
00428610 00 00 00 00 22 05 93 19 00 00 00 00 00 00 00 00 ...."...........
00428620 00 00 00 00 00 00 00 00 00 00 00 00 00 00 00 00 ................
00428630 00 00 00 00 05 00 00 00 00 00 00 00 FF FF FF FF ................
00428640 C0 17 42 00 22 05 93 19 01 00 00 00 3C 86 42 00 ..B.".......<.B.
00428650 00 00 00 00 00 00 00 00 00 00 00 00 00 00 00 00 ................
00428660 00 00 00 00 01 00 00 00 00 00 00 00 22 05 93 19 ............"...
00428670 00 00 00 00 00 00 00 00 00 00 00 00 00 00 00 00 ................
00428680 00 00 00 00 00 00 00 00 00 00 00 00 05 00 00 00 ................
00428690 00 00 00 00 40 00 00 00 00 00 00 00 00 00 00 00 ....@...........
004286A0 AB 4B 41 00 01 00 00 00 01 00 00 00 02 00 00 00 .KA.............
004286B0 01 00 00 00 94 86 42 00 FF FF FF FF 20 13 42 00 ......B..... .B.
004286C0 00 00 00 00 00 00 00 00 00 00 00 00 00 00 00 00 ................
004286D0 22 05 93 19 03 00 00 00 B8 86 42 00 01 00 00 00 ".........B.....
004286E0 A4 86 42 00 00 00 00 00 00 00 00 00 00 00 00 00 ..B.............
004286F0 01 00 00 00 00 00 00 00 00 00 00 00 00 00 00 00 ................
00428700 22 05 93 19 00 00 00 00 00 00 00 00 00 00 00 00 "...............
00428710 00 00 00 00 00 00 00 00 00 00 00 00 00 00 00 00 ................
00428720 05 00 00 00 00 00 00 00 40 00 00 00 00 00 00 00 ........@.......
00428730 00 00 00 00 C0 61 41 00 01 00 00 00 01 00 00 00 .....aA.........
00428740 02 00 00 00 01 00 00 00 28 87 42 00 FF FF FF FF ........(.B.....
00428750 70 15 42 00 00 00 00 00 00 00 00 00 00 00 00 00 p.B.............
00428760 00 00 00 00 22 05 93 19 03 00 00 00 4C 87 42 00 ....".......L.B.
00428770 01 00 00 00 38 87 42 00 00 00 00 00 00 00 00 00 ....8.B.........
00428780 00 00 00 00 01 00 00 00 00 00 00 00 00 00 00 00 ................
00428790 00 00 00 00 22 05 93 19 00 00 00 00 00 00 00 00 ...."...........
004287A0 00 00 00 00 00 00 00 00 00 00 00 00 00 00 00 00 ................
004287B0 00 00 00 00 05 00 00 00 00 00 00 00 22 05 93 19 ............"...
004287C0 00 00 00 00 00 00 00 00 00 00 00 00 00 00 00 00 ................
004287D0 00 00 00 00 00 00 00 00 00 00 00 00 05 00 00 00 ................
004287E0 00 00 00 00 22 05 93 19 00 00 00 00 00 00 00 00 ...."...........
004287F0 00 00 00 00 00 00 00 00 00 00 00 00 00 00 00 00 ................
00428800 00 00 00 00 05 00 00 00 00 00 00 00 22 05 93 19 ............"...
00428810 00 00 00 00 00 00 00 00 00 00 00 00 00 00 00 00 ................
00428820 00 00 00 00 00 00 00 00 00 00 00 00 05 00 00 00 ................
00428830 00 00 00 00 22 05 93 19 00 00 00 00 00 00 00 00 ...."...........
00428840 00 00 00 00 00 00 00 00 00 00 00 00 00 00 00 00 ................
00428850 00 00 00 00 05 00 00 00 00 00 00 00 22 05 93 19 ............"...
00428860 00 00 00 00 00 00 00 00 00 00 00 00 00 00 00 00 ................
00428870 00 00 00 00 00 00 00 00 00 00 00 00 05 00 00 00 ................
00428880 00 00 00 00 FF FF FF FF 90 17 42 00 22 05 93 19 ..........B."...
00428890 01 00 00 00 84 88 42 00 00 00 00 00 00 00 00 00 ......B.........
004288A0 00 00 00 00 00 00 00 00 00 00 00 00 01 00 00 00 ................
004288B0 00 00 00 00 00 00 00 00 FE FF FF FF 00 00 00 00 ................
004288C0 CC FF FF FF 00 00 00 00 FE FF FF FF 00 00 00 00 ................
004288D0 C7 C1 41 00 00 00 00 00 FE FF FF FF 00 00 00 00 ..A.............
004288E0 CC FF FF FF 00 00 00 00 FE FF FF FF 00 00 00 00 ................
004288F0 EF C2 41 00 00 00 00 00 FE FF FF FF 00 00 00 00 ..A.............
00428900 D0 FF FF FF 00 00 00 00 FE FF FF FF 1D C4 41 00 ..............A.
00428910 2A C4 41 00 00 00 00 00 FE FF FF FF 00 00 00 00 *.A.............
00428920 B8 FF FF FF 00 00 00 00 FE FF FF FF 46 CB 41 00 ............F.A.
00428930 6D CB 41 00 00 00 00 00 FE FF FF FF 00 00 00 00 m.A.............
00428940 AC FF FF FF 00 00 00 00 FE FF FF FF C3 D3 41 00 ..............A.
00428950 DE D3 41 00 00 00 00 00 00 00 00 00 90 16 41 00 ..A...........A.
00428960 00 00 00 00 6C 89 42 00 00 00 00 00 02 00 00 00 ....l.B.........
00428970 7C 89 42 00 9C 89 42 00 00 00 00 00 10 00 00 00 |.B...B.........
00428980 48 91 42 00 00 00 00 00 FF FF FF FF 00 00 00 00 H.B.............
00428990 0C 00 00 00 7B 17 41 00 00 00 00 00 00 00 00 00 ....{.A.........
004289A0 6C 91 42 00 00 00 00 00 FF FF FF FF 00 00 00 00 l.B.............
004289B0 0C 00 00 00 18 11 41 00 00 00 00 00 00 00 00 00 ......A.........
004289C0 6B 13 41 00 00 00 00 00 D0 89 42 00 00 00 00 00 k.A.......B.....
004289D0 03 00 00 00 E4 89 42 00 7C 89 42 00 9C 89 42 00 ......B.|.B...B.
004289E0 00 00 00 00 00 00 00 00 90 91 42 00 00 00 00 00 ..........B.....
004289F0 FF FF FF FF 00 00 00 00 0C 00 00 00 EF 11 41 00 ..............A.
00428A00 00 00 00 00 00 00 00 00 FE FF FF FF 00 00 00 00 ................
00428A10 D8 FF FF FF 00 00 00 00 FE FF FF FF 7E E7 41 00 ............~.A.
00428A20 91 E7 41 00 00 00 00 00 00 00 00 00 00 00 00 00 ..A.............
00428A30 00 00 00 00 00 00 00 00 00 00 00 00 00 00 00 00 ................
; ...
;;; Segment .data (00429000)
00429000 72 00 00 00 02 00 00 00 FF FF FF FF 00 00 00 00 r...............
00429010 B1 19 BF 44 4E E6 40 BB 00 00 00 00 01 00 00 00 ...DN.@.........
00429020 01 00 00 00 01 00 00 00 01 00 00 00 01 00 00 00 ................
00429030 01 00 00 00 00 00 00 00 01 00 00 00 01 00 00 00 ................
00429040 00 00 00 00 00 00 00 00 00 00 00 00 00 00 00 00 ................
; ...
00429140 00 00 00 00 00 00 00 00 64 6D 42 00 00 00 00 00 ........dmB.....
00429150 2E 3F 41 56 62 61 64 5F 61 6C 6C 6F 63 40 73 74 .?AVbad_alloc@st
00429160 64 40 40 00 00 00 00 00 00 00 00 00 64 6D 42 00 d@@.........dmB.
00429170 00 00 00 00 2E 3F 41 56 65 78 63 65 70 74 69 6F .....?AVexceptio
00429180 6E 40 73 74 64 40 40 00 00 00 00 00 00 00 00 00 n@std@@.........
00429190 64 6D 42 00 00 00 00 00 2E 3F 41 56 62 61 64 5F dmB......?AVbad_
004291A0 61 72 72 61 79 5F 6E 65 77 5F 6C 65 6E 67 74 68 array_new_length
004291B0 40 73 74 64 40 40 00 00 00 00 00 00 00 00 00 00 @std@@..........
004291C0 64 6D 42 00 00 00 00 00 2E 3F 41 56 74 79 70 65 dmB......?AVtype
004291D0 5F 69 6E 66 6F 40 40 00 00 00 00 00 00 00 00 00 _info@@.........
004291E0 00 00 00 00 00 00 00 00 00 00 00 00 00 00 00 00 ................
; ...
;;; Segment .idata (0042A000)
__imp__GetCurrentThreadId		; 0042A000
	dd	0x0002AF40
__imp__IsProcessorFeaturePresent		; 0042A004
	dd	0x0002AF56
__imp__IsDebuggerPresent		; 0042A008
	dd	0x0002AF72
__imp__UnhandledExceptionFilter		; 0042A00C
	dd	0x0002AF86
__imp__SetUnhandledExceptionFilter		; 0042A010
	dd	0x0002AFA2
__imp__GetStartupInfoW		; 0042A014
	dd	0x0002AFC0
__imp__GetModuleHandleW		; 0042A018
	dd	0x0002AFD2
__imp__RaiseException		; 0042A01C
	dd	0x0002AFE6
__imp__MultiByteToWideChar		; 0042A020
	dd	0x0002AFF8
__imp__WideCharToMultiByte		; 0042A024
	dd	0x0002B00E
__imp__GetCurrentProcess		; 0042A028
	dd	0x0002B024
__imp__TerminateProcess		; 0042A02C
	dd	0x0002B038
__imp__QueryPerformanceCounter		; 0042A030
	dd	0x0002B04C
__imp__GetCurrentProcessId		; 0042A034
	dd	0x0002B066
__imp__GetSystemTimeAsFileTime		; 0042A038
	dd	0x0002B07C
__imp__InitializeSListHead		; 0042A03C
	dd	0x0002B096
__imp__GetLastError		; 0042A040
	dd	0x0002B0AC
__imp__HeapAlloc		; 0042A044
	dd	0x0002B0BC
__imp__HeapFree		; 0042A048
	dd	0x0002B0C8
__imp__GetProcessHeap		; 0042A04C
	dd	0x0002B0D4
__imp__VirtualQuery		; 0042A050
	dd	0x0002B0E6
__imp__FreeLibrary		; 0042A054
	dd	0x0002B0F6
__imp__GetProcAddress		; 0042A058
	dd	0x0002B104
0042A05C                                     00 00 00 00             ....
0042A060 00 00 00 00 00 00 00 00 00 00 00 00 00 00 00 00 ................
; ...
0042A090 00 00 00 00 00 00 00 00                         ........       
__imp__?_Ipfx@?$basic_istream@DU?$char_traits@D@std@@@std@@QAE_N_N@Z		; 0042A098
	dd	0x0002AA7E
__imp__?cout@std@@3V?$basic_ostream@DU?$char_traits@D@std@@@1@A		; 0042A09C
	dd	0x0002AAF8
__imp__?flush@?$basic_ostream@DU?$char_traits@D@std@@@std@@QAEAAV12@XZ		; 0042A0A0
	dd	0x0002AA3C
__imp__?put@?$basic_ostream@DU?$char_traits@D@std@@@std@@QAEAAV12@D@Z		; 0042A0A4
	dd	0x0002A9FA
__imp__??6?$basic_ostream@DU?$char_traits@D@std@@@std@@QAEAAV01@P6AAAV01@AAV01@@Z@Z		; 0042A0A8
	dd	0x0002A9AA
__imp__?_Osfx@?$basic_ostream@DU?$char_traits@D@std@@@std@@QAEXXZ		; 0042A0AC
	dd	0x0002A96C
__imp__?widen@?$basic_ios@DU?$char_traits@D@std@@@std@@QBEDD@Z		; 0042A0B0
	dd	0x0002A932
__imp__?fill@?$basic_ios@DU?$char_traits@D@std@@@std@@QBEDXZ		; 0042A0B4
	dd	0x0002A8FA
__imp__?rdbuf@?$basic_ios@DU?$char_traits@D@std@@@std@@QBEPAV?$basic_streambuf@DU?$char_traits@D@std@@@2@XZ		; 0042A0B8
	dd	0x0002A892
__imp__?tie@?$basic_ios@DU?$char_traits@D@std@@@std@@QBEPAV?$basic_ostream@DU?$char_traits@D@std@@@2@XZ		; 0042A0BC
	dd	0x0002A82E
__imp__?setstate@?$basic_ios@DU?$char_traits@D@std@@@std@@QAEXH_N@Z		; 0042A0C0
	dd	0x0002A7EE
__imp__?sputn@?$basic_streambuf@DU?$char_traits@D@std@@@std@@QAE_JPBD_J@Z		; 0042A0C4
	dd	0x0002A7A8
__imp__?sputc@?$basic_streambuf@DU?$char_traits@D@std@@@std@@QAEHD@Z		; 0042A0C8
	dd	0x0002A768
__imp__?snextc@?$basic_streambuf@DU?$char_traits@D@std@@@std@@QAEHXZ		; 0042A0CC
	dd	0x0002A728
__imp__?sgetc@?$basic_streambuf@DU?$char_traits@D@std@@@std@@QAEHXZ		; 0042A0D0
	dd	0x0002A6E8
__imp__?sbumpc@?$basic_streambuf@DU?$char_traits@D@std@@@std@@QAEHXZ		; 0042A0D4
	dd	0x0002A6A8
__imp__?width@ios_base@std@@QAE_J_J@Z		; 0042A0D8
	dd	0x0002A686
__imp__?width@ios_base@std@@QBE_JXZ		; 0042A0DC
	dd	0x0002A666
__imp__?flags@ios_base@std@@QBEHXZ		; 0042A0E0
	dd	0x0002A648
__imp__?good@ios_base@std@@QBE_NXZ		; 0042A0E4
	dd	0x0002A62A
__imp__?_Xout_of_range@std@@YAXPBD@Z		; 0042A0E8
	dd	0x0002A60A
__imp__?_Xlength_error@std@@YAXPBD@Z		; 0042A0EC
	dd	0x0002A5EA
__imp__?uncaught_exception@std@@YA_NXZ		; 0042A0F0
	dd	0x0002A5C8
__imp__??1_Lockit@std@@QAE@XZ		; 0042A0F4
	dd	0x0002A5AE
__imp__?cin@std@@3V?$basic_istream@DU?$char_traits@D@std@@@1@A		; 0042A0F8
	dd	0x0002AABE
__imp__??0_Lockit@std@@QAE@H@Z		; 0042A0FC
	dd	0x0002A594
0042A100 00 00 00 00 00 00 00 00 00 00 00 00 00 00 00 00 ................
; ...
__imp__memmove		; 0042A140
	dd	0x0002AB56
__imp____CxxFrameHandler3		; 0042A144
	dd	0x0002AB60
__imp___except_handler4_common		; 0042A148
	dd	0x0002AB76
__imp____std_exception_copy		; 0042A14C
	dd	0x0002AB90
__imp____std_exception_destroy		; 0042A150
	dd	0x0002ABA8
__imp___CxxThrowException		; 0042A154
	dd	0x0002ABC2
__imp__memset		; 0042A158
	dd	0x0002ABD8
__imp____std_type_info_destroy_list		; 0042A15C
	dd	0x0002ABE2
__imp____vcrt_GetModuleFileNameW		; 0042A160
	dd	0x0002AC02
__imp____vcrt_GetModuleHandleW		; 0042A164
	dd	0x0002AC1E
__imp____vcrt_LoadLibraryExW		; 0042A168
	dd	0x0002AC38
__imp__memcmp		; 0042A16C
	dd	0x0002AB42
__imp__memcpy		; 0042A170
	dd	0x0002AB4C
0042A174             00 00 00 00 00 00 00 00 00 00 00 00     ............
0042A180 00 00 00 00 00 00 00 00 00 00 00 00 00 00 00 00 ................
; ...
0042A1A0 00 00 00 00 00 00 00 00                         ........       
__imp___exit		; 0042A1A8
	dd	0x0002AE16
__imp___set_fmode		; 0042A1AC
	dd	0x0002AE1E
__imp____p___argc		; 0042A1B0
	dd	0x0002AE2C
__imp____p___argv		; 0042A1B4
	dd	0x0002AE3A
__imp___c_exit		; 0042A1B8
	dd	0x0002AE48
__imp___register_thread_local_exe_atexit_callback		; 0042A1BC
	dd	0x0002AE52
__imp___configthreadlocale		; 0042A1C0
	dd	0x0002AE80
__imp___set_new_mode		; 0042A1C4
	dd	0x0002AE96
__imp____p__commode		; 0042A1C8
	dd	0x0002AEA6
__imp___free_dbg		; 0042A1CC
	dd	0x0002AEB6
__imp__strcpy_s		; 0042A1D0
	dd	0x0002AEC2
__imp__strcat_s		; 0042A1D4
	dd	0x0002AECE
__imp___initterm_e		; 0042A1D8
	dd	0x0002AE00
__imp___controlfp_s		; 0042A1DC
	dd	0x0002AEF6
__imp___wmakepath_s		; 0042A1E0
	dd	0x0002AF06
__imp___wsplitpath_s		; 0042A1E4
	dd	0x0002AF16
__imp__wcscpy_s		; 0042A1E8
	dd	0x0002AF26
__imp___initterm		; 0042A1EC
	dd	0x0002ADF4
__imp___seh_filter_dll		; 0042A1F0
	dd	0x0002ACBE
__imp__malloc		; 0042A1F4
	dd	0x0002ACB4
__imp___callnewh		; 0042A1F8
	dd	0x0002ACA8
__imp__terminate		; 0042A1FC
	dd	0x0002AC9C
__imp__strlen		; 0042A200
	dd	0x0002AC92
__imp__system		; 0042A204
	dd	0x0002AC88
__imp___CrtDbgReport		; 0042A208
	dd	0x0002AC78
__imp___invalid_parameter		; 0042A20C
	dd	0x0002AC62
__imp__exit		; 0042A210
	dd	0x0002AE0E
__imp___get_initial_narrow_environment		; 0042A214
	dd	0x0002ADD2
__imp____setusermatherr		; 0042A218
	dd	0x0002ADBE
__imp___set_app_type		; 0042A21C
	dd	0x0002ADAE
__imp___seh_filter_exe		; 0042A220
	dd	0x0002AD9C
__imp___CrtDbgReportW		; 0042A224
	dd	0x0002AD8A
__imp___cexit		; 0042A228
	dd	0x0002AD80
__imp___crt_at_quick_exit		; 0042A22C
	dd	0x0002AD6A
__imp___crt_atexit		; 0042A230
	dd	0x0002AD5C
__imp___configure_narrow_argv		; 0042A234
	dd	0x0002ACD0
__imp___register_onexit_function		; 0042A238
	dd	0x0002AD28
__imp___initialize_onexit_table		; 0042A23C
	dd	0x0002AD0C
__imp____stdio_common_vsprintf_s		; 0042A240
	dd	0x0002AEDA
__imp___initialize_narrow_environment		; 0042A244
	dd	0x0002ACEA
__imp___execute_onexit_table		; 0042A248
	dd	0x0002AD44
0042A24C                                     00 00 00 00             ....
0042A250 00 00 00 00 00 00 00 00 00 00 00 00 00 00 00 00 ................
; ...
0042A290 00 00 00 00 00 00 00 00 94 A3 02 00 00 00 00 00 ................
0042A2A0 00 00 00 00 34 AB 02 00 98 A0 02 00 3C A4 02 00 ....4.......<...
0042A2B0 00 00 00 00 00 00 00 00 50 AC 02 00 40 A1 02 00 ........P...@...
0042A2C0 A4 A4 02 00 00 00 00 00 00 00 00 00 32 AF 02 00 ............2...
0042A2D0 A8 A1 02 00 FC A2 02 00 00 00 00 00 00 00 00 00 ................
0042A2E0 16 B1 02 00 00 A0 02 00 00 00 00 00 00 00 00 00 ................
0042A2F0 00 00 00 00 00 00 00 00 00 00 00 00             ............   
l0042A2FC	dd	0x0002AF40
l0042A300	dd	0x0002AF56
l0042A304	dd	0x0002AF72
l0042A308	dd	0x0002AF86
l0042A30C	dd	0x0002AFA2
l0042A310	dd	0x0002AFC0
l0042A314	dd	0x0002AFD2
l0042A318	dd	0x0002AFE6
l0042A31C	dd	0x0002AFF8
l0042A320	dd	0x0002B00E
l0042A324	dd	0x0002B024
l0042A328	dd	0x0002B038
l0042A32C	dd	0x0002B04C
l0042A330	dd	0x0002B066
l0042A334	dd	0x0002B07C
l0042A338	dd	0x0002B096
l0042A33C	dd	0x0002B0AC
l0042A340	dd	0x0002B0BC
l0042A344	dd	0x0002B0C8
l0042A348	dd	0x0002B0D4
l0042A34C	dd	0x0002B0E6
l0042A350	dd	0x0002B0F6
l0042A354	dd	0x0002B104
0042A358                         00 00 00 00 00 00 00 00         ........
0042A360 00 00 00 00 00 00 00 00 00 00 00 00 00 00 00 00 ................
; ...
0042A390 00 00 00 00                                     ....           
l0042A394	dd	0x0002AA7E
l0042A398	dd	0x0002AAF8
l0042A39C	dd	0x0002AA3C
l0042A3A0	dd	0x0002A9FA
l0042A3A4	dd	0x0002A9AA
l0042A3A8	dd	0x0002A96C
l0042A3AC	dd	0x0002A932
l0042A3B0	dd	0x0002A8FA
l0042A3B4	dd	0x0002A892
l0042A3B8	dd	0x0002A82E
l0042A3BC	dd	0x0002A7EE
l0042A3C0	dd	0x0002A7A8
l0042A3C4	dd	0x0002A768
l0042A3C8	dd	0x0002A728
l0042A3CC	dd	0x0002A6E8
l0042A3D0	dd	0x0002A6A8
l0042A3D4	dd	0x0002A686
l0042A3D8	dd	0x0002A666
l0042A3DC	dd	0x0002A648
l0042A3E0	dd	0x0002A62A
l0042A3E4	dd	0x0002A60A
l0042A3E8	dd	0x0002A5EA
l0042A3EC	dd	0x0002A5C8
l0042A3F0	dd	0x0002A5AE
l0042A3F4	dd	0x0002AABE
l0042A3F8	dd	0x0002A594
0042A3FC                                     00 00 00 00             ....
0042A400 00 00 00 00 00 00 00 00 00 00 00 00 00 00 00 00 ................
; ...
0042A430 00 00 00 00 00 00 00 00 00 00 00 00             ............   
l0042A43C	dd	0x0002AB56
l0042A440	dd	0x0002AB60
l0042A444	dd	0x0002AB76
l0042A448	dd	0x0002AB90
l0042A44C	dd	0x0002ABA8
l0042A450	dd	0x0002ABC2
l0042A454	dd	0x0002ABD8
l0042A458	dd	0x0002ABE2
l0042A45C	dd	0x0002AC02
l0042A460	dd	0x0002AC1E
l0042A464	dd	0x0002AC38
l0042A468	dd	0x0002AB42
l0042A46C	dd	0x0002AB4C
0042A470 00 00 00 00 00 00 00 00 00 00 00 00 00 00 00 00 ................
; ...
0042A4A0 00 00 00 00                                     ....           
l0042A4A4	dd	0x0002AE16
l0042A4A8	dd	0x0002AE1E
l0042A4AC	dd	0x0002AE2C
l0042A4B0	dd	0x0002AE3A
l0042A4B4	dd	0x0002AE48
l0042A4B8	dd	0x0002AE52
l0042A4BC	dd	0x0002AE80
l0042A4C0	dd	0x0002AE96
l0042A4C4	dd	0x0002AEA6
l0042A4C8	dd	0x0002AEB6
l0042A4CC	dd	0x0002AEC2
l0042A4D0	dd	0x0002AECE
l0042A4D4	dd	0x0002AE00
l0042A4D8	dd	0x0002AEF6
l0042A4DC	dd	0x0002AF06
l0042A4E0	dd	0x0002AF16
l0042A4E4	dd	0x0002AF26
l0042A4E8	dd	0x0002ADF4
l0042A4EC	dd	0x0002ACBE
l0042A4F0	dd	0x0002ACB4
l0042A4F4	dd	0x0002ACA8
l0042A4F8	dd	0x0002AC9C
l0042A4FC	dd	0x0002AC92
l0042A500	dd	0x0002AC88
l0042A504	dd	0x0002AC78
l0042A508	dd	0x0002AC62
l0042A50C	dd	0x0002AE0E
l0042A510	dd	0x0002ADD2
l0042A514	dd	0x0002ADBE
l0042A518	dd	0x0002ADAE
l0042A51C	dd	0x0002AD9C
l0042A520	dd	0x0002AD8A
l0042A524	dd	0x0002AD80
l0042A528	dd	0x0002AD6A
l0042A52C	dd	0x0002AD5C
l0042A530	dd	0x0002ACD0
l0042A534	dd	0x0002AD28
l0042A538	dd	0x0002AD0C
l0042A53C	dd	0x0002AEDA
l0042A540	dd	0x0002ACEA
l0042A544	dd	0x0002AD44
0042A548                         00 00 00 00 00 00 00 00         ........
0042A550 00 00 00 00 00 00 00 00 00 00 00 00 00 00 00 00 ................
; ...
0042A590 00 00 00 00 6D 00 3F 3F 30 5F 4C 6F 63 6B 69 74 ....m.??0_Lockit
0042A5A0 40 73 74 64 40 40 51 41 45 40 48 40 5A 00 A5 00 @std@@QAE@H@Z...
0042A5B0 3F 3F 31 5F 4C 6F 63 6B 69 74 40 73 74 64 40 40 ??1_Lockit@std@@
0042A5C0 51 41 45 40 58 5A 00 00 26 05 3F 75 6E 63 61 75 QAE@XZ..&.?uncau
0042A5D0 67 68 74 5F 65 78 63 65 70 74 69 6F 6E 40 73 74 ght_exception@st
0042A5E0 64 40 40 59 41 5F 4E 58 5A 00 96 02 3F 5F 58 6C d@@YA_NXZ...?_Xl
0042A5F0 65 6E 67 74 68 5F 65 72 72 6F 72 40 73 74 64 40 ength_error@std@
0042A600 40 59 41 58 50 42 44 40 5A 00 97 02 3F 5F 58 6F @YAXPBD@Z...?_Xo
0042A610 75 74 5F 6F 66 5F 72 61 6E 67 65 40 73 74 64 40 ut_of_range@std@
0042A620 40 59 41 58 50 42 44 40 5A 00 CD 03 3F 67 6F 6F @YAXPBD@Z...?goo
0042A630 64 40 69 6F 73 5F 62 61 73 65 40 73 74 64 40 40 d@ios_base@std@@
0042A640 51 42 45 5F 4E 58 5A 00 6F 03 3F 66 6C 61 67 73 QBE_NXZ.o.?flags
0042A650 40 69 6F 73 5F 62 61 73 65 40 73 74 64 40 40 51 @ios_base@std@@Q
0042A660 42 45 48 58 5A 00 46 05 3F 77 69 64 74 68 40 69 BEHXZ.F.?width@i
0042A670 6F 73 5F 62 61 73 65 40 73 74 64 40 40 51 42 45 os_base@std@@QBE
0042A680 5F 4A 58 5A 00 00 45 05 3F 77 69 64 74 68 40 69 _JXZ..E.?width@i
0042A690 6F 73 5F 62 61 73 65 40 73 74 64 40 40 51 41 45 os_base@std@@QAE
0042A6A0 5F 4A 5F 4A 40 5A 00 00 9D 04 3F 73 62 75 6D 70 _J_J@Z....?sbump
0042A6B0 63 40 3F 24 62 61 73 69 63 5F 73 74 72 65 61 6D c@?$basic_stream
0042A6C0 62 75 66 40 44 55 3F 24 63 68 61 72 5F 74 72 61 buf@DU?$char_tra
0042A6D0 69 74 73 40 44 40 73 74 64 40 40 40 73 74 64 40 its@D@std@@@std@
0042A6E0 40 51 41 45 48 58 5A 00 D7 04 3F 73 67 65 74 63 @QAEHXZ...?sgetc
0042A6F0 40 3F 24 62 61 73 69 63 5F 73 74 72 65 61 6D 62 @?$basic_streamb
0042A700 75 66 40 44 55 3F 24 63 68 61 72 5F 74 72 61 69 uf@DU?$char_trai
0042A710 74 73 40 44 40 73 74 64 40 40 40 73 74 64 40 40 ts@D@std@@@std@@
0042A720 51 41 45 48 58 5A 00 00 E0 04 3F 73 6E 65 78 74 QAEHXZ....?snext
0042A730 63 40 3F 24 62 61 73 69 63 5F 73 74 72 65 61 6D c@?$basic_stream
0042A740 62 75 66 40 44 55 3F 24 63 68 61 72 5F 74 72 61 buf@DU?$char_tra
0042A750 69 74 73 40 44 40 73 74 64 40 40 40 73 74 64 40 its@D@std@@@std@
0042A760 40 51 41 45 48 58 5A 00 E6 04 3F 73 70 75 74 63 @QAEHXZ...?sputc
0042A770 40 3F 24 62 61 73 69 63 5F 73 74 72 65 61 6D 62 @?$basic_streamb
0042A780 75 66 40 44 55 3F 24 63 68 61 72 5F 74 72 61 69 uf@DU?$char_trai
0042A790 74 73 40 44 40 73 74 64 40 40 40 73 74 64 40 40 ts@D@std@@@std@@
0042A7A0 51 41 45 48 44 40 5A 00 E9 04 3F 73 70 75 74 6E QAEHD@Z...?sputn
0042A7B0 40 3F 24 62 61 73 69 63 5F 73 74 72 65 61 6D 62 @?$basic_streamb
0042A7C0 75 66 40 44 55 3F 24 63 68 61 72 5F 74 72 61 69 uf@DU?$char_trai
0042A7D0 74 73 40 44 40 73 74 64 40 40 40 73 74 64 40 40 ts@D@std@@@std@@
0042A7E0 51 41 45 5F 4A 50 42 44 5F 4A 40 5A 00 00 CD 04 QAE_JPBD_J@Z....
0042A7F0 3F 73 65 74 73 74 61 74 65 40 3F 24 62 61 73 69 ?setstate@?$basi
0042A800 63 5F 69 6F 73 40 44 55 3F 24 63 68 61 72 5F 74 c_ios@DU?$char_t
0042A810 72 61 69 74 73 40 44 40 73 74 64 40 40 40 73 74 raits@D@std@@@st
0042A820 64 40 40 51 41 45 58 48 5F 4E 40 5A 00 00 12 05 d@@QAEXH_N@Z....
0042A830 3F 74 69 65 40 3F 24 62 61 73 69 63 5F 69 6F 73 ?tie@?$basic_ios
0042A840 40 44 55 3F 24 63 68 61 72 5F 74 72 61 69 74 73 @DU?$char_traits
0042A850 40 44 40 73 74 64 40 40 40 73 74 64 40 40 51 42 @D@std@@@std@@QB
0042A860 45 50 41 56 3F 24 62 61 73 69 63 5F 6F 73 74 72 EPAV?$basic_ostr
0042A870 65 61 6D 40 44 55 3F 24 63 68 61 72 5F 74 72 61 eam@DU?$char_tra
0042A880 69 74 73 40 44 40 73 74 64 40 40 40 32 40 58 5A its@D@std@@@2@XZ
0042A890 00 00 8F 04 3F 72 64 62 75 66 40 3F 24 62 61 73 ....?rdbuf@?$bas
0042A8A0 69 63 5F 69 6F 73 40 44 55 3F 24 63 68 61 72 5F ic_ios@DU?$char_
0042A8B0 74 72 61 69 74 73 40 44 40 73 74 64 40 40 40 73 traits@D@std@@@s
0042A8C0 74 64 40 40 51 42 45 50 41 56 3F 24 62 61 73 69 td@@QBEPAV?$basi
0042A8D0 63 5F 73 74 72 65 61 6D 62 75 66 40 44 55 3F 24 c_streambuf@DU?$
0042A8E0 63 68 61 72 5F 74 72 61 69 74 73 40 44 40 73 74 char_traits@D@st
0042A8F0 64 40 40 40 32 40 58 5A 00 00 69 03 3F 66 69 6C d@@@2@XZ..i.?fil
0042A900 6C 40 3F 24 62 61 73 69 63 5F 69 6F 73 40 44 55 l@?$basic_ios@DU
0042A910 3F 24 63 68 61 72 5F 74 72 61 69 74 73 40 44 40 ?$char_traits@D@
0042A920 73 74 64 40 40 40 73 74 64 40 40 51 42 45 44 58 std@@@std@@QBEDX
0042A930 5A 00 3C 05 3F 77 69 64 65 6E 40 3F 24 62 61 73 Z.<.?widen@?$bas
0042A940 69 63 5F 69 6F 73 40 44 55 3F 24 63 68 61 72 5F ic_ios@DU?$char_
0042A950 74 72 61 69 74 73 40 44 40 73 74 64 40 40 40 73 traits@D@std@@@s
0042A960 74 64 40 40 51 42 45 44 44 40 5A 00 4C 02 3F 5F td@@QBEDD@Z.L.?_
0042A970 4F 73 66 78 40 3F 24 62 61 73 69 63 5F 6F 73 74 Osfx@?$basic_ost
0042A980 72 65 61 6D 40 44 55 3F 24 63 68 61 72 5F 74 72 ream@DU?$char_tr
0042A990 61 69 74 73 40 44 40 73 74 64 40 40 40 73 74 64 aits@D@std@@@std
0042A9A0 40 40 51 41 45 58 58 5A 00 00 0C 01 3F 3F 36 3F @@QAEXXZ....??6?
0042A9B0 24 62 61 73 69 63 5F 6F 73 74 72 65 61 6D 40 44 $basic_ostream@D
0042A9C0 55 3F 24 63 68 61 72 5F 74 72 61 69 74 73 40 44 U?$char_traits@D
0042A9D0 40 73 74 64 40 40 40 73 74 64 40 40 51 41 45 41 @std@@@std@@QAEA
0042A9E0 41 56 30 31 40 50 36 41 41 41 56 30 31 40 41 41 AV01@P6AAAV01@AA
0042A9F0 56 30 31 40 40 5A 40 5A 00 00 69 04 3F 70 75 74 V01@@Z@Z..i.?put
0042AA00 40 3F 24 62 61 73 69 63 5F 6F 73 74 72 65 61 6D @?$basic_ostream
0042AA10 40 44 55 3F 24 63 68 61 72 5F 74 72 61 69 74 73 @DU?$char_traits
0042AA20 40 44 40 73 74 64 40 40 40 73 74 64 40 40 51 41 @D@std@@@std@@QA
0042AA30 45 41 41 56 31 32 40 44 40 5A 00 00 70 03 3F 66 EAAV12@D@Z..p.?f
0042AA40 6C 75 73 68 40 3F 24 62 61 73 69 63 5F 6F 73 74 lush@?$basic_ost
0042AA50 72 65 61 6D 40 44 55 3F 24 63 68 61 72 5F 74 72 ream@DU?$char_tr
0042AA60 61 69 74 73 40 44 40 73 74 64 40 40 40 73 74 64 aits@D@std@@@std
0042AA70 40 40 51 41 45 41 41 56 31 32 40 58 5A 00 21 02 @@QAEAAV12@XZ.!.
0042AA80 3F 5F 49 70 66 78 40 3F 24 62 61 73 69 63 5F 69 ?_Ipfx@?$basic_i
0042AA90 73 74 72 65 61 6D 40 44 55 3F 24 63 68 61 72 5F stream@DU?$char_
0042AAA0 74 72 61 69 74 73 40 44 40 73 74 64 40 40 40 73 traits@D@std@@@s
0042AAB0 74 64 40 40 51 41 45 5F 4E 5F 4E 40 5A 00 AB 02 td@@QAE_N_N@Z...
0042AAC0 3F 63 69 6E 40 73 74 64 40 40 33 56 3F 24 62 61 ?cin@std@@3V?$ba
0042AAD0 73 69 63 5F 69 73 74 72 65 61 6D 40 44 55 3F 24 sic_istream@DU?$
0042AAE0 63 68 61 72 5F 74 72 61 69 74 73 40 44 40 73 74 char_traits@D@st
0042AAF0 64 40 40 40 31 40 41 00 BC 02 3F 63 6F 75 74 40 d@@@1@A...?cout@
0042AB00 73 74 64 40 40 33 56 3F 24 62 61 73 69 63 5F 6F std@@3V?$basic_o
0042AB10 73 74 72 65 61 6D 40 44 55 3F 24 63 68 61 72 5F stream@DU?$char_
0042AB20 74 72 61 69 74 73 40 44 40 73 74 64 40 40 40 31 traits@D@std@@@1
0042AB30 40 41 00 00 4D 53 56 43 50 31 34 30 44 2E 64 6C @A..MSVCP140D.dl
0042AB40 6C 00 45 00 6D 65 6D 63 6D 70 00 00 46 00 6D 65 l.E.memcmp..F.me
0042AB50 6D 63 70 79 00 00 47 00 6D 65 6D 6D 6F 76 65 00 mcpy..G.memmove.
0042AB60 10 00 5F 5F 43 78 78 46 72 61 6D 65 48 61 6E 64 ..__CxxFrameHand
0042AB70 6C 65 72 33 00 00 35 00 5F 65 78 63 65 70 74 5F ler3..5._except_
0042AB80 68 61 6E 64 6C 65 72 34 5F 63 6F 6D 6D 6F 6E 00 handler4_common.
0042AB90 21 00 5F 5F 73 74 64 5F 65 78 63 65 70 74 69 6F !.__std_exceptio
0042ABA0 6E 5F 63 6F 70 79 00 00 22 00 5F 5F 73 74 64 5F n_copy..".__std_
0042ABB0 65 78 63 65 70 74 69 6F 6E 5F 64 65 73 74 72 6F exception_destro
0042ABC0 79 00 01 00 5F 43 78 78 54 68 72 6F 77 45 78 63 y..._CxxThrowExc
0042ABD0 65 70 74 69 6F 6E 00 00 48 00 6D 65 6D 73 65 74 eption..H.memset
0042ABE0 00 00 25 00 5F 5F 73 74 64 5F 74 79 70 65 5F 69 ..%.__std_type_i
0042ABF0 6E 66 6F 5F 64 65 73 74 72 6F 79 5F 6C 69 73 74 nfo_destroy_list
0042AC00 00 00 2E 00 5F 5F 76 63 72 74 5F 47 65 74 4D 6F ....__vcrt_GetMo
0042AC10 64 75 6C 65 46 69 6C 65 4E 61 6D 65 57 00 2F 00 duleFileNameW./.
0042AC20 5F 5F 76 63 72 74 5F 47 65 74 4D 6F 64 75 6C 65 __vcrt_GetModule
0042AC30 48 61 6E 64 6C 65 57 00 31 00 5F 5F 76 63 72 74 HandleW.1.__vcrt
0042AC40 5F 4C 6F 61 64 4C 69 62 72 61 72 79 45 78 57 00 _LoadLibraryExW.
0042AC50 56 43 52 55 4E 54 49 4D 45 31 34 30 44 2E 64 6C VCRUNTIME140D.dl
0042AC60 6C 00 9B 01 5F 69 6E 76 61 6C 69 64 5F 70 61 72 l..._invalid_par
0042AC70 61 6D 65 74 65 72 00 00 14 00 5F 43 72 74 44 62 ameter...._CrtDb
0042AC80 67 52 65 70 6F 72 74 00 63 05 73 79 73 74 65 6D gReport.c.system
0042AC90 00 00 4E 05 73 74 72 6C 65 6E 00 00 66 05 74 65 ..N.strlen..f.te
0042ACA0 72 6D 69 6E 61 74 65 00 C7 00 5F 63 61 6C 6C 6E rminate..._calln
0042ACB0 65 77 68 00 F9 04 6D 61 6C 6C 6F 63 00 00 EE 02 ewh...malloc....
0042ACC0 5F 73 65 68 5F 66 69 6C 74 65 72 5F 64 6C 6C 00 _seh_filter_dll.
0042ACD0 DC 00 5F 63 6F 6E 66 69 67 75 72 65 5F 6E 61 72 .._configure_nar
0042ACE0 72 6F 77 5F 61 72 67 76 00 00 96 01 5F 69 6E 69 row_argv...._ini
0042ACF0 74 69 61 6C 69 7A 65 5F 6E 61 72 72 6F 77 5F 65 tialize_narrow_e
0042AD00 6E 76 69 72 6F 6E 6D 65 6E 74 00 00 97 01 5F 69 nvironment...._i
0042AD10 6E 69 74 69 61 6C 69 7A 65 5F 6F 6E 65 78 69 74 nitialize_onexit
0042AD20 5F 74 61 62 6C 65 00 00 E2 02 5F 72 65 67 69 73 _table...._regis
0042AD30 74 65 72 5F 6F 6E 65 78 69 74 5F 66 75 6E 63 74 ter_onexit_funct
0042AD40 69 6F 6E 00 0C 01 5F 65 78 65 63 75 74 65 5F 6F ion..._execute_o
0042AD50 6E 65 78 69 74 5F 74 61 62 6C 65 00 E8 00 5F 63 nexit_table..._c
0042AD60 72 74 5F 61 74 65 78 69 74 00 E7 00 5F 63 72 74 rt_atexit..._crt
0042AD70 5F 61 74 5F 71 75 69 63 6B 5F 65 78 69 74 00 00 _at_quick_exit..
0042AD80 CA 00 5F 63 65 78 69 74 00 00 15 00 5F 43 72 74 .._cexit...._Crt
0042AD90 44 62 67 52 65 70 6F 72 74 57 00 00 EF 02 5F 73 DbgReportW...._s
0042ADA0 65 68 5F 66 69 6C 74 65 72 5F 65 78 65 00 F2 02 eh_filter_exe...
0042ADB0 5F 73 65 74 5F 61 70 70 5F 74 79 70 65 00 81 00 _set_app_type...
0042ADC0 5F 5F 73 65 74 75 73 65 72 6D 61 74 68 65 72 72 __setusermatherr
0042ADD0 00 00 62 01 5F 67 65 74 5F 69 6E 69 74 69 61 6C ..b._get_initial
0042ADE0 5F 6E 61 72 72 6F 77 5F 65 6E 76 69 72 6F 6E 6D _narrow_environm
0042ADF0 65 6E 74 00 99 01 5F 69 6E 69 74 74 65 72 6D 00 ent..._initterm.
0042AE00 9A 01 5F 69 6E 69 74 74 65 72 6D 5F 65 00 76 04 .._initterm_e.v.
0042AE10 65 78 69 74 00 00 11 01 5F 65 78 69 74 00 F7 02 exit...._exit...
0042AE20 5F 73 65 74 5F 66 6D 6F 64 65 00 00 6F 00 5F 5F _set_fmode..o.__
0042AE30 70 5F 5F 5F 61 72 67 63 00 00 70 00 5F 5F 70 5F p___argc..p.__p_
0042AE40 5F 5F 61 72 67 76 00 00 C5 00 5F 63 5F 65 78 69 __argv...._c_exi
0042AE50 74 00 E3 02 5F 72 65 67 69 73 74 65 72 5F 74 68 t..._register_th
0042AE60 72 65 61 64 5F 6C 6F 63 61 6C 5F 65 78 65 5F 61 read_local_exe_a
0042AE70 74 65 78 69 74 5F 63 61 6C 6C 62 61 63 6B 00 00 texit_callback..
0042AE80 DB 00 5F 63 6F 6E 66 69 67 74 68 72 65 61 64 6C .._configthreadl
0042AE90 6F 63 61 6C 65 00 FA 02 5F 73 65 74 5F 6E 65 77 ocale..._set_new
0042AEA0 5F 6D 6F 64 65 00 73 00 5F 5F 70 5F 5F 63 6F 6D _mode.s.__p__com
0042AEB0 6D 6F 64 65 00 00 42 01 5F 66 72 65 65 5F 64 62 mode..B._free_db
0042AEC0 67 00 49 05 73 74 72 63 70 79 5F 73 00 00 45 05 g.I.strcpy_s..E.
0042AED0 73 74 72 63 61 74 5F 73 00 00 8E 00 5F 5F 73 74 strcat_s....__st
0042AEE0 64 69 6F 5F 63 6F 6D 6D 6F 6E 5F 76 73 70 72 69 dio_common_vspri
0042AEF0 6E 74 66 5F 73 00 E0 00 5F 63 6F 6E 74 72 6F 6C ntf_s..._control
0042AF00 66 70 5F 73 00 00 C9 03 5F 77 6D 61 6B 65 70 61 fp_s...._wmakepa
0042AF10 74 68 5F 73 00 00 E5 03 5F 77 73 70 6C 69 74 70 th_s...._wsplitp
0042AF20 61 74 68 5F 73 00 7F 05 77 63 73 63 70 79 5F 73 ath_s...wcscpy_s
0042AF30 00 00 75 63 72 74 62 61 73 65 64 2E 64 6C 6C 00 ..ucrtbased.dll.
0042AF40 1C 02 47 65 74 43 75 72 72 65 6E 74 54 68 72 65 ..GetCurrentThre
0042AF50 61 64 49 64 00 00 86 03 49 73 50 72 6F 63 65 73 adId....IsProces
0042AF60 73 6F 72 46 65 61 74 75 72 65 50 72 65 73 65 6E sorFeaturePresen
0042AF70 74 00 7F 03 49 73 44 65 62 75 67 67 65 72 50 72 t...IsDebuggerPr
0042AF80 65 73 65 6E 74 00 AD 05 55 6E 68 61 6E 64 6C 65 esent...Unhandle
0042AF90 64 45 78 63 65 70 74 69 6F 6E 46 69 6C 74 65 72 dExceptionFilter
0042AFA0 00 00 6D 05 53 65 74 55 6E 68 61 6E 64 6C 65 64 ..m.SetUnhandled
0042AFB0 45 78 63 65 70 74 69 6F 6E 46 69 6C 74 65 72 00 ExceptionFilter.
0042AFC0 D0 02 47 65 74 53 74 61 72 74 75 70 49 6E 66 6F ..GetStartupInfo
0042AFD0 57 00 78 02 47 65 74 4D 6F 64 75 6C 65 48 61 6E W.x.GetModuleHan
0042AFE0 64 6C 65 57 00 00 62 04 52 61 69 73 65 45 78 63 dleW..b.RaiseExc
0042AFF0 65 70 74 69 6F 6E 00 00 EF 03 4D 75 6C 74 69 42 eption....MultiB
0042B000 79 74 65 54 6F 57 69 64 65 43 68 61 72 00 FE 05 yteToWideChar...
0042B010 57 69 64 65 43 68 61 72 54 6F 4D 75 6C 74 69 42 WideCharToMultiB
0042B020 79 74 65 00 17 02 47 65 74 43 75 72 72 65 6E 74 yte...GetCurrent
0042B030 50 72 6F 63 65 73 73 00 8C 05 54 65 72 6D 69 6E Process...Termin
0042B040 61 74 65 50 72 6F 63 65 73 73 00 00 4D 04 51 75 ateProcess..M.Qu
0042B050 65 72 79 50 65 72 66 6F 72 6D 61 6E 63 65 43 6F eryPerformanceCo
0042B060 75 6E 74 65 72 00 18 02 47 65 74 43 75 72 72 65 unter...GetCurre
0042B070 6E 74 50 72 6F 63 65 73 73 49 64 00 E9 02 47 65 ntProcessId...Ge
0042B080 74 53 79 73 74 65 6D 54 69 6D 65 41 73 46 69 6C tSystemTimeAsFil
0042B090 65 54 69 6D 65 00 63 03 49 6E 69 74 69 61 6C 69 eTime.c.Initiali
0042B0A0 7A 65 53 4C 69 73 74 48 65 61 64 00 61 02 47 65 zeSListHead.a.Ge
0042B0B0 74 4C 61 73 74 45 72 72 6F 72 00 00 45 03 48 65 tLastError..E.He
0042B0C0 61 70 41 6C 6C 6F 63 00 49 03 48 65 61 70 46 72 apAlloc.I.HeapFr
0042B0D0 65 65 00 00 B4 02 47 65 74 50 72 6F 63 65 73 73 ee....GetProcess
0042B0E0 48 65 61 70 00 00 CE 05 56 69 72 74 75 61 6C 51 Heap....VirtualQ
0042B0F0 75 65 72 79 00 00 AB 01 46 72 65 65 4C 69 62 72 uery....FreeLibr
0042B100 61 72 79 00 AE 02 47 65 74 50 72 6F 63 41 64 64 ary...GetProcAdd
0042B110 72 65 73 73 00 00 4B 45 52 4E 45 4C 33 32 2E 64 ress..KERNEL32.d
0042B120 6C 6C 00 00 00 00 00 00 00 00 00 00 00 00 00 00 ll..............
0042B130 00 00 00 00 00 00 00 00 00 00 00 00 00 00 00 00 ................
; ...
;;; Segment .msvcjmc (0042C000)
0042C000 01 01 01 01 01 01 01 01 01 01 01 01 01 01 01 01 ................
0042C010 01 01 01 01 01 01 01 01 01 01 01 01 01 01 01 01 ................
0042C020 01 01 01 01 01 01 01 01 01 01 01 01 01 01 01 01 ................
0042C030 01 01 00 00 00 00 00 00 00 00 00 00 00 00 00 00 ................
0042C040 00 00 00 00 00 00 00 00 00 00 00 00 00 00 00 00 ................
; ...
;;; Segment .00cfg (0042D000)
0042D000 66 13 41 00 00 00 00 00 00 00 00 00 00 00 00 00 f.A.............
0042D010 00 00 00 00 00 00 00 00 00 00 00 00 00 00 00 00 ................
; ...
;;; Segment .rsrc (0042E000)
0042E000 00 00 00 00 00 00 00 00 00 00 00 00 00 00 01 00 ................
0042E010 18 00 00 00 18 00 00 80 00 00 00 00 00 00 00 00 ................
0042E020 00 00 00 00 00 00 01 00 01 00 00 00 30 00 00 80 ............0...
0042E030 00 00 00 00 00 00 00 00 00 00 00 00 00 00 01 00 ................
0042E040 09 04 00 00 48 00 00 00 70 E1 02 00 7D 01 00 00 ....H...p...}...
0042E050 00 00 00 00 00 00 00 00 00 00 00 00 00 00 00 00 ................
; ...
0042E170 3C 3F 78 6D 6C 20 76 65 72 73 69 6F 6E 3D 27 31 <?xml version='1
0042E180 2E 30 27 20 65 6E 63 6F 64 69 6E 67 3D 27 55 54 .0' encoding='UT
0042E190 46 2D 38 27 20 73 74 61 6E 64 61 6C 6F 6E 65 3D F-8' standalone=
0042E1A0 27 79 65 73 27 3F 3E 0D 0A 3C 61 73 73 65 6D 62 'yes'?>..<assemb
0042E1B0 6C 79 20 78 6D 6C 6E 73 3D 27 75 72 6E 3A 73 63 ly xmlns='urn:sc
0042E1C0 68 65 6D 61 73 2D 6D 69 63 72 6F 73 6F 66 74 2D hemas-microsoft-
0042E1D0 63 6F 6D 3A 61 73 6D 2E 76 31 27 20 6D 61 6E 69 com:asm.v1' mani
0042E1E0 66 65 73 74 56 65 72 73 69 6F 6E 3D 27 31 2E 30 festVersion='1.0
0042E1F0 27 3E 0D 0A 20 20 3C 74 72 75 73 74 49 6E 66 6F '>..  <trustInfo
0042E200 20 78 6D 6C 6E 73 3D 22 75 72 6E 3A 73 63 68 65  xmlns="urn:sche
0042E210 6D 61 73 2D 6D 69 63 72 6F 73 6F 66 74 2D 63 6F mas-microsoft-co
0042E220 6D 3A 61 73 6D 2E 76 33 22 3E 0D 0A 20 20 20 20 m:asm.v3">..    
0042E230 3C 73 65 63 75 72 69 74 79 3E 0D 0A 20 20 20 20 <security>..    
0042E240 20 20 3C 72 65 71 75 65 73 74 65 64 50 72 69 76   <requestedPriv
0042E250 69 6C 65 67 65 73 3E 0D 0A 20 20 20 20 20 20 20 ileges>..       
0042E260 20 3C 72 65 71 75 65 73 74 65 64 45 78 65 63 75  <requestedExecu
0042E270 74 69 6F 6E 4C 65 76 65 6C 20 6C 65 76 65 6C 3D tionLevel level=
0042E280 27 61 73 49 6E 76 6F 6B 65 72 27 20 75 69 41 63 'asInvoker' uiAc
0042E290 63 65 73 73 3D 27 66 61 6C 73 65 27 20 2F 3E 0D cess='false' />.
0042E2A0 0A 20 20 20 20 20 20 3C 2F 72 65 71 75 65 73 74 .      </request
0042E2B0 65 64 50 72 69 76 69 6C 65 67 65 73 3E 0D 0A 20 edPrivileges>.. 
0042E2C0 20 20 20 3C 2F 73 65 63 75 72 69 74 79 3E 0D 0A    </security>..
0042E2D0 20 20 3C 2F 74 72 75 73 74 49 6E 66 6F 3E 0D 0A   </trustInfo>..
0042E2E0 3C 2F 61 73 73 65 6D 62 6C 79 3E 0D 0A 00 00 00 </assembly>.....
0042E2F0 00 00 00 00 00 00 00 00 00 00 00 00 00 00 00 00 ................
; ...
;;; Segment .reloc (0042F000)
0042F000 00 10 01 00 14 00 00 00 3F 3F 49 3F 53 3F AF 3F ........??I?S?.?
0042F010 B9 3F C3 3F 00 30 01 00 6C 00 00 00 F4 33 46 34 .?.?.0..l....3F4
0042F020 6F 34 83 34 F4 34 46 35 6F 35 83 35 2F 36 86 36 o4.4.4F5o5.5/6.6
0042F030 AE 36 C5 36 0C 37 55 37 99 37 03 38 25 38 48 38 .6.6.7U7.7.8%8H8
0042F040 B2 38 D2 38 65 39 87 39 AA 39 14 3A 20 3A 4A 3A .8.8e9.9.9.: :J:
0042F050 6A 3A 99 3A D4 3A E0 3A 14 3B 96 3B BF 3B D3 3B j:.:.:.:.;.;.;.;
0042F060 16 3C 3E 3C 55 3C 8A 3C C6 3C 04 3D 85 3D E5 3D .<><U<.<.<.=.=.=
0042F070 07 3E 2A 3E 96 3E BD 3E 38 3F 5A 3F 7D 3F E7 3F .>*>.>.>8?Z?}?.?
0042F080 00 40 01 00 A8 00 00 00 09 30 15 30 3F 30 6E 30 .@.......0.0?0n0
0042F090 A8 30 B4 30 E4 30 08 31 0D 31 19 31 21 31 3F 31 .0.0.0.1.1.1!1?1
0042F0A0 44 31 49 31 4F 31 AF 31 0F 32 56 32 7D 32 8E 32 D1I1O1.1.2V2}2.2
0042F0B0 E6 32 0D 33 2B 33 A3 33 DC 33 E8 33 5F 34 EF 34 .2.3+3.3.3.3_4.4
0042F0C0 2A 35 2F 35 38 35 40 35 5B 35 60 35 65 35 6B 35 *5/585@5[5`5e5k5
0042F0D0 2F 36 7F 36 FF 36 6F 37 BF 37 26 38 4E 38 65 38 /6.6.6o7.7&8N8e8
0042F0E0 86 38 C2 38 E3 38 51 39 9C 39 BE 39 E1 39 51 3A .8.8.8Q9.9.9.9Q:
0042F0F0 77 3A EF 3A 11 3B 34 3B 9E 3B C0 3B CC 3B F6 3B w:.:.;4;.;.;.;.;
0042F100 25 3C 60 3C 6C 3C A4 3C 16 3D 3D 3D 4E 3D 96 3D %<`<l<.<.===N=.=
0042F110 BD 3D CE 3D 56 3E 7D 3E 8E 3E 16 3F 3D 3F 4E 3F .=.=V>}>.>.?=?N?
0042F120 72 3F A0 3F AC 3F E6 3F 00 50 01 00 78 00 00 00 r?.?.?.?.P..x...
0042F130 0D 30 1E 30 91 30 9E 30 89 31 B8 31 C4 31 51 32 .0.0.0.0.1.1.1Q2
0042F140 5E 32 94 33 C4 33 D0 33 71 34 7E 34 AA 35 DC 35 ^2.3.3.3q4~4.5.5
0042F150 E8 35 81 36 8E 36 CA 37 FC 37 08 38 96 38 BD 38 .5.6.6.7.7.8.8.8
0042F160 CE 38 7F 39 CF 39 06 3A 2D 3A 3E 3A 96 3A BD 3A .8.9.9.:-:>:.:.:
0042F170 CE 3A 26 3B 4D 3B 5E 3B CF 3B 4F 3C DF 3C 2F 3D .:&;M;^;.;O<.</=
0042F180 7F 3D 9B 3D B1 3D C3 3D 16 3E 3D 3E 4E 3E A6 3E .=.=.=.=.>=>N>.>
0042F190 CD 3E DE 3E 36 3F 5D 3F 6E 3F C6 3F EE 3F 00 00 .>.>6?]?n?.?.?..
0042F1A0 00 60 01 00 90 00 00 00 05 30 6F 30 8A 30 B7 30 .`.......0o0.0.0
0042F1B0 D2 30 50 31 6B 31 D5 31 E1 31 1C 32 4B 32 84 32 .0P1k1.1.1.2K2.2
0042F1C0 90 32 9C 32 A8 32 F4 32 AF 33 CB 33 36 34 5D 34 .2.2.2.2.3.364]4
0042F1D0 6E 34 C6 34 ED 34 FE 34 56 35 7D 35 8E 35 E6 35 n4.4.4.4V5}5.5.5
0042F1E0 0F 36 23 36 C4 36 36 37 5F 37 73 37 C6 37 EF 37 .6#6.667_7s7.7.7
0042F1F0 03 38 A6 38 CF 38 E3 38 86 39 AF 39 C3 39 46 3A .8.8.8.8.9.9.9F:
0042F200 6F 3A 83 3A 04 3B 64 3B A6 3B CF 3B E3 3B 74 3C o:.:.;d;.;.;.;t<
0042F210 A5 3C D4 3C 74 3D A5 3D D4 3D 56 3E 7F 3E 93 3E .<.<t=.=.=V>.>.>
0042F220 BD 3E 36 3F 5F 3F 73 3F A0 3F C3 3F E3 3F 00 00 .>6?_?s?.?.?.?..
0042F230 00 70 01 00 94 00 00 00 04 30 15 30 31 30 16 31 .p.......0.010.1
0042F240 3F 31 53 31 16 32 3F 32 53 32 B6 32 DF 32 F3 32 ?1S1.2?2S2.2.2.2
0042F250 46 33 6F 33 83 33 AC 33 DB 33 66 34 8F 34 A3 34 F3o3.3.3.3f4.4.4
0042F260 CC 34 FB 34 D6 35 FF 35 13 36 31 36 96 36 BD 36 .4.4.5.5.616.6.6
0042F270 CE 36 26 37 4F 37 63 37 04 38 A4 38 F1 38 FE 38 .6&7O7c7.8.8.8.8
0042F280 7F 39 AC 39 B8 39 04 3A 64 3A B4 3A 84 3B 24 3C .9.9.9.:d:.:.;$<
0042F290 54 3D C4 3D 1F 3E 67 3E 6C 3E 73 3E 7C 3E 84 3E T=.=.>g>l>s>|>.>
0042F2A0 9D 3E A6 3E AB 3E B0 3E B6 3E EF 3E F4 3E FB 3E .>.>.>.>.>.>.>.>
0042F2B0 04 3F 0C 3F 25 3F 2E 3F 33 3F 38 3F 3E 3F 91 3F .?.?%?.?3?8?>?.?
0042F2C0 9E 3F 00 00 00 80 01 00 78 00 00 00 19 30 48 30 .?......x....0H0
0042F2D0 54 30 2F 31 D6 31 FF 31 13 32 F6 32 1F 33 33 33 T0/1.1.1.2.2.333
0042F2E0 14 34 E4 34 B4 35 11 36 1E 36 2E 37 60 37 6C 37 .4.4.5.6.6.7`7l7
0042F2F0 44 38 F6 38 1F 39 33 39 C1 39 CE 39 32 3A 60 3A D8.8.939.9.92:`:
0042F300 6C 3A A6 3A CF 3A E3 3A 36 3B 5F 3B 73 3B C6 3B l:.:.:.:6;_;s;.;
0042F310 EF 3B 03 3C 56 3C 7F 3C 93 3C E6 3C 0F 3D 23 3D .;.<V<.<.<.<.=#=
0042F320 76 3D 9F 3D B3 3D 06 3E 2F 3E 43 3E 96 3E BF 3E v=.=.=.>/>C>.>.>
0042F330 D3 3E 34 3F 86 3F AF 3F C6 3F E0 3F 00 90 01 00 .>4?.?.?.?.?....
0042F340 78 00 00 00 2D 30 3E 30 78 30 84 30 96 30 BF 30 x...-0>0x0.0.0.0
0042F350 D3 30 44 31 D4 31 44 32 94 32 24 34 84 34 56 35 .0D1.1D2.2$4.4V5
0042F360 7F 35 96 35 A8 35 F8 35 09 36 44 36 50 36 66 36 .5.5.5.5.6D6P6f6
0042F370 8F 36 A6 36 1A 37 54 37 60 37 9F 37 A9 37 FF 37 .6.6.7T7`7.7.7.7
0042F380 09 38 4F 38 9F 38 14 39 84 39 04 3A 74 3A A4 3B .8O8.8.9.9.:t:.;
0042F390 16 3D 3D 3D 4E 3D 2F 3F 4B 3F 5E 3F 78 3F 7D 3F .===N=/?K?^?x?}?
0042F3A0 82 3F 8B 3F 9B 3F BE 3F D1 3F D6 3F DD 3F E3 3F .?.?.?.?.?.?.?.?
0042F3B0 E9 3F 00 00 00 A0 01 00 84 00 00 00 01 30 1F 30 .?...........0.0
0042F3C0 32 30 4A 30 4F 30 61 30 68 30 6E 30 74 30 83 30 20J0O0a0h0n0t0.0
0042F3D0 16 35 3D 35 4E 35 B6 35 DD 35 EE 35 DF 36 54 37 .5=5N5.5.5.5.6T7
0042F3E0 96 37 BD 37 D1 37 DD 37 E2 37 E9 37 EE 37 F5 37 .7.7.7.7.7.7.7.7
0042F3F0 FA 37 FF 37 10 38 28 38 40 38 60 38 6E 38 87 38 .7.7.8(8@8`8n8.8
0042F400 92 38 AB 38 D9 38 14 39 20 39 C6 39 ED 39 FE 39 .8.8.8.9 9.9.9.9
0042F410 86 3A AD 3A BE 3A 34 3B B6 3B DF 3B F3 3B 46 3C .:.:.:4;.;.;.;F<
0042F420 6D 3C 7E 3C D6 3C FD 3C 0E 3D 66 3D 8D 3D 9E 3D m<~<.<.<.=f=.=.=
0042F430 66 3F 8D 3F 9E 3F 00 00 00 B0 01 00 84 00 00 00 f?.?.?..........
0042F440 94 30 DF 31 66 32 8F 32 A3 32 1F 34 2B 34 30 34 .0.1f2.2.2.4+404
0042F450 35 34 46 34 52 34 57 34 67 34 6D 34 7C 34 81 34 54F4R4W4g4m4|4.4
0042F460 97 34 9C 34 A1 34 B2 34 C2 34 C7 34 CC 34 D1 34 .4.4.4.4.4.4.4.4
0042F470 EB 34 F7 34 28 35 D6 37 01 38 1C 38 26 38 37 38 .4.4(5.7.8.8&878
0042F480 48 38 4D 38 8B 38 AB 38 D7 38 4A 39 8A 39 A9 39 H8M8.8.8.8J9.9.9
0042F490 B4 39 B9 39 C0 39 C6 39 CC 39 E4 39 FC 39 0A 3A .9.9.9.9.9.9.9.:
0042F4A0 11 3A 17 3A 1D 3A 2C 3A 3C 3A 7D 3A B8 3A C4 3A .:.:.:,:<:}:.:.:
0042F4B0 D0 3A DC 3A 86 3F AD 3F BE 3F 00 00 00 C0 01 00 .:.:.?.?.?......
0042F4C0 90 00 00 00 75 30 7B 30 81 30 87 30 8D 30 93 30 ....u0{0.0.0.0.0
0042F4D0 99 30 9F 30 A5 30 AB 30 B1 30 B7 30 BD 30 C3 30 .0.0.0.0.0.0.0.0
0042F4E0 C9 30 CF 30 D5 30 DB 30 E1 30 E7 30 ED 30 F3 30 .0.0.0.0.0.0.0.0
0042F4F0 F9 30 FF 30 46 31 4B 31 5D 31 A0 31 66 32 6B 32 .0.0F1K1]1.1f2k2
0042F500 7D 32 D1 32 A6 33 AB 33 BD 33 08 34 04 35 17 35 }2.2.3.3.3.4.5.5
0042F510 34 35 57 35 22 37 58 38 9D 38 FB 38 59 39 8B 39 45W5"7X8.8.8Y9.9
0042F520 A3 39 DD 39 E6 39 EE 39 09 3A 12 3A 1A 3A 20 3A .9.9.9.9.:.:.: :
0042F530 76 3A 7B 3A 8D 3A AC 3A 0B 3C 26 3C 77 3C B8 3C v:{:.:.:.<&<w<.<
0042F540 07 3D 38 3D DB 3F E4 3F EA 3F 00 00 00 D0 01 00 .=8=.?.?.?......
0042F550 84 00 00 00 12 30 31 30 41 30 52 30 65 30 22 31 .....010A0R0e0"1
0042F560 4D 31 26 32 2B 32 3D 32 80 32 92 32 9B 32 A4 32 M1&2+2=2.2.2.2.2
0042F570 A9 32 D0 32 D5 32 E3 32 3A 33 74 35 79 35 E5 35 .2.2.2.2:3t5y5.5
0042F580 F2 35 3A 36 68 36 8A 36 9B 36 C8 36 E8 36 F9 36 .5:6h6.6.6.6.6.6
0042F590 1C 37 6C 37 EC 37 DF 38 0F 39 50 39 97 39 A4 39 .7l7.7.8.9P9.9.9
0042F5A0 AD 39 B5 39 E2 39 EC 39 F5 39 FE 3A 07 3B 83 3B .9.9.9.9.9.:.;.;
0042F5B0 8B 3B A9 3B B2 3B BA 3B 11 3C 1B 3C 24 3C 3A 3C .;.;.;.;.<.<$<:<
0042F5C0 44 3C 4D 3C 36 3D 3C 3E 68 3E 72 3E 0C 3F 6A 3F D<M<6=<>h>r>.?j?
0042F5D0 00 E0 01 00 30 01 00 00 14 30 1A 30 C5 30 9A 31 ....0....0.0.0.1
0042F5E0 AD 31 C5 31 FF 31 08 32 14 32 1F 32 25 32 2B 32 .1.1.1.2.2.2%2+2
0042F5F0 30 32 35 32 BE 32 C5 32 E0 32 2A 33 3E 33 60 33 0252.2.2.2*3>3`3
0042F600 88 33 A9 33 3C 34 BA 34 13 35 32 35 41 35 61 35 .3.3<4.4.525A5a5
0042F610 91 35 DC 35 F3 35 0E 36 25 36 43 36 5A 36 7D 36 .5.5.5.6%6C6Z6}6
0042F620 8E 36 36 37 3B 37 4D 37 78 37 DA 37 EA 37 0B 38 .667;7M7x7.7.7.8
0042F630 33 38 54 38 B1 38 37 39 41 39 4C 39 53 39 8C 39 38T8.879A9L9S9.9
0042F640 92 39 98 39 9E 39 A4 39 AA 39 B1 39 B8 39 BF 39 .9.9.9.9.9.9.9.9
0042F650 C6 39 CD 39 D4 39 DB 39 E3 39 EB 39 F3 39 FF 39 .9.9.9.9.9.9.9.9
0042F660 08 3A 0D 3A 13 3A 1D 3A 27 3A 39 3A 4B 3A 5D 3A .:.:.:.:':9:K:]:
0042F670 66 3A EA 3A F0 3A F6 3A FC 3A 02 3B 08 3B 0F 3B f:.:.:.:.:.;.;.;
0042F680 16 3B 1D 3B 24 3B 2B 3B 32 3B 39 3B 41 3B 49 3B .;.;$;+;2;9;A;I;
0042F690 51 3B 5C 3B 61 3B 67 3B 71 3B 7B 3B 90 3B 95 3B Q;\;a;g;q;{;.;.;
0042F6A0 FA 3B 00 3C 06 3C 0C 3C 12 3C 18 3C 1F 3C 26 3C .;.<.<.<.<.<.<&<
0042F6B0 2D 3C 34 3C 3B 3C 42 3C 49 3C 51 3C 59 3C 61 3C -<4<;<B<I<Q<Y<a<
0042F6C0 6C 3C 71 3C 77 3C 81 3C B3 3C C4 3C F1 3C F8 3C l<q<w<.<.<.<.<.<
0042F6D0 51 3D 61 3D 7E 3D A4 3D AD 3D B3 3D D4 3D DD 3D Q=a=~=.=.=.=.=.=
0042F6E0 E3 3D 0E 3E 18 3E 44 3E 59 3E 65 3E 75 3E C6 3E .=.>.>D>Y>e>u>.>
0042F6F0 D1 3E DE 3E E6 3E 27 3F 32 3F B4 3F BA 3F D4 3F .>.>.>'?2?.?.?.?
0042F700 00 F0 01 00 84 01 00 00 54 30 B6 30 E4 30 F4 30 ........T0.0.0.0
0042F710 02 31 09 31 1A 31 25 31 42 31 49 31 5A 31 65 31 .1.1.1%1B1I1Z1e1
0042F720 8C 31 EA 31 F5 31 02 32 15 32 7D 32 A5 32 B7 32 .1.1.1.2.2}2.2.2
0042F730 7A 33 8E 33 A7 33 BB 33 C7 33 DA 33 E1 33 EC 33 z3.3.3.3.3.3.3.3
0042F740 F3 33 FE 33 05 34 21 34 2C 34 39 34 74 34 80 34 .3.3.4!4,494t4.4
0042F750 98 34 A1 34 0B 35 17 35 23 35 2F 35 3B 35 47 35 .4.4.5.5#5/5;5G5
0042F760 53 35 5F 35 6C 35 96 35 6A 36 B2 36 CC 36 97 37 S5_5l5.5j6.6.6.7
0042F770 22 38 2E 38 3F 38 4D 38 55 38 5A 38 61 38 88 38 "8.8?8M8U8Z8a8.8
0042F780 AB 38 CB 38 D5 38 FF 38 26 39 4C 39 80 39 B5 39 .8.8.8.8&9L9.9.9
0042F790 C8 39 CF 39 DE 39 F2 39 06 3A 1A 3A 42 3A 49 3A .9.9.9.9.:.:B:I:
0042F7A0 73 3A D4 3A 3A 3C 40 3C 46 3C 4C 3C 52 3C 58 3C s:.::<@<F<L<R<X<
0042F7B0 5E 3C 64 3C 6A 3C 70 3C 76 3C 7C 3C 82 3C 88 3C ^<d<j<p<v<|<.<.<
0042F7C0 8E 3C 94 3C 9A 3C A0 3C A6 3C AC 3C B2 3C B8 3C .<.<.<.<.<.<.<.<
0042F7D0 BE 3C C4 3C CA 3C D0 3C D6 3C DC 3C E2 3C E8 3C .<.<.<.<.<.<.<.<
0042F7E0 EE 3C F4 3C FA 3C 00 3D 06 3D 0C 3D 12 3D 18 3D .<.<.<.=.=.=.=.=
0042F7F0 1E 3D 24 3D 2A 3D 30 3D 36 3D 3C 3D 42 3D 48 3D .=$=*=0=6=<=B=H=
0042F800 4E 3D 54 3D 5A 3D 60 3D 66 3D 6C 3D 72 3D 78 3D N=T=Z=`=f=l=r=x=
0042F810 7E 3D 84 3D 8A 3D 90 3D 96 3D 9C 3D A2 3D A8 3D ~=.=.=.=.=.=.=.=
0042F820 AE 3D B4 3D BA 3D C0 3D C6 3D CC 3D D2 3D D8 3D .=.=.=.=.=.=.=.=
0042F830 DE 3D E4 3D EA 3D F0 3D F6 3D FC 3D 02 3E 8F 3E .=.=.=.=.=.=.>.>
0042F840 C7 3E CE 3E D3 3E D8 3E E7 3E EC 3E FB 3E 00 3F .>.>.>.>.>.>.>.?
0042F850 0F 3F 14 3F 23 3F 28 3F 37 3F 3C 3F 4B 3F 50 3F .?.?#?(?7?<?K?P?
0042F860 5F 3F 64 3F 73 3F 78 3F 87 3F 8C 3F 9B 3F A0 3F _?d?s?x?.?.?.?.?
0042F870 AF 3F B4 3F C3 3F C8 3F D7 3F DC 3F EB 3F F0 3F .?.?.?.?.?.?.?.?
0042F880 FF 3F 00 00 00 00 02 00 EC 01 00 00 04 30 13 30 .?...........0.0
0042F890 18 30 27 30 2C 30 3B 30 40 30 4F 30 54 30 63 30 .0'0,0;0@0O0T0c0
0042F8A0 68 30 77 30 7C 30 8B 30 90 30 9F 30 A4 30 B3 30 h0w0|0.0.0.0.0.0
0042F8B0 B8 30 C7 30 CC 30 DB 30 E0 30 EF 30 F4 30 03 31 .0.0.0.0.0.0.0.1
0042F8C0 08 31 17 31 1C 31 2B 31 30 31 3F 31 44 31 53 31 .1.1.1+101?1D1S1
0042F8D0 58 31 67 31 6C 31 7B 31 80 31 8F 31 94 31 A3 31 X1g1l1{1.1.1.1.1
0042F8E0 A8 31 B7 31 BC 31 CB 31 D0 31 DF 31 E4 31 F3 31 .1.1.1.1.1.1.1.1
0042F8F0 F8 31 07 32 0C 32 1B 32 20 32 2F 32 34 32 43 32 .1.2.2.2 2/242C2
0042F900 48 32 57 32 5C 32 68 32 6D 32 79 32 7E 32 8A 32 H2W2\2h2m2y2~2.2
0042F910 8F 32 9B 32 A0 32 AC 32 B1 32 BD 32 C2 32 CE 32 .2.2.2.2.2.2.2.2
0042F920 D3 32 F0 32 F4 32 F8 32 FC 32 00 33 04 33 08 33 .2.2.2.2.2.3.3.3
0042F930 0C 33 10 33 14 33 18 33 1C 33 20 33 24 33 28 33 .3.3.3.3.3 3$3(3
0042F940 2C 33 30 33 34 33 38 33 3C 33 40 33 44 33 48 33 ,3034383<3@3D3H3
0042F950 4C 33 50 33 54 33 58 33 5C 33 60 33 64 33 68 33 L3P3T3X3\3`3d3h3
0042F960 6C 33 70 33 74 33 78 33 7C 33 80 33 84 33 88 33 l3p3t3x3|3.3.3.3
0042F970 8C 33 90 33 94 33 98 33 9C 33 A0 33 A4 33 A8 33 .3.3.3.3.3.3.3.3
0042F980 AC 33 B0 33 B4 33 B8 33 BC 33 C0 33 C4 33 36 34 .3.3.3.3.3.3.364
0042F990 5D 34 75 34 7F 34 98 34 A3 34 BC 34 C7 34 E0 34 ]4u4.4.4.4.4.4.4
0042F9A0 EB 34 04 35 0F 35 28 35 33 35 4C 35 57 35 70 35 .4.5.5(535L5W5p5
0042F9B0 7B 35 94 35 9F 35 B8 35 C3 35 DC 35 E7 35 00 36 {5.5.5.5.5.5.5.6
0042F9C0 0B 36 24 36 2F 36 48 36 53 36 6C 36 77 36 90 36 .6$6/6H6S6l6w6.6
0042F9D0 9B 36 B4 36 BF 36 D8 36 E3 36 FC 36 07 37 20 37 .6.6.6.6.6.6.7 7
0042F9E0 2B 37 44 37 4F 37 68 37 73 37 8C 37 97 37 B0 37 +7D7O7h7s7.7.7.7
0042F9F0 BB 37 D4 37 DF 37 F8 37 03 38 1C 38 27 38 40 38 .7.7.7.7.8.8'8@8
0042FA00 4B 38 64 38 6F 38 88 38 93 38 AC 38 B7 38 D0 38 K8d8o8.8.8.8.8.8
0042FA10 DB 38 F4 38 FF 38 18 39 23 39 3C 39 47 39 60 39 .8.8.8.9#9<9G9`9
0042FA20 6B 39 84 39 8F 39 A8 39 B3 39 CC 39 D7 39 F0 39 k9.9.9.9.9.9.9.9
0042FA30 FB 39 14 3A 1F 3A 38 3A 43 3A 5C 3A 67 3A 80 3A .9.:.:8:C:\:g:.:
0042FA40 8B 3A A4 3A AF 3A C8 3A D3 3A EC 3A F7 3A 10 3B .:.:.:.:.:.:.:.;
0042FA50 1B 3B 34 3B 3F 3B 58 3B 63 3B 7C 3B 84 3B 9D 3B .;4;?;X;c;|;.;.;
0042FA60 A5 3B BE 3B C6 3B DF 3B E7 3B EE 3B F5 3B 06 3C .;.;.;.;.;.;.;.<
0042FA70 00 10 02 00 98 00 00 00 E5 31 1D 32 57 32 97 32 .........1.2W2.2
0042FA80 C5 32 07 33 47 33 75 33 A5 33 D5 33 05 34 35 34 .2.3G3u3.3.3.454
0042FA90 65 34 95 34 C5 34 F5 34 25 35 55 35 97 35 C5 35 e4.4.4.4%5U5.5.5
0042FAA0 F5 35 25 36 5D 36 85 36 B5 36 ED 36 1D 37 45 37 .5%6]6.6.6.6.7E7
0042FAB0 75 37 AD 37 DD 37 05 38 35 38 65 38 95 38 C5 38 u7.7.7.858e8.8.8
0042FAC0 F5 38 25 39 55 39 85 39 B5 39 E5 39 15 3A 45 3A .8%9U9.9.9.9.:E:
0042FAD0 75 3A A5 3A D5 3A 05 3B 35 3B 65 3B 95 3B CF 3B u:.:.:.;5;e;.;.;
0042FAE0 0F 3C 45 3C 7D 3C A5 3C D5 3C 05 3D 47 3D 75 3D .<E<}<.<.<.=G=u=
0042FAF0 A5 3D D5 3D 05 3E 35 3E 65 3E 9F 3E D5 3E 05 3F .=.=.>5>e>.>.>.?
0042FB00 39 3F 6D 3F A5 3F D5 3F 00 30 02 00 0C 00 00 00 9?m?.?.?.0......
0042FB10 CF 30 1F 31 00 50 02 00 14 00 00 00 04 31 08 32 .0.1.P.......1.2
0042FB20 0C 32 1C 35 20 36 00 00 00 60 02 00 3C 00 00 00 .2.5 6...`..<...
0042FB30 38 35 3C 35 40 35 60 35 64 35 68 35 84 35 88 35 85<5@5`5d5h5.5.5
0042FB40 8C 35 B0 35 B4 35 B8 35 BC 35 C0 35 C4 35 70 3C .5.5.5.5.5.5.5p<
0042FB50 74 3C 7C 3C 80 3C 84 3C 88 3C 8C 3C 60 3D 64 3D t<|<.<.<.<.<`=d=
0042FB60 F4 3F 00 00 00 70 02 00 48 00 00 00 00 30 14 32 .?...p..H....0.2
0042FB70 18 32 2C 32 34 32 3C 32 54 32 6C 32 70 32 84 32 .2,242<2T2l2p2.2
0042FB80 8C 32 90 32 98 32 B0 32 C8 32 CC 32 E0 32 E8 32 .2.2.2.2.2.2.2.2
0042FB90 EC 32 F0 32 F8 32 10 33 28 33 2C 33 40 33 48 33 .2.2.2.3(3,3@3H3
0042FBA0 50 33 68 33 0C 37 18 3A F4 3E 00 3F 00 80 02 00 P3h3.7.:.>.?....
0042FBB0 8C 00 00 00 B4 30 C0 30 0C 31 18 31 CC 32 D8 32 .....0.0.1.1.2.2
0042FBC0 04 33 18 33 20 33 3C 33 44 33 70 33 84 33 8C 33 .3.3 3<3D3p3.3.3
0042FBD0 A8 33 B0 33 D4 33 DC 33 E4 33 EC 33 F8 33 20 34 .3.3.3.3.3.3.3 4
0042FBE0 2C 34 50 34 5C 34 F8 34 04 35 40 36 4C 36 A0 36 ,4P4\4.4.5@6L6.6
0042FBF0 B4 36 BC 36 D8 36 E0 36 34 37 48 37 50 37 6C 37 .6.6.6.647H7P7l7
0042FC00 74 37 88 38 94 38 D0 38 F0 38 0C 39 10 39 2C 39 t7.8.8.8.8.9.9,9
0042FC10 30 39 4C 39 50 39 5C 39 64 39 70 39 74 39 80 39 09L9P9\9d9p9t9.9
0042FC20 94 39 A0 39 B4 39 C0 39 C8 39 D4 39 D8 39 DC 39 .9.9.9.9.9.9.9.9
0042FC30 E8 39 FC 39 1C 3A 20 3A 00 90 02 00 10 00 00 00 .9.9.: :........
0042FC40 48 31 6C 31 90 31 C0 31 00 D0 02 00 0C 00 00 00 H1l1.1.1........
0042FC50 00 30 00 00 00 00 00 00 00 00 00 00 00 00 00 00 .0..............
0042FC60 00 00 00 00 00 00 00 00 00 00 00 00 00 00 00 00 ................
; ...
